
firmware.elf:     file format elf32-littleriscv


Disassembly of section .memory:

00000000 <reset_vec>:
       0:	00000093          	li	ra,0
       4:	00000113          	li	sp,0
       8:	00000193          	li	gp,0
       c:	00000213          	li	tp,0
      10:	00000293          	li	t0,0
      14:	00000313          	li	t1,0
      18:	00000393          	li	t2,0
      1c:	00000413          	li	s0,0
      20:	00000493          	li	s1,0
      24:	00000513          	li	a0,0
      28:	00000593          	li	a1,0
      2c:	00000613          	li	a2,0
      30:	00000693          	li	a3,0
      34:	00000713          	li	a4,0
      38:	00000793          	li	a5,0
      3c:	00000813          	li	a6,0
      40:	00000893          	li	a7,0
      44:	00000913          	li	s2,0
      48:	00000993          	li	s3,0
      4c:	00000a13          	li	s4,0
      50:	00000a93          	li	s5,0
      54:	00000b13          	li	s6,0
      58:	00000b93          	li	s7,0
      5c:	00000c13          	li	s8,0
      60:	00000c93          	li	s9,0
      64:	00000d13          	li	s10,0
      68:	00000d93          	li	s11,0
      6c:	00000e13          	li	t3,0
      70:	00000e93          	li	t4,0
      74:	00000f13          	li	t5,0
      78:	00000f93          	li	t6,0
      7c:	3e800093          	li	ra,1000
      80:	62c0306f          	j	36ac <lui>

00000084 <lui_ret>:
      84:	3e800093          	li	ra,1000
      88:	1980106f          	j	1220 <auipc>

0000008c <auipc_ret>:
      8c:	3e800093          	li	ra,1000
      90:	7480206f          	j	27d8 <j>

00000094 <j_ret>:
      94:	3e800093          	li	ra,1000
      98:	0050206f          	j	289c <jal>

0000009c <jal_ret>:
      9c:	3e800093          	li	ra,1000
      a0:	0dd0206f          	j	297c <jalr>

000000a4 <jalr_ret>:
      a4:	3e800093          	li	ra,1000
      a8:	24c0106f          	j	12f4 <beq>

000000ac <beq_ret>:
      ac:	3e800093          	li	ra,1000
      b0:	3dc0206f          	j	248c <bne>

000000b4 <bne_ret>:
      b4:	3e800093          	li	ra,1000
      b8:	50d0106f          	j	1dc4 <blt>

000000bc <blt_ret>:
      bc:	3e800093          	li	ra,1000
      c0:	57c0106f          	j	163c <bge>

000000c4 <bge_ret>:
      c4:	3e800093          	li	ra,1000
      c8:	0440206f          	j	210c <bltu>

000000cc <bltu_ret>:
      cc:	3e800093          	li	ra,1000
      d0:	1150106f          	j	19e4 <bgeu>

000000d4 <bgeu_ret>:
      d4:	3e800093          	li	ra,1000
      d8:	2310206f          	j	2b08 <lb>

000000dc <lb_ret>:
      dc:	3e800093          	li	ra,1000
      e0:	7d10206f          	j	30b0 <lh>

000000e4 <lh_ret>:
      e4:	3e800093          	li	ra,1000
      e8:	6ac0306f          	j	3794 <lw>

000000ec <lw_ret>:
      ec:	3e800093          	li	ra,1000
      f0:	4ed0206f          	j	2ddc <lbu>

000000f4 <lbu_ret>:
      f4:	3e800093          	li	ra,1000
      f8:	2ac0306f          	j	33a4 <lhu>

000000fc <lhu_ret>:
      fc:	3e800093          	li	ra,1000
     100:	6a40506f          	j	57a4 <sb>

00000104 <sb_ret>:
     104:	3e800093          	li	ra,1000
     108:	3190506f          	j	5c20 <sh>

0000010c <sh_ret>:
     10c:	3e800093          	li	ra,1000
     110:	1ed0806f          	j	8afc <sw>

00000114 <sw_ret>:
     114:	3e800093          	li	ra,1000
     118:	6640006f          	j	77c <addi>

0000011c <addi_ret>:
     11c:	3e800093          	li	ra,1000
     120:	6a90606f          	j	6fc8 <slti>

00000124 <slti_ret>:
     124:	3e800093          	li	ra,1000
     128:	4280906f          	j	9550 <xori>

0000012c <xori_ret>:
     12c:	3e800093          	li	ra,1000
     130:	4100506f          	j	5540 <ori>

00000134 <ori_ret>:
     134:	3e800093          	li	ra,1000
     138:	6990006f          	j	fd0 <andi>

0000013c <andi_ret>:
     13c:	3e800093          	li	ra,1000
     140:	6280606f          	j	6768 <slli>

00000144 <slli_ret>:
     144:	3e800093          	li	ra,1000
     148:	12c0806f          	j	8274 <srli>

0000014c <srli_ret>:
     14c:	3e800093          	li	ra,1000
     150:	79c0706f          	j	78ec <srai>

00000154 <srai_ret>:
     154:	3e800093          	li	ra,1000
     158:	0bc0006f          	j	214 <add>

0000015c <add_ret>:
     15c:	3e800093          	li	ra,1000
     160:	4540806f          	j	85b4 <sub>

00000164 <sub_ret>:
     164:	3e800093          	li	ra,1000
     168:	00c0606f          	j	6174 <sll>

0000016c <sll_ret>:
     16c:	3e800093          	li	ra,1000
     170:	1090606f          	j	6a78 <slt>

00000174 <slt_ret>:
     174:	3e800093          	li	ra,1000
     178:	6910806f          	j	9008 <xor>

0000017c <xor_ret>:
     17c:	3e800093          	li	ra,1000
     180:	2b10706f          	j	7c30 <srl>

00000184 <srl_ret>:
     184:	3e800093          	li	ra,1000
     188:	1400706f          	j	72c8 <sra>

0000018c <sra_ret>:
     18c:	3e800093          	li	ra,1000
     190:	6650406f          	j	4ff4 <or>

00000194 <or_ret>:
     194:	3e800093          	li	ra,1000
     198:	0f90006f          	j	a90 <and>

0000019c <and_ret>:
     19c:	3e800093          	li	ra,1000
     1a0:	1090306f          	j	3aa8 <mul>

000001a4 <mul_ret>:
     1a4:	3e800093          	li	ra,1000
     1a8:	0f90406f          	j	4aa0 <mulhu>

000001ac <mulhu_ret>:
     1ac:	3e800093          	li	ra,1000
     1b0:	6490306f          	j	3ff8 <mulh>

000001b4 <mulh_ret>:
     1b4:	3e800093          	li	ra,1000
     1b8:	3940406f          	j	454c <mulhsu>

000001bc <mulhsu_ret>:
     1bc:	3e800093          	li	ra,1000
     1c0:	7610506f          	j	6120 <simple>

000001c4 <simple_ret>:
     1c4:	00004137          	lui	sp,0x4
     1c8:	deadc1b7          	lui	gp,0xdeadc
     1cc:	eef18193          	addi	gp,gp,-273 # deadbeef <pulp__FC+0xdeadbef0>
     1d0:	00018213          	mv	tp,gp
     1d4:	10000537          	lui	a0,0x10000
     1d8:	04400593          	li	a1,68
     1dc:	04f00613          	li	a2,79
     1e0:	04e00693          	li	a3,78
     1e4:	04500713          	li	a4,69
     1e8:	00a00793          	li	a5,10
     1ec:	00b52023          	sw	a1,0(a0) # 10000000 <end+0xfff6780>
     1f0:	00c52023          	sw	a2,0(a0)
     1f4:	00d52023          	sw	a3,0(a0)
     1f8:	00e52023          	sw	a4,0(a0)
     1fc:	00f52023          	sw	a5,0(a0)
     200:	20000537          	lui	a0,0x20000
     204:	075bd5b7          	lui	a1,0x75bd
     208:	d1558593          	addi	a1,a1,-747 # 75bcd15 <end+0x75b3495>
     20c:	00b52023          	sw	a1,0(a0) # 20000000 <end+0x1fff6780>
     210:	00100073          	ebreak

00000214 <add>:
     214:	00000537          	lui	a0,0x0
     218:	23450513          	addi	a0,a0,564 # 234 <.test_name>
     21c:	10000637          	lui	a2,0x10000

00000220 <.prname_next>:
     220:	00050583          	lb	a1,0(a0)
     224:	00058a63          	beqz	a1,238 <.prname_done>
     228:	00b62023          	sw	a1,0(a2) # 10000000 <end+0xfff6780>
     22c:	00150513          	addi	a0,a0,1
     230:	ff1ff06f          	j	220 <.prname_next>

00000234 <.test_name>:
     234:	6461                	lui	s0,0x18
     236:	0064                	addi	s1,sp,12

00000238 <.prname_done>:
     238:	02e00593          	li	a1,46
     23c:	00b62023          	sw	a1,0(a2)
     240:	00b62023          	sw	a1,0(a2)

00000244 <test_2>:
     244:	00000093          	li	ra,0
     248:	00000113          	li	sp,0
     24c:	002081b3          	add	gp,ra,sp
     250:	00000e93          	li	t4,0
     254:	00200e13          	li	t3,2
     258:	4dd19663          	bne	gp,t4,724 <fail>

0000025c <test_3>:
     25c:	00100093          	li	ra,1
     260:	00100113          	li	sp,1
     264:	002081b3          	add	gp,ra,sp
     268:	00200e93          	li	t4,2
     26c:	00300e13          	li	t3,3
     270:	4bd19a63          	bne	gp,t4,724 <fail>

00000274 <test_4>:
     274:	00300093          	li	ra,3
     278:	00700113          	li	sp,7
     27c:	002081b3          	add	gp,ra,sp
     280:	00a00e93          	li	t4,10
     284:	00400e13          	li	t3,4
     288:	49d19e63          	bne	gp,t4,724 <fail>

0000028c <test_5>:
     28c:	00000093          	li	ra,0
     290:	ffff8137          	lui	sp,0xffff8
     294:	002081b3          	add	gp,ra,sp
     298:	ffff8eb7          	lui	t4,0xffff8
     29c:	00500e13          	li	t3,5
     2a0:	49d19263          	bne	gp,t4,724 <fail>

000002a4 <test_6>:
     2a4:	800000b7          	lui	ra,0x80000
     2a8:	00000113          	li	sp,0
     2ac:	002081b3          	add	gp,ra,sp
     2b0:	80000eb7          	lui	t4,0x80000
     2b4:	00600e13          	li	t3,6
     2b8:	47d19663          	bne	gp,t4,724 <fail>

000002bc <test_7>:
     2bc:	800000b7          	lui	ra,0x80000
     2c0:	ffff8137          	lui	sp,0xffff8
     2c4:	002081b3          	add	gp,ra,sp
     2c8:	7fff8eb7          	lui	t4,0x7fff8
     2cc:	00700e13          	li	t3,7
     2d0:	45d19a63          	bne	gp,t4,724 <fail>

000002d4 <test_8>:
     2d4:	00000093          	li	ra,0
     2d8:	00008137          	lui	sp,0x8
     2dc:	fff10113          	addi	sp,sp,-1 # 7fff <test_30+0x23>
     2e0:	002081b3          	add	gp,ra,sp
     2e4:	00008eb7          	lui	t4,0x8
     2e8:	fffe8e93          	addi	t4,t4,-1 # 7fff <test_30+0x23>
     2ec:	00800e13          	li	t3,8
     2f0:	43d19a63          	bne	gp,t4,724 <fail>

000002f4 <test_9>:
     2f4:	800000b7          	lui	ra,0x80000
     2f8:	fff08093          	addi	ra,ra,-1 # 7fffffff <pulp__FC+0x80000000>
     2fc:	00000113          	li	sp,0
     300:	002081b3          	add	gp,ra,sp
     304:	80000eb7          	lui	t4,0x80000
     308:	fffe8e93          	addi	t4,t4,-1 # 7fffffff <pulp__FC+0x80000000>
     30c:	00900e13          	li	t3,9
     310:	41d19a63          	bne	gp,t4,724 <fail>

00000314 <test_10>:
     314:	800000b7          	lui	ra,0x80000
     318:	fff08093          	addi	ra,ra,-1 # 7fffffff <pulp__FC+0x80000000>
     31c:	00008137          	lui	sp,0x8
     320:	fff10113          	addi	sp,sp,-1 # 7fff <test_30+0x23>
     324:	002081b3          	add	gp,ra,sp
     328:	80008eb7          	lui	t4,0x80008
     32c:	ffee8e93          	addi	t4,t4,-2 # 80007ffe <pulp__FC+0x80007fff>
     330:	00a00e13          	li	t3,10
     334:	3fd19863          	bne	gp,t4,724 <fail>

00000338 <test_11>:
     338:	800000b7          	lui	ra,0x80000
     33c:	00008137          	lui	sp,0x8
     340:	fff10113          	addi	sp,sp,-1 # 7fff <test_30+0x23>
     344:	002081b3          	add	gp,ra,sp
     348:	80008eb7          	lui	t4,0x80008
     34c:	fffe8e93          	addi	t4,t4,-1 # 80007fff <pulp__FC+0x80008000>
     350:	00b00e13          	li	t3,11
     354:	3dd19863          	bne	gp,t4,724 <fail>

00000358 <test_12>:
     358:	800000b7          	lui	ra,0x80000
     35c:	fff08093          	addi	ra,ra,-1 # 7fffffff <pulp__FC+0x80000000>
     360:	ffff8137          	lui	sp,0xffff8
     364:	002081b3          	add	gp,ra,sp
     368:	7fff8eb7          	lui	t4,0x7fff8
     36c:	fffe8e93          	addi	t4,t4,-1 # 7fff7fff <end+0x7ffee77f>
     370:	00c00e13          	li	t3,12
     374:	3bd19863          	bne	gp,t4,724 <fail>

00000378 <test_13>:
     378:	00000093          	li	ra,0
     37c:	fff00113          	li	sp,-1
     380:	002081b3          	add	gp,ra,sp
     384:	fff00e93          	li	t4,-1
     388:	00d00e13          	li	t3,13
     38c:	39d19c63          	bne	gp,t4,724 <fail>

00000390 <test_14>:
     390:	fff00093          	li	ra,-1
     394:	00100113          	li	sp,1
     398:	002081b3          	add	gp,ra,sp
     39c:	00000e93          	li	t4,0
     3a0:	00e00e13          	li	t3,14
     3a4:	39d19063          	bne	gp,t4,724 <fail>

000003a8 <test_15>:
     3a8:	fff00093          	li	ra,-1
     3ac:	fff00113          	li	sp,-1
     3b0:	002081b3          	add	gp,ra,sp
     3b4:	ffe00e93          	li	t4,-2
     3b8:	00f00e13          	li	t3,15
     3bc:	37d19463          	bne	gp,t4,724 <fail>

000003c0 <test_16>:
     3c0:	00100093          	li	ra,1
     3c4:	80000137          	lui	sp,0x80000
     3c8:	fff10113          	addi	sp,sp,-1 # 7fffffff <pulp__FC+0x80000000>
     3cc:	002081b3          	add	gp,ra,sp
     3d0:	80000eb7          	lui	t4,0x80000
     3d4:	01000e13          	li	t3,16
     3d8:	35d19663          	bne	gp,t4,724 <fail>

000003dc <test_17>:
     3dc:	00d00093          	li	ra,13
     3e0:	00b00113          	li	sp,11
     3e4:	002080b3          	add	ra,ra,sp
     3e8:	01800e93          	li	t4,24
     3ec:	01100e13          	li	t3,17
     3f0:	33d09a63          	bne	ra,t4,724 <fail>

000003f4 <test_18>:
     3f4:	00e00093          	li	ra,14
     3f8:	00b00113          	li	sp,11
     3fc:	00208133          	add	sp,ra,sp
     400:	01900e93          	li	t4,25
     404:	01200e13          	li	t3,18
     408:	31d11e63          	bne	sp,t4,724 <fail>

0000040c <test_19>:
     40c:	00d00093          	li	ra,13
     410:	001080b3          	add	ra,ra,ra
     414:	01a00e93          	li	t4,26
     418:	01300e13          	li	t3,19
     41c:	31d09463          	bne	ra,t4,724 <fail>

00000420 <test_20>:
     420:	00000213          	li	tp,0
     424:	00d00093          	li	ra,13
     428:	00b00113          	li	sp,11
     42c:	002081b3          	add	gp,ra,sp
     430:	00018313          	mv	t1,gp
     434:	00120213          	addi	tp,tp,1 # 1 <reset_vec+0x1>
     438:	00200293          	li	t0,2
     43c:	fe5214e3          	bne	tp,t0,424 <test_20+0x4>
     440:	01800e93          	li	t4,24
     444:	01400e13          	li	t3,20
     448:	2dd31e63          	bne	t1,t4,724 <fail>

0000044c <test_21>:
     44c:	00000213          	li	tp,0
     450:	00e00093          	li	ra,14
     454:	00b00113          	li	sp,11
     458:	002081b3          	add	gp,ra,sp
     45c:	00000013          	nop
     460:	00018313          	mv	t1,gp
     464:	00120213          	addi	tp,tp,1 # 1 <reset_vec+0x1>
     468:	00200293          	li	t0,2
     46c:	fe5212e3          	bne	tp,t0,450 <test_21+0x4>
     470:	01900e93          	li	t4,25
     474:	01500e13          	li	t3,21
     478:	2bd31663          	bne	t1,t4,724 <fail>

0000047c <test_22>:
     47c:	00000213          	li	tp,0
     480:	00f00093          	li	ra,15
     484:	00b00113          	li	sp,11
     488:	002081b3          	add	gp,ra,sp
     48c:	00000013          	nop
     490:	00000013          	nop
     494:	00018313          	mv	t1,gp
     498:	00120213          	addi	tp,tp,1 # 1 <reset_vec+0x1>
     49c:	00200293          	li	t0,2
     4a0:	fe5210e3          	bne	tp,t0,480 <test_22+0x4>
     4a4:	01a00e93          	li	t4,26
     4a8:	01600e13          	li	t3,22
     4ac:	27d31c63          	bne	t1,t4,724 <fail>

000004b0 <test_23>:
     4b0:	00000213          	li	tp,0
     4b4:	00d00093          	li	ra,13
     4b8:	00b00113          	li	sp,11
     4bc:	002081b3          	add	gp,ra,sp
     4c0:	00120213          	addi	tp,tp,1 # 1 <reset_vec+0x1>
     4c4:	00200293          	li	t0,2
     4c8:	fe5216e3          	bne	tp,t0,4b4 <test_23+0x4>
     4cc:	01800e93          	li	t4,24
     4d0:	01700e13          	li	t3,23
     4d4:	25d19863          	bne	gp,t4,724 <fail>

000004d8 <test_24>:
     4d8:	00000213          	li	tp,0
     4dc:	00e00093          	li	ra,14
     4e0:	00b00113          	li	sp,11
     4e4:	00000013          	nop
     4e8:	002081b3          	add	gp,ra,sp
     4ec:	00120213          	addi	tp,tp,1 # 1 <reset_vec+0x1>
     4f0:	00200293          	li	t0,2
     4f4:	fe5214e3          	bne	tp,t0,4dc <test_24+0x4>
     4f8:	01900e93          	li	t4,25
     4fc:	01800e13          	li	t3,24
     500:	23d19263          	bne	gp,t4,724 <fail>

00000504 <test_25>:
     504:	00000213          	li	tp,0
     508:	00f00093          	li	ra,15
     50c:	00b00113          	li	sp,11
     510:	00000013          	nop
     514:	00000013          	nop
     518:	002081b3          	add	gp,ra,sp
     51c:	00120213          	addi	tp,tp,1 # 1 <reset_vec+0x1>
     520:	00200293          	li	t0,2
     524:	fe5212e3          	bne	tp,t0,508 <test_25+0x4>
     528:	01a00e93          	li	t4,26
     52c:	01900e13          	li	t3,25
     530:	1fd19a63          	bne	gp,t4,724 <fail>

00000534 <test_26>:
     534:	00000213          	li	tp,0
     538:	00d00093          	li	ra,13
     53c:	00000013          	nop
     540:	00b00113          	li	sp,11
     544:	002081b3          	add	gp,ra,sp
     548:	00120213          	addi	tp,tp,1 # 1 <reset_vec+0x1>
     54c:	00200293          	li	t0,2
     550:	fe5214e3          	bne	tp,t0,538 <test_26+0x4>
     554:	01800e93          	li	t4,24
     558:	01a00e13          	li	t3,26
     55c:	1dd19463          	bne	gp,t4,724 <fail>

00000560 <test_27>:
     560:	00000213          	li	tp,0
     564:	00e00093          	li	ra,14
     568:	00000013          	nop
     56c:	00b00113          	li	sp,11
     570:	00000013          	nop
     574:	002081b3          	add	gp,ra,sp
     578:	00120213          	addi	tp,tp,1 # 1 <reset_vec+0x1>
     57c:	00200293          	li	t0,2
     580:	fe5212e3          	bne	tp,t0,564 <test_27+0x4>
     584:	01900e93          	li	t4,25
     588:	01b00e13          	li	t3,27
     58c:	19d19c63          	bne	gp,t4,724 <fail>

00000590 <test_28>:
     590:	00000213          	li	tp,0
     594:	00f00093          	li	ra,15
     598:	00000013          	nop
     59c:	00000013          	nop
     5a0:	00b00113          	li	sp,11
     5a4:	002081b3          	add	gp,ra,sp
     5a8:	00120213          	addi	tp,tp,1 # 1 <reset_vec+0x1>
     5ac:	00200293          	li	t0,2
     5b0:	fe5212e3          	bne	tp,t0,594 <test_28+0x4>
     5b4:	01a00e93          	li	t4,26
     5b8:	01c00e13          	li	t3,28
     5bc:	17d19463          	bne	gp,t4,724 <fail>

000005c0 <test_29>:
     5c0:	00000213          	li	tp,0
     5c4:	00b00113          	li	sp,11
     5c8:	00d00093          	li	ra,13
     5cc:	002081b3          	add	gp,ra,sp
     5d0:	00120213          	addi	tp,tp,1 # 1 <reset_vec+0x1>
     5d4:	00200293          	li	t0,2
     5d8:	fe5216e3          	bne	tp,t0,5c4 <test_29+0x4>
     5dc:	01800e93          	li	t4,24
     5e0:	01d00e13          	li	t3,29
     5e4:	15d19063          	bne	gp,t4,724 <fail>

000005e8 <test_30>:
     5e8:	00000213          	li	tp,0
     5ec:	00b00113          	li	sp,11
     5f0:	00e00093          	li	ra,14
     5f4:	00000013          	nop
     5f8:	002081b3          	add	gp,ra,sp
     5fc:	00120213          	addi	tp,tp,1 # 1 <reset_vec+0x1>
     600:	00200293          	li	t0,2
     604:	fe5214e3          	bne	tp,t0,5ec <test_30+0x4>
     608:	01900e93          	li	t4,25
     60c:	01e00e13          	li	t3,30
     610:	11d19a63          	bne	gp,t4,724 <fail>

00000614 <test_31>:
     614:	00000213          	li	tp,0
     618:	00b00113          	li	sp,11
     61c:	00f00093          	li	ra,15
     620:	00000013          	nop
     624:	00000013          	nop
     628:	002081b3          	add	gp,ra,sp
     62c:	00120213          	addi	tp,tp,1 # 1 <reset_vec+0x1>
     630:	00200293          	li	t0,2
     634:	fe5212e3          	bne	tp,t0,618 <test_31+0x4>
     638:	01a00e93          	li	t4,26
     63c:	01f00e13          	li	t3,31
     640:	0fd19263          	bne	gp,t4,724 <fail>

00000644 <test_32>:
     644:	00000213          	li	tp,0
     648:	00b00113          	li	sp,11
     64c:	00000013          	nop
     650:	00d00093          	li	ra,13
     654:	002081b3          	add	gp,ra,sp
     658:	00120213          	addi	tp,tp,1 # 1 <reset_vec+0x1>
     65c:	00200293          	li	t0,2
     660:	fe5214e3          	bne	tp,t0,648 <test_32+0x4>
     664:	01800e93          	li	t4,24
     668:	02000e13          	li	t3,32
     66c:	0bd19c63          	bne	gp,t4,724 <fail>

00000670 <test_33>:
     670:	00000213          	li	tp,0
     674:	00b00113          	li	sp,11
     678:	00000013          	nop
     67c:	00e00093          	li	ra,14
     680:	00000013          	nop
     684:	002081b3          	add	gp,ra,sp
     688:	00120213          	addi	tp,tp,1 # 1 <reset_vec+0x1>
     68c:	00200293          	li	t0,2
     690:	fe5212e3          	bne	tp,t0,674 <test_33+0x4>
     694:	01900e93          	li	t4,25
     698:	02100e13          	li	t3,33
     69c:	09d19463          	bne	gp,t4,724 <fail>

000006a0 <test_34>:
     6a0:	00000213          	li	tp,0
     6a4:	00b00113          	li	sp,11
     6a8:	00000013          	nop
     6ac:	00000013          	nop
     6b0:	00f00093          	li	ra,15
     6b4:	002081b3          	add	gp,ra,sp
     6b8:	00120213          	addi	tp,tp,1 # 1 <reset_vec+0x1>
     6bc:	00200293          	li	t0,2
     6c0:	fe5212e3          	bne	tp,t0,6a4 <test_34+0x4>
     6c4:	01a00e93          	li	t4,26
     6c8:	02200e13          	li	t3,34
     6cc:	05d19c63          	bne	gp,t4,724 <fail>

000006d0 <test_35>:
     6d0:	00f00093          	li	ra,15
     6d4:	00100133          	add	sp,zero,ra
     6d8:	00f00e93          	li	t4,15
     6dc:	02300e13          	li	t3,35
     6e0:	05d11263          	bne	sp,t4,724 <fail>

000006e4 <test_36>:
     6e4:	02000093          	li	ra,32
     6e8:	00008133          	add	sp,ra,zero
     6ec:	02000e93          	li	t4,32
     6f0:	02400e13          	li	t3,36
     6f4:	03d11863          	bne	sp,t4,724 <fail>

000006f8 <test_37>:
     6f8:	000000b3          	add	ra,zero,zero
     6fc:	00000e93          	li	t4,0
     700:	02500e13          	li	t3,37
     704:	03d09063          	bne	ra,t4,724 <fail>

00000708 <test_38>:
     708:	01000093          	li	ra,16
     70c:	01e00113          	li	sp,30
     710:	00208033          	add	zero,ra,sp
     714:	00000e93          	li	t4,0
     718:	02600e13          	li	t3,38
     71c:	01d01463          	bne	zero,t4,724 <fail>
     720:	03c01e63          	bne	zero,t3,75c <pass>

00000724 <fail>:
     724:	10000537          	lui	a0,0x10000
     728:	04500593          	li	a1,69
     72c:	05200613          	li	a2,82
     730:	04f00693          	li	a3,79
     734:	00a00713          	li	a4,10
     738:	030e0793          	addi	a5,t3,48
     73c:	00b52023          	sw	a1,0(a0) # 10000000 <end+0xfff6780>
     740:	00c52023          	sw	a2,0(a0)
     744:	00c52023          	sw	a2,0(a0)
     748:	00d52023          	sw	a3,0(a0)
     74c:	00c52023          	sw	a2,0(a0)
     750:	00f52023          	sw	a5,0(a0)
     754:	00e52023          	sw	a4,0(a0)
     758:	00100073          	ebreak

0000075c <pass>:
     75c:	10000537          	lui	a0,0x10000
     760:	04f00593          	li	a1,79
     764:	04b00613          	li	a2,75
     768:	00a00693          	li	a3,10
     76c:	00b52023          	sw	a1,0(a0) # 10000000 <end+0xfff6780>
     770:	00c52023          	sw	a2,0(a0)
     774:	00d52023          	sw	a3,0(a0)
     778:	9e5ff06f          	j	15c <add_ret>

0000077c <addi>:
     77c:	00000537          	lui	a0,0x0
     780:	79c50513          	addi	a0,a0,1948 # 79c <.test_name>
     784:	10000637          	lui	a2,0x10000

00000788 <.prname_next>:
     788:	00050583          	lb	a1,0(a0)
     78c:	00058c63          	beqz	a1,7a4 <.prname_done>
     790:	00b62023          	sw	a1,0(a2) # 10000000 <end+0xfff6780>
     794:	00150513          	addi	a0,a0,1
     798:	ff1ff06f          	j	788 <.prname_next>

0000079c <.test_name>:
     79c:	6461                	lui	s0,0x18
     79e:	6964                	flw	fs1,84(a0)
     7a0:	0000                	unimp
	...

000007a4 <.prname_done>:
     7a4:	02e00593          	li	a1,46
     7a8:	00b62023          	sw	a1,0(a2)
     7ac:	00b62023          	sw	a1,0(a2)

000007b0 <test_2>:
     7b0:	00000093          	li	ra,0
     7b4:	00008193          	mv	gp,ra
     7b8:	00000e93          	li	t4,0
     7bc:	00200e13          	li	t3,2
     7c0:	27d19c63          	bne	gp,t4,a38 <fail>

000007c4 <test_3>:
     7c4:	00100093          	li	ra,1
     7c8:	00108193          	addi	gp,ra,1
     7cc:	00200e93          	li	t4,2
     7d0:	00300e13          	li	t3,3
     7d4:	27d19263          	bne	gp,t4,a38 <fail>

000007d8 <test_4>:
     7d8:	00300093          	li	ra,3
     7dc:	00708193          	addi	gp,ra,7
     7e0:	00a00e93          	li	t4,10
     7e4:	00400e13          	li	t3,4
     7e8:	25d19863          	bne	gp,t4,a38 <fail>

000007ec <test_5>:
     7ec:	00000093          	li	ra,0
     7f0:	80008193          	addi	gp,ra,-2048
     7f4:	80000e93          	li	t4,-2048
     7f8:	00500e13          	li	t3,5
     7fc:	23d19e63          	bne	gp,t4,a38 <fail>

00000800 <test_6>:
     800:	800000b7          	lui	ra,0x80000
     804:	00008193          	mv	gp,ra
     808:	80000eb7          	lui	t4,0x80000
     80c:	00600e13          	li	t3,6
     810:	23d19463          	bne	gp,t4,a38 <fail>

00000814 <test_7>:
     814:	800000b7          	lui	ra,0x80000
     818:	80008193          	addi	gp,ra,-2048 # 7ffff800 <pulp__FC+0x7ffff801>
     81c:	80000eb7          	lui	t4,0x80000
     820:	800e8e93          	addi	t4,t4,-2048 # 7ffff800 <pulp__FC+0x7ffff801>
     824:	00700e13          	li	t3,7
     828:	21d19863          	bne	gp,t4,a38 <fail>

0000082c <test_8>:
     82c:	00000093          	li	ra,0
     830:	7ff08193          	addi	gp,ra,2047
     834:	7ff00e93          	li	t4,2047
     838:	00800e13          	li	t3,8
     83c:	1fd19e63          	bne	gp,t4,a38 <fail>

00000840 <test_9>:
     840:	800000b7          	lui	ra,0x80000
     844:	fff08093          	addi	ra,ra,-1 # 7fffffff <pulp__FC+0x80000000>
     848:	00008193          	mv	gp,ra
     84c:	80000eb7          	lui	t4,0x80000
     850:	fffe8e93          	addi	t4,t4,-1 # 7fffffff <pulp__FC+0x80000000>
     854:	00900e13          	li	t3,9
     858:	1fd19063          	bne	gp,t4,a38 <fail>

0000085c <test_10>:
     85c:	800000b7          	lui	ra,0x80000
     860:	fff08093          	addi	ra,ra,-1 # 7fffffff <pulp__FC+0x80000000>
     864:	7ff08193          	addi	gp,ra,2047
     868:	80000eb7          	lui	t4,0x80000
     86c:	7fee8e93          	addi	t4,t4,2046 # 800007fe <pulp__FC+0x800007ff>
     870:	00a00e13          	li	t3,10
     874:	1dd19263          	bne	gp,t4,a38 <fail>

00000878 <test_11>:
     878:	800000b7          	lui	ra,0x80000
     87c:	7ff08193          	addi	gp,ra,2047 # 800007ff <pulp__FC+0x80000800>
     880:	80000eb7          	lui	t4,0x80000
     884:	7ffe8e93          	addi	t4,t4,2047 # 800007ff <pulp__FC+0x80000800>
     888:	00b00e13          	li	t3,11
     88c:	1bd19663          	bne	gp,t4,a38 <fail>

00000890 <test_12>:
     890:	800000b7          	lui	ra,0x80000
     894:	fff08093          	addi	ra,ra,-1 # 7fffffff <pulp__FC+0x80000000>
     898:	80008193          	addi	gp,ra,-2048
     89c:	7ffffeb7          	lui	t4,0x7ffff
     8a0:	7ffe8e93          	addi	t4,t4,2047 # 7ffff7ff <end+0x7fff5f7f>
     8a4:	00c00e13          	li	t3,12
     8a8:	19d19863          	bne	gp,t4,a38 <fail>

000008ac <test_13>:
     8ac:	00000093          	li	ra,0
     8b0:	fff08193          	addi	gp,ra,-1
     8b4:	fff00e93          	li	t4,-1
     8b8:	00d00e13          	li	t3,13
     8bc:	17d19e63          	bne	gp,t4,a38 <fail>

000008c0 <test_14>:
     8c0:	fff00093          	li	ra,-1
     8c4:	00108193          	addi	gp,ra,1
     8c8:	00000e93          	li	t4,0
     8cc:	00e00e13          	li	t3,14
     8d0:	17d19463          	bne	gp,t4,a38 <fail>

000008d4 <test_15>:
     8d4:	fff00093          	li	ra,-1
     8d8:	fff08193          	addi	gp,ra,-1
     8dc:	ffe00e93          	li	t4,-2
     8e0:	00f00e13          	li	t3,15
     8e4:	15d19a63          	bne	gp,t4,a38 <fail>

000008e8 <test_16>:
     8e8:	800000b7          	lui	ra,0x80000
     8ec:	fff08093          	addi	ra,ra,-1 # 7fffffff <pulp__FC+0x80000000>
     8f0:	00108193          	addi	gp,ra,1
     8f4:	80000eb7          	lui	t4,0x80000
     8f8:	01000e13          	li	t3,16
     8fc:	13d19e63          	bne	gp,t4,a38 <fail>

00000900 <test_17>:
     900:	00d00093          	li	ra,13
     904:	00b08093          	addi	ra,ra,11
     908:	01800e93          	li	t4,24
     90c:	01100e13          	li	t3,17
     910:	13d09463          	bne	ra,t4,a38 <fail>

00000914 <test_18>:
     914:	00000213          	li	tp,0
     918:	00d00093          	li	ra,13
     91c:	00b08193          	addi	gp,ra,11
     920:	00018313          	mv	t1,gp
     924:	00120213          	addi	tp,tp,1 # 1 <reset_vec+0x1>
     928:	00200293          	li	t0,2
     92c:	fe5216e3          	bne	tp,t0,918 <test_18+0x4>
     930:	01800e93          	li	t4,24
     934:	01200e13          	li	t3,18
     938:	11d31063          	bne	t1,t4,a38 <fail>

0000093c <test_19>:
     93c:	00000213          	li	tp,0
     940:	00d00093          	li	ra,13
     944:	00a08193          	addi	gp,ra,10
     948:	00000013          	nop
     94c:	00018313          	mv	t1,gp
     950:	00120213          	addi	tp,tp,1 # 1 <reset_vec+0x1>
     954:	00200293          	li	t0,2
     958:	fe5214e3          	bne	tp,t0,940 <test_19+0x4>
     95c:	01700e93          	li	t4,23
     960:	01300e13          	li	t3,19
     964:	0dd31a63          	bne	t1,t4,a38 <fail>

00000968 <test_20>:
     968:	00000213          	li	tp,0
     96c:	00d00093          	li	ra,13
     970:	00908193          	addi	gp,ra,9
     974:	00000013          	nop
     978:	00000013          	nop
     97c:	00018313          	mv	t1,gp
     980:	00120213          	addi	tp,tp,1 # 1 <reset_vec+0x1>
     984:	00200293          	li	t0,2
     988:	fe5212e3          	bne	tp,t0,96c <test_20+0x4>
     98c:	01600e93          	li	t4,22
     990:	01400e13          	li	t3,20
     994:	0bd31263          	bne	t1,t4,a38 <fail>

00000998 <test_21>:
     998:	00000213          	li	tp,0
     99c:	00d00093          	li	ra,13
     9a0:	00b08193          	addi	gp,ra,11
     9a4:	00120213          	addi	tp,tp,1 # 1 <reset_vec+0x1>
     9a8:	00200293          	li	t0,2
     9ac:	fe5218e3          	bne	tp,t0,99c <test_21+0x4>
     9b0:	01800e93          	li	t4,24
     9b4:	01500e13          	li	t3,21
     9b8:	09d19063          	bne	gp,t4,a38 <fail>

000009bc <test_22>:
     9bc:	00000213          	li	tp,0
     9c0:	00d00093          	li	ra,13
     9c4:	00000013          	nop
     9c8:	00a08193          	addi	gp,ra,10
     9cc:	00120213          	addi	tp,tp,1 # 1 <reset_vec+0x1>
     9d0:	00200293          	li	t0,2
     9d4:	fe5216e3          	bne	tp,t0,9c0 <test_22+0x4>
     9d8:	01700e93          	li	t4,23
     9dc:	01600e13          	li	t3,22
     9e0:	05d19c63          	bne	gp,t4,a38 <fail>

000009e4 <test_23>:
     9e4:	00000213          	li	tp,0
     9e8:	00d00093          	li	ra,13
     9ec:	00000013          	nop
     9f0:	00000013          	nop
     9f4:	00908193          	addi	gp,ra,9
     9f8:	00120213          	addi	tp,tp,1 # 1 <reset_vec+0x1>
     9fc:	00200293          	li	t0,2
     a00:	fe5214e3          	bne	tp,t0,9e8 <test_23+0x4>
     a04:	01600e93          	li	t4,22
     a08:	01700e13          	li	t3,23
     a0c:	03d19663          	bne	gp,t4,a38 <fail>

00000a10 <test_24>:
     a10:	02000093          	li	ra,32
     a14:	02000e93          	li	t4,32
     a18:	01800e13          	li	t3,24
     a1c:	01d09e63          	bne	ra,t4,a38 <fail>

00000a20 <test_25>:
     a20:	02100093          	li	ra,33
     a24:	03208013          	addi	zero,ra,50
     a28:	00000e93          	li	t4,0
     a2c:	01900e13          	li	t3,25
     a30:	01d01463          	bne	zero,t4,a38 <fail>
     a34:	03c01e63          	bne	zero,t3,a70 <pass>

00000a38 <fail>:
     a38:	10000537          	lui	a0,0x10000
     a3c:	04500593          	li	a1,69
     a40:	05200613          	li	a2,82
     a44:	04f00693          	li	a3,79
     a48:	00a00713          	li	a4,10
     a4c:	030e0793          	addi	a5,t3,48
     a50:	00b52023          	sw	a1,0(a0) # 10000000 <end+0xfff6780>
     a54:	00c52023          	sw	a2,0(a0)
     a58:	00c52023          	sw	a2,0(a0)
     a5c:	00d52023          	sw	a3,0(a0)
     a60:	00c52023          	sw	a2,0(a0)
     a64:	00f52023          	sw	a5,0(a0)
     a68:	00e52023          	sw	a4,0(a0)
     a6c:	00100073          	ebreak

00000a70 <pass>:
     a70:	10000537          	lui	a0,0x10000
     a74:	04f00593          	li	a1,79
     a78:	04b00613          	li	a2,75
     a7c:	00a00693          	li	a3,10
     a80:	00b52023          	sw	a1,0(a0) # 10000000 <end+0xfff6780>
     a84:	00c52023          	sw	a2,0(a0)
     a88:	00d52023          	sw	a3,0(a0)
     a8c:	e90ff06f          	j	11c <addi_ret>

00000a90 <and>:
     a90:	00001537          	lui	a0,0x1
     a94:	ab050513          	addi	a0,a0,-1360 # ab0 <.test_name>
     a98:	10000637          	lui	a2,0x10000

00000a9c <.prname_next>:
     a9c:	00050583          	lb	a1,0(a0)
     aa0:	00058a63          	beqz	a1,ab4 <.prname_done>
     aa4:	00b62023          	sw	a1,0(a2) # 10000000 <end+0xfff6780>
     aa8:	00150513          	addi	a0,a0,1
     aac:	ff1ff06f          	j	a9c <.prname_next>

00000ab0 <.test_name>:
     ab0:	6e61                	lui	t3,0x18
     ab2:	0064                	addi	s1,sp,12

00000ab4 <.prname_done>:
     ab4:	02e00593          	li	a1,46
     ab8:	00b62023          	sw	a1,0(a2)
     abc:	00b62023          	sw	a1,0(a2)

00000ac0 <test_2>:
     ac0:	ff0100b7          	lui	ra,0xff010
     ac4:	f0008093          	addi	ra,ra,-256 # ff00ff00 <pulp__FC+0xff00ff01>
     ac8:	0f0f1137          	lui	sp,0xf0f1
     acc:	f0f10113          	addi	sp,sp,-241 # f0f0f0f <end+0xf0e768f>
     ad0:	0020f1b3          	and	gp,ra,sp
     ad4:	0f001eb7          	lui	t4,0xf001
     ad8:	f00e8e93          	addi	t4,t4,-256 # f000f00 <end+0xeff7680>
     adc:	00200e13          	li	t3,2
     ae0:	49d19c63          	bne	gp,t4,f78 <fail>

00000ae4 <test_3>:
     ae4:	0ff010b7          	lui	ra,0xff01
     ae8:	ff008093          	addi	ra,ra,-16 # ff00ff0 <end+0xfef7770>
     aec:	f0f0f137          	lui	sp,0xf0f0f
     af0:	0f010113          	addi	sp,sp,240 # f0f0f0f0 <pulp__FC+0xf0f0f0f1>
     af4:	0020f1b3          	and	gp,ra,sp
     af8:	00f00eb7          	lui	t4,0xf00
     afc:	0f0e8e93          	addi	t4,t4,240 # f000f0 <end+0xef6870>
     b00:	00300e13          	li	t3,3
     b04:	47d19a63          	bne	gp,t4,f78 <fail>

00000b08 <test_4>:
     b08:	00ff00b7          	lui	ra,0xff0
     b0c:	0ff08093          	addi	ra,ra,255 # ff00ff <end+0xfe687f>
     b10:	0f0f1137          	lui	sp,0xf0f1
     b14:	f0f10113          	addi	sp,sp,-241 # f0f0f0f <end+0xf0e768f>
     b18:	0020f1b3          	and	gp,ra,sp
     b1c:	000f0eb7          	lui	t4,0xf0
     b20:	00fe8e93          	addi	t4,t4,15 # f000f <end+0xe678f>
     b24:	00400e13          	li	t3,4
     b28:	45d19863          	bne	gp,t4,f78 <fail>

00000b2c <test_5>:
     b2c:	f00ff0b7          	lui	ra,0xf00ff
     b30:	00f08093          	addi	ra,ra,15 # f00ff00f <pulp__FC+0xf00ff010>
     b34:	f0f0f137          	lui	sp,0xf0f0f
     b38:	0f010113          	addi	sp,sp,240 # f0f0f0f0 <pulp__FC+0xf0f0f0f1>
     b3c:	0020f1b3          	and	gp,ra,sp
     b40:	f000feb7          	lui	t4,0xf000f
     b44:	00500e13          	li	t3,5
     b48:	43d19863          	bne	gp,t4,f78 <fail>

00000b4c <test_6>:
     b4c:	ff0100b7          	lui	ra,0xff010
     b50:	f0008093          	addi	ra,ra,-256 # ff00ff00 <pulp__FC+0xff00ff01>
     b54:	0f0f1137          	lui	sp,0xf0f1
     b58:	f0f10113          	addi	sp,sp,-241 # f0f0f0f <end+0xf0e768f>
     b5c:	0020f0b3          	and	ra,ra,sp
     b60:	0f001eb7          	lui	t4,0xf001
     b64:	f00e8e93          	addi	t4,t4,-256 # f000f00 <end+0xeff7680>
     b68:	00600e13          	li	t3,6
     b6c:	41d09663          	bne	ra,t4,f78 <fail>

00000b70 <test_7>:
     b70:	0ff010b7          	lui	ra,0xff01
     b74:	ff008093          	addi	ra,ra,-16 # ff00ff0 <end+0xfef7770>
     b78:	f0f0f137          	lui	sp,0xf0f0f
     b7c:	0f010113          	addi	sp,sp,240 # f0f0f0f0 <pulp__FC+0xf0f0f0f1>
     b80:	0020f133          	and	sp,ra,sp
     b84:	00f00eb7          	lui	t4,0xf00
     b88:	0f0e8e93          	addi	t4,t4,240 # f000f0 <end+0xef6870>
     b8c:	00700e13          	li	t3,7
     b90:	3fd11463          	bne	sp,t4,f78 <fail>

00000b94 <test_8>:
     b94:	ff0100b7          	lui	ra,0xff010
     b98:	f0008093          	addi	ra,ra,-256 # ff00ff00 <pulp__FC+0xff00ff01>
     b9c:	0010f0b3          	and	ra,ra,ra
     ba0:	ff010eb7          	lui	t4,0xff010
     ba4:	f00e8e93          	addi	t4,t4,-256 # ff00ff00 <pulp__FC+0xff00ff01>
     ba8:	00800e13          	li	t3,8
     bac:	3dd09663          	bne	ra,t4,f78 <fail>

00000bb0 <test_9>:
     bb0:	00000213          	li	tp,0
     bb4:	ff0100b7          	lui	ra,0xff010
     bb8:	f0008093          	addi	ra,ra,-256 # ff00ff00 <pulp__FC+0xff00ff01>
     bbc:	0f0f1137          	lui	sp,0xf0f1
     bc0:	f0f10113          	addi	sp,sp,-241 # f0f0f0f <end+0xf0e768f>
     bc4:	0020f1b3          	and	gp,ra,sp
     bc8:	00018313          	mv	t1,gp
     bcc:	00120213          	addi	tp,tp,1 # 1 <reset_vec+0x1>
     bd0:	00200293          	li	t0,2
     bd4:	fe5210e3          	bne	tp,t0,bb4 <test_9+0x4>
     bd8:	0f001eb7          	lui	t4,0xf001
     bdc:	f00e8e93          	addi	t4,t4,-256 # f000f00 <end+0xeff7680>
     be0:	00900e13          	li	t3,9
     be4:	39d31a63          	bne	t1,t4,f78 <fail>

00000be8 <test_10>:
     be8:	00000213          	li	tp,0
     bec:	0ff010b7          	lui	ra,0xff01
     bf0:	ff008093          	addi	ra,ra,-16 # ff00ff0 <end+0xfef7770>
     bf4:	f0f0f137          	lui	sp,0xf0f0f
     bf8:	0f010113          	addi	sp,sp,240 # f0f0f0f0 <pulp__FC+0xf0f0f0f1>
     bfc:	0020f1b3          	and	gp,ra,sp
     c00:	00000013          	nop
     c04:	00018313          	mv	t1,gp
     c08:	00120213          	addi	tp,tp,1 # 1 <reset_vec+0x1>
     c0c:	00200293          	li	t0,2
     c10:	fc521ee3          	bne	tp,t0,bec <test_10+0x4>
     c14:	00f00eb7          	lui	t4,0xf00
     c18:	0f0e8e93          	addi	t4,t4,240 # f000f0 <end+0xef6870>
     c1c:	00a00e13          	li	t3,10
     c20:	35d31c63          	bne	t1,t4,f78 <fail>

00000c24 <test_11>:
     c24:	00000213          	li	tp,0
     c28:	00ff00b7          	lui	ra,0xff0
     c2c:	0ff08093          	addi	ra,ra,255 # ff00ff <end+0xfe687f>
     c30:	0f0f1137          	lui	sp,0xf0f1
     c34:	f0f10113          	addi	sp,sp,-241 # f0f0f0f <end+0xf0e768f>
     c38:	0020f1b3          	and	gp,ra,sp
     c3c:	00000013          	nop
     c40:	00000013          	nop
     c44:	00018313          	mv	t1,gp
     c48:	00120213          	addi	tp,tp,1 # 1 <reset_vec+0x1>
     c4c:	00200293          	li	t0,2
     c50:	fc521ce3          	bne	tp,t0,c28 <test_11+0x4>
     c54:	000f0eb7          	lui	t4,0xf0
     c58:	00fe8e93          	addi	t4,t4,15 # f000f <end+0xe678f>
     c5c:	00b00e13          	li	t3,11
     c60:	31d31c63          	bne	t1,t4,f78 <fail>

00000c64 <test_12>:
     c64:	00000213          	li	tp,0
     c68:	ff0100b7          	lui	ra,0xff010
     c6c:	f0008093          	addi	ra,ra,-256 # ff00ff00 <pulp__FC+0xff00ff01>
     c70:	0f0f1137          	lui	sp,0xf0f1
     c74:	f0f10113          	addi	sp,sp,-241 # f0f0f0f <end+0xf0e768f>
     c78:	0020f1b3          	and	gp,ra,sp
     c7c:	00120213          	addi	tp,tp,1 # 1 <reset_vec+0x1>
     c80:	00200293          	li	t0,2
     c84:	fe5212e3          	bne	tp,t0,c68 <test_12+0x4>
     c88:	0f001eb7          	lui	t4,0xf001
     c8c:	f00e8e93          	addi	t4,t4,-256 # f000f00 <end+0xeff7680>
     c90:	00c00e13          	li	t3,12
     c94:	2fd19263          	bne	gp,t4,f78 <fail>

00000c98 <test_13>:
     c98:	00000213          	li	tp,0
     c9c:	0ff010b7          	lui	ra,0xff01
     ca0:	ff008093          	addi	ra,ra,-16 # ff00ff0 <end+0xfef7770>
     ca4:	f0f0f137          	lui	sp,0xf0f0f
     ca8:	0f010113          	addi	sp,sp,240 # f0f0f0f0 <pulp__FC+0xf0f0f0f1>
     cac:	00000013          	nop
     cb0:	0020f1b3          	and	gp,ra,sp
     cb4:	00120213          	addi	tp,tp,1 # 1 <reset_vec+0x1>
     cb8:	00200293          	li	t0,2
     cbc:	fe5210e3          	bne	tp,t0,c9c <test_13+0x4>
     cc0:	00f00eb7          	lui	t4,0xf00
     cc4:	0f0e8e93          	addi	t4,t4,240 # f000f0 <end+0xef6870>
     cc8:	00d00e13          	li	t3,13
     ccc:	2bd19663          	bne	gp,t4,f78 <fail>

00000cd0 <test_14>:
     cd0:	00000213          	li	tp,0
     cd4:	00ff00b7          	lui	ra,0xff0
     cd8:	0ff08093          	addi	ra,ra,255 # ff00ff <end+0xfe687f>
     cdc:	0f0f1137          	lui	sp,0xf0f1
     ce0:	f0f10113          	addi	sp,sp,-241 # f0f0f0f <end+0xf0e768f>
     ce4:	00000013          	nop
     ce8:	00000013          	nop
     cec:	0020f1b3          	and	gp,ra,sp
     cf0:	00120213          	addi	tp,tp,1 # 1 <reset_vec+0x1>
     cf4:	00200293          	li	t0,2
     cf8:	fc521ee3          	bne	tp,t0,cd4 <test_14+0x4>
     cfc:	000f0eb7          	lui	t4,0xf0
     d00:	00fe8e93          	addi	t4,t4,15 # f000f <end+0xe678f>
     d04:	00e00e13          	li	t3,14
     d08:	27d19863          	bne	gp,t4,f78 <fail>

00000d0c <test_15>:
     d0c:	00000213          	li	tp,0
     d10:	ff0100b7          	lui	ra,0xff010
     d14:	f0008093          	addi	ra,ra,-256 # ff00ff00 <pulp__FC+0xff00ff01>
     d18:	00000013          	nop
     d1c:	0f0f1137          	lui	sp,0xf0f1
     d20:	f0f10113          	addi	sp,sp,-241 # f0f0f0f <end+0xf0e768f>
     d24:	0020f1b3          	and	gp,ra,sp
     d28:	00120213          	addi	tp,tp,1 # 1 <reset_vec+0x1>
     d2c:	00200293          	li	t0,2
     d30:	fe5210e3          	bne	tp,t0,d10 <test_15+0x4>
     d34:	0f001eb7          	lui	t4,0xf001
     d38:	f00e8e93          	addi	t4,t4,-256 # f000f00 <end+0xeff7680>
     d3c:	00f00e13          	li	t3,15
     d40:	23d19c63          	bne	gp,t4,f78 <fail>

00000d44 <test_16>:
     d44:	00000213          	li	tp,0
     d48:	0ff010b7          	lui	ra,0xff01
     d4c:	ff008093          	addi	ra,ra,-16 # ff00ff0 <end+0xfef7770>
     d50:	00000013          	nop
     d54:	f0f0f137          	lui	sp,0xf0f0f
     d58:	0f010113          	addi	sp,sp,240 # f0f0f0f0 <pulp__FC+0xf0f0f0f1>
     d5c:	00000013          	nop
     d60:	0020f1b3          	and	gp,ra,sp
     d64:	00120213          	addi	tp,tp,1 # 1 <reset_vec+0x1>
     d68:	00200293          	li	t0,2
     d6c:	fc521ee3          	bne	tp,t0,d48 <test_16+0x4>
     d70:	00f00eb7          	lui	t4,0xf00
     d74:	0f0e8e93          	addi	t4,t4,240 # f000f0 <end+0xef6870>
     d78:	01000e13          	li	t3,16
     d7c:	1fd19e63          	bne	gp,t4,f78 <fail>

00000d80 <test_17>:
     d80:	00000213          	li	tp,0
     d84:	00ff00b7          	lui	ra,0xff0
     d88:	0ff08093          	addi	ra,ra,255 # ff00ff <end+0xfe687f>
     d8c:	00000013          	nop
     d90:	00000013          	nop
     d94:	0f0f1137          	lui	sp,0xf0f1
     d98:	f0f10113          	addi	sp,sp,-241 # f0f0f0f <end+0xf0e768f>
     d9c:	0020f1b3          	and	gp,ra,sp
     da0:	00120213          	addi	tp,tp,1 # 1 <reset_vec+0x1>
     da4:	00200293          	li	t0,2
     da8:	fc521ee3          	bne	tp,t0,d84 <test_17+0x4>
     dac:	000f0eb7          	lui	t4,0xf0
     db0:	00fe8e93          	addi	t4,t4,15 # f000f <end+0xe678f>
     db4:	01100e13          	li	t3,17
     db8:	1dd19063          	bne	gp,t4,f78 <fail>

00000dbc <test_18>:
     dbc:	00000213          	li	tp,0
     dc0:	0f0f1137          	lui	sp,0xf0f1
     dc4:	f0f10113          	addi	sp,sp,-241 # f0f0f0f <end+0xf0e768f>
     dc8:	ff0100b7          	lui	ra,0xff010
     dcc:	f0008093          	addi	ra,ra,-256 # ff00ff00 <pulp__FC+0xff00ff01>
     dd0:	0020f1b3          	and	gp,ra,sp
     dd4:	00120213          	addi	tp,tp,1 # 1 <reset_vec+0x1>
     dd8:	00200293          	li	t0,2
     ddc:	fe5212e3          	bne	tp,t0,dc0 <test_18+0x4>
     de0:	0f001eb7          	lui	t4,0xf001
     de4:	f00e8e93          	addi	t4,t4,-256 # f000f00 <end+0xeff7680>
     de8:	01200e13          	li	t3,18
     dec:	19d19663          	bne	gp,t4,f78 <fail>

00000df0 <test_19>:
     df0:	00000213          	li	tp,0
     df4:	f0f0f137          	lui	sp,0xf0f0f
     df8:	0f010113          	addi	sp,sp,240 # f0f0f0f0 <pulp__FC+0xf0f0f0f1>
     dfc:	0ff010b7          	lui	ra,0xff01
     e00:	ff008093          	addi	ra,ra,-16 # ff00ff0 <end+0xfef7770>
     e04:	00000013          	nop
     e08:	0020f1b3          	and	gp,ra,sp
     e0c:	00120213          	addi	tp,tp,1 # 1 <reset_vec+0x1>
     e10:	00200293          	li	t0,2
     e14:	fe5210e3          	bne	tp,t0,df4 <test_19+0x4>
     e18:	00f00eb7          	lui	t4,0xf00
     e1c:	0f0e8e93          	addi	t4,t4,240 # f000f0 <end+0xef6870>
     e20:	01300e13          	li	t3,19
     e24:	15d19a63          	bne	gp,t4,f78 <fail>

00000e28 <test_20>:
     e28:	00000213          	li	tp,0
     e2c:	0f0f1137          	lui	sp,0xf0f1
     e30:	f0f10113          	addi	sp,sp,-241 # f0f0f0f <end+0xf0e768f>
     e34:	00ff00b7          	lui	ra,0xff0
     e38:	0ff08093          	addi	ra,ra,255 # ff00ff <end+0xfe687f>
     e3c:	00000013          	nop
     e40:	00000013          	nop
     e44:	0020f1b3          	and	gp,ra,sp
     e48:	00120213          	addi	tp,tp,1 # 1 <reset_vec+0x1>
     e4c:	00200293          	li	t0,2
     e50:	fc521ee3          	bne	tp,t0,e2c <test_20+0x4>
     e54:	000f0eb7          	lui	t4,0xf0
     e58:	00fe8e93          	addi	t4,t4,15 # f000f <end+0xe678f>
     e5c:	01400e13          	li	t3,20
     e60:	11d19c63          	bne	gp,t4,f78 <fail>

00000e64 <test_21>:
     e64:	00000213          	li	tp,0
     e68:	0f0f1137          	lui	sp,0xf0f1
     e6c:	f0f10113          	addi	sp,sp,-241 # f0f0f0f <end+0xf0e768f>
     e70:	00000013          	nop
     e74:	ff0100b7          	lui	ra,0xff010
     e78:	f0008093          	addi	ra,ra,-256 # ff00ff00 <pulp__FC+0xff00ff01>
     e7c:	0020f1b3          	and	gp,ra,sp
     e80:	00120213          	addi	tp,tp,1 # 1 <reset_vec+0x1>
     e84:	00200293          	li	t0,2
     e88:	fe5210e3          	bne	tp,t0,e68 <test_21+0x4>
     e8c:	0f001eb7          	lui	t4,0xf001
     e90:	f00e8e93          	addi	t4,t4,-256 # f000f00 <end+0xeff7680>
     e94:	01500e13          	li	t3,21
     e98:	0fd19063          	bne	gp,t4,f78 <fail>

00000e9c <test_22>:
     e9c:	00000213          	li	tp,0
     ea0:	f0f0f137          	lui	sp,0xf0f0f
     ea4:	0f010113          	addi	sp,sp,240 # f0f0f0f0 <pulp__FC+0xf0f0f0f1>
     ea8:	00000013          	nop
     eac:	0ff010b7          	lui	ra,0xff01
     eb0:	ff008093          	addi	ra,ra,-16 # ff00ff0 <end+0xfef7770>
     eb4:	00000013          	nop
     eb8:	0020f1b3          	and	gp,ra,sp
     ebc:	00120213          	addi	tp,tp,1 # 1 <reset_vec+0x1>
     ec0:	00200293          	li	t0,2
     ec4:	fc521ee3          	bne	tp,t0,ea0 <test_22+0x4>
     ec8:	00f00eb7          	lui	t4,0xf00
     ecc:	0f0e8e93          	addi	t4,t4,240 # f000f0 <end+0xef6870>
     ed0:	01600e13          	li	t3,22
     ed4:	0bd19263          	bne	gp,t4,f78 <fail>

00000ed8 <test_23>:
     ed8:	00000213          	li	tp,0
     edc:	0f0f1137          	lui	sp,0xf0f1
     ee0:	f0f10113          	addi	sp,sp,-241 # f0f0f0f <end+0xf0e768f>
     ee4:	00000013          	nop
     ee8:	00000013          	nop
     eec:	00ff00b7          	lui	ra,0xff0
     ef0:	0ff08093          	addi	ra,ra,255 # ff00ff <end+0xfe687f>
     ef4:	0020f1b3          	and	gp,ra,sp
     ef8:	00120213          	addi	tp,tp,1 # 1 <reset_vec+0x1>
     efc:	00200293          	li	t0,2
     f00:	fc521ee3          	bne	tp,t0,edc <test_23+0x4>
     f04:	000f0eb7          	lui	t4,0xf0
     f08:	00fe8e93          	addi	t4,t4,15 # f000f <end+0xe678f>
     f0c:	01700e13          	li	t3,23
     f10:	07d19463          	bne	gp,t4,f78 <fail>

00000f14 <test_24>:
     f14:	ff0100b7          	lui	ra,0xff010
     f18:	f0008093          	addi	ra,ra,-256 # ff00ff00 <pulp__FC+0xff00ff01>
     f1c:	00107133          	and	sp,zero,ra
     f20:	00000e93          	li	t4,0
     f24:	01800e13          	li	t3,24
     f28:	05d11863          	bne	sp,t4,f78 <fail>

00000f2c <test_25>:
     f2c:	00ff00b7          	lui	ra,0xff0
     f30:	0ff08093          	addi	ra,ra,255 # ff00ff <end+0xfe687f>
     f34:	0000f133          	and	sp,ra,zero
     f38:	00000e93          	li	t4,0
     f3c:	01900e13          	li	t3,25
     f40:	03d11c63          	bne	sp,t4,f78 <fail>

00000f44 <test_26>:
     f44:	000070b3          	and	ra,zero,zero
     f48:	00000e93          	li	t4,0
     f4c:	01a00e13          	li	t3,26
     f50:	03d09463          	bne	ra,t4,f78 <fail>

00000f54 <test_27>:
     f54:	111110b7          	lui	ra,0x11111
     f58:	11108093          	addi	ra,ra,273 # 11111111 <end+0x11107891>
     f5c:	22222137          	lui	sp,0x22222
     f60:	22210113          	addi	sp,sp,546 # 22222222 <end+0x222189a2>
     f64:	0020f033          	and	zero,ra,sp
     f68:	00000e93          	li	t4,0
     f6c:	01b00e13          	li	t3,27
     f70:	01d01463          	bne	zero,t4,f78 <fail>
     f74:	03c01e63          	bne	zero,t3,fb0 <pass>

00000f78 <fail>:
     f78:	10000537          	lui	a0,0x10000
     f7c:	04500593          	li	a1,69
     f80:	05200613          	li	a2,82
     f84:	04f00693          	li	a3,79
     f88:	00a00713          	li	a4,10
     f8c:	030e0793          	addi	a5,t3,48 # 18030 <end+0xe7b0>
     f90:	00b52023          	sw	a1,0(a0) # 10000000 <end+0xfff6780>
     f94:	00c52023          	sw	a2,0(a0)
     f98:	00c52023          	sw	a2,0(a0)
     f9c:	00d52023          	sw	a3,0(a0)
     fa0:	00c52023          	sw	a2,0(a0)
     fa4:	00f52023          	sw	a5,0(a0)
     fa8:	00e52023          	sw	a4,0(a0)
     fac:	00100073          	ebreak

00000fb0 <pass>:
     fb0:	10000537          	lui	a0,0x10000
     fb4:	04f00593          	li	a1,79
     fb8:	04b00613          	li	a2,75
     fbc:	00a00693          	li	a3,10
     fc0:	00b52023          	sw	a1,0(a0) # 10000000 <end+0xfff6780>
     fc4:	00c52023          	sw	a2,0(a0)
     fc8:	00d52023          	sw	a3,0(a0)
     fcc:	9d0ff06f          	j	19c <and_ret>

00000fd0 <andi>:
     fd0:	00001537          	lui	a0,0x1
     fd4:	ff050513          	addi	a0,a0,-16 # ff0 <.test_name>
     fd8:	10000637          	lui	a2,0x10000

00000fdc <.prname_next>:
     fdc:	00050583          	lb	a1,0(a0)
     fe0:	00058c63          	beqz	a1,ff8 <.prname_done>
     fe4:	00b62023          	sw	a1,0(a2) # 10000000 <end+0xfff6780>
     fe8:	00150513          	addi	a0,a0,1
     fec:	ff1ff06f          	j	fdc <.prname_next>

00000ff0 <.test_name>:
     ff0:	6e61                	lui	t3,0x18
     ff2:	6964                	flw	fs1,84(a0)
     ff4:	0000                	unimp
	...

00000ff8 <.prname_done>:
     ff8:	02e00593          	li	a1,46
     ffc:	00b62023          	sw	a1,0(a2)
    1000:	00b62023          	sw	a1,0(a2)

00001004 <test_2>:
    1004:	ff0100b7          	lui	ra,0xff010
    1008:	f0008093          	addi	ra,ra,-256 # ff00ff00 <pulp__FC+0xff00ff01>
    100c:	f0f0f193          	andi	gp,ra,-241
    1010:	ff010eb7          	lui	t4,0xff010
    1014:	f00e8e93          	addi	t4,t4,-256 # ff00ff00 <pulp__FC+0xff00ff01>
    1018:	00200e13          	li	t3,2
    101c:	1bd19463          	bne	gp,t4,11c4 <fail>

00001020 <test_3>:
    1020:	0ff010b7          	lui	ra,0xff01
    1024:	ff008093          	addi	ra,ra,-16 # ff00ff0 <end+0xfef7770>
    1028:	0f00f193          	andi	gp,ra,240
    102c:	0f000e93          	li	t4,240
    1030:	00300e13          	li	t3,3
    1034:	19d19863          	bne	gp,t4,11c4 <fail>

00001038 <test_4>:
    1038:	00ff00b7          	lui	ra,0xff0
    103c:	0ff08093          	addi	ra,ra,255 # ff00ff <end+0xfe687f>
    1040:	70f0f193          	andi	gp,ra,1807
    1044:	00f00e93          	li	t4,15
    1048:	00400e13          	li	t3,4
    104c:	17d19c63          	bne	gp,t4,11c4 <fail>

00001050 <test_5>:
    1050:	f00ff0b7          	lui	ra,0xf00ff
    1054:	00f08093          	addi	ra,ra,15 # f00ff00f <pulp__FC+0xf00ff010>
    1058:	0f00f193          	andi	gp,ra,240
    105c:	00000e93          	li	t4,0
    1060:	00500e13          	li	t3,5
    1064:	17d19063          	bne	gp,t4,11c4 <fail>

00001068 <test_6>:
    1068:	ff0100b7          	lui	ra,0xff010
    106c:	f0008093          	addi	ra,ra,-256 # ff00ff00 <pulp__FC+0xff00ff01>
    1070:	0f00f093          	andi	ra,ra,240
    1074:	00000e93          	li	t4,0
    1078:	00600e13          	li	t3,6
    107c:	15d09463          	bne	ra,t4,11c4 <fail>

00001080 <test_7>:
    1080:	00000213          	li	tp,0
    1084:	0ff010b7          	lui	ra,0xff01
    1088:	ff008093          	addi	ra,ra,-16 # ff00ff0 <end+0xfef7770>
    108c:	70f0f193          	andi	gp,ra,1807
    1090:	00018313          	mv	t1,gp
    1094:	00120213          	addi	tp,tp,1 # 1 <reset_vec+0x1>
    1098:	00200293          	li	t0,2
    109c:	fe5214e3          	bne	tp,t0,1084 <test_7+0x4>
    10a0:	70000e93          	li	t4,1792
    10a4:	00700e13          	li	t3,7
    10a8:	11d31e63          	bne	t1,t4,11c4 <fail>

000010ac <test_8>:
    10ac:	00000213          	li	tp,0
    10b0:	00ff00b7          	lui	ra,0xff0
    10b4:	0ff08093          	addi	ra,ra,255 # ff00ff <end+0xfe687f>
    10b8:	0f00f193          	andi	gp,ra,240
    10bc:	00000013          	nop
    10c0:	00018313          	mv	t1,gp
    10c4:	00120213          	addi	tp,tp,1 # 1 <reset_vec+0x1>
    10c8:	00200293          	li	t0,2
    10cc:	fe5212e3          	bne	tp,t0,10b0 <test_8+0x4>
    10d0:	0f000e93          	li	t4,240
    10d4:	00800e13          	li	t3,8
    10d8:	0fd31663          	bne	t1,t4,11c4 <fail>

000010dc <test_9>:
    10dc:	00000213          	li	tp,0
    10e0:	f00ff0b7          	lui	ra,0xf00ff
    10e4:	00f08093          	addi	ra,ra,15 # f00ff00f <pulp__FC+0xf00ff010>
    10e8:	f0f0f193          	andi	gp,ra,-241
    10ec:	00000013          	nop
    10f0:	00000013          	nop
    10f4:	00018313          	mv	t1,gp
    10f8:	00120213          	addi	tp,tp,1 # 1 <reset_vec+0x1>
    10fc:	00200293          	li	t0,2
    1100:	fe5210e3          	bne	tp,t0,10e0 <test_9+0x4>
    1104:	f00ffeb7          	lui	t4,0xf00ff
    1108:	00fe8e93          	addi	t4,t4,15 # f00ff00f <pulp__FC+0xf00ff010>
    110c:	00900e13          	li	t3,9
    1110:	0bd31a63          	bne	t1,t4,11c4 <fail>

00001114 <test_10>:
    1114:	00000213          	li	tp,0
    1118:	0ff010b7          	lui	ra,0xff01
    111c:	ff008093          	addi	ra,ra,-16 # ff00ff0 <end+0xfef7770>
    1120:	70f0f193          	andi	gp,ra,1807
    1124:	00120213          	addi	tp,tp,1 # 1 <reset_vec+0x1>
    1128:	00200293          	li	t0,2
    112c:	fe5216e3          	bne	tp,t0,1118 <test_10+0x4>
    1130:	70000e93          	li	t4,1792
    1134:	00a00e13          	li	t3,10
    1138:	09d19663          	bne	gp,t4,11c4 <fail>

0000113c <test_11>:
    113c:	00000213          	li	tp,0
    1140:	00ff00b7          	lui	ra,0xff0
    1144:	0ff08093          	addi	ra,ra,255 # ff00ff <end+0xfe687f>
    1148:	00000013          	nop
    114c:	0f00f193          	andi	gp,ra,240
    1150:	00120213          	addi	tp,tp,1 # 1 <reset_vec+0x1>
    1154:	00200293          	li	t0,2
    1158:	fe5214e3          	bne	tp,t0,1140 <test_11+0x4>
    115c:	0f000e93          	li	t4,240
    1160:	00b00e13          	li	t3,11
    1164:	07d19063          	bne	gp,t4,11c4 <fail>

00001168 <test_12>:
    1168:	00000213          	li	tp,0
    116c:	f00ff0b7          	lui	ra,0xf00ff
    1170:	00f08093          	addi	ra,ra,15 # f00ff00f <pulp__FC+0xf00ff010>
    1174:	00000013          	nop
    1178:	00000013          	nop
    117c:	70f0f193          	andi	gp,ra,1807
    1180:	00120213          	addi	tp,tp,1 # 1 <reset_vec+0x1>
    1184:	00200293          	li	t0,2
    1188:	fe5212e3          	bne	tp,t0,116c <test_12+0x4>
    118c:	00f00e93          	li	t4,15
    1190:	00c00e13          	li	t3,12
    1194:	03d19863          	bne	gp,t4,11c4 <fail>

00001198 <test_13>:
    1198:	0f007093          	andi	ra,zero,240
    119c:	00000e93          	li	t4,0
    11a0:	00d00e13          	li	t3,13
    11a4:	03d09063          	bne	ra,t4,11c4 <fail>

000011a8 <test_14>:
    11a8:	00ff00b7          	lui	ra,0xff0
    11ac:	0ff08093          	addi	ra,ra,255 # ff00ff <end+0xfe687f>
    11b0:	70f0f013          	andi	zero,ra,1807
    11b4:	00000e93          	li	t4,0
    11b8:	00e00e13          	li	t3,14
    11bc:	01d01463          	bne	zero,t4,11c4 <fail>
    11c0:	03c01e63          	bne	zero,t3,11fc <pass>

000011c4 <fail>:
    11c4:	10000537          	lui	a0,0x10000
    11c8:	04500593          	li	a1,69
    11cc:	05200613          	li	a2,82
    11d0:	04f00693          	li	a3,79
    11d4:	00a00713          	li	a4,10
    11d8:	030e0793          	addi	a5,t3,48 # 18030 <end+0xe7b0>
    11dc:	00b52023          	sw	a1,0(a0) # 10000000 <end+0xfff6780>
    11e0:	00c52023          	sw	a2,0(a0)
    11e4:	00c52023          	sw	a2,0(a0)
    11e8:	00d52023          	sw	a3,0(a0)
    11ec:	00c52023          	sw	a2,0(a0)
    11f0:	00f52023          	sw	a5,0(a0)
    11f4:	00e52023          	sw	a4,0(a0)
    11f8:	00100073          	ebreak

000011fc <pass>:
    11fc:	10000537          	lui	a0,0x10000
    1200:	04f00593          	li	a1,79
    1204:	04b00613          	li	a2,75
    1208:	00a00693          	li	a3,10
    120c:	00b52023          	sw	a1,0(a0) # 10000000 <end+0xfff6780>
    1210:	00c52023          	sw	a2,0(a0)
    1214:	00d52023          	sw	a3,0(a0)
    1218:	f25fe06f          	j	13c <andi_ret>
    121c:	0000                	unimp
	...

00001220 <auipc>:
    1220:	00001537          	lui	a0,0x1
    1224:	24050513          	addi	a0,a0,576 # 1240 <.test_name>
    1228:	10000637          	lui	a2,0x10000

0000122c <.prname_next>:
    122c:	00050583          	lb	a1,0(a0)
    1230:	00058c63          	beqz	a1,1248 <.prname_done>
    1234:	00b62023          	sw	a1,0(a2) # 10000000 <end+0xfff6780>
    1238:	00150513          	addi	a0,a0,1
    123c:	ff1ff06f          	j	122c <.prname_next>

00001240 <.test_name>:
    1240:	7561                	lui	a0,0xffff8
    1242:	7069                	0x7069
    1244:	00000063          	beqz	zero,1244 <.test_name+0x4>

00001248 <.prname_done>:
    1248:	02e00593          	li	a1,46
    124c:	00b62023          	sw	a1,0(a2)
    1250:	00b62023          	sw	a1,0(a2)

00001254 <test_2>:
    1254:	00000013          	nop
    1258:	00002517          	auipc	a0,0x2
    125c:	71c50513          	addi	a0,a0,1820 # 3974 <test_14+0x2c>
    1260:	004005ef          	jal	a1,1264 <test_2+0x10>
    1264:	40b50533          	sub	a0,a0,a1
    1268:	00002eb7          	lui	t4,0x2
    126c:	710e8e93          	addi	t4,t4,1808 # 2710 <test_19+0x10>
    1270:	00200e13          	li	t3,2
    1274:	03d51463          	bne	a0,t4,129c <fail>

00001278 <test_3>:
    1278:	ffffe517          	auipc	a0,0xffffe
    127c:	8fc50513          	addi	a0,a0,-1796 # ffffeb74 <pulp__FC+0xffffeb75>
    1280:	004005ef          	jal	a1,1284 <test_3+0xc>
    1284:	40b50533          	sub	a0,a0,a1
    1288:	ffffeeb7          	lui	t4,0xffffe
    128c:	8f0e8e93          	addi	t4,t4,-1808 # ffffd8f0 <pulp__FC+0xffffd8f1>
    1290:	00300e13          	li	t3,3
    1294:	01d51463          	bne	a0,t4,129c <fail>
    1298:	03c01e63          	bne	zero,t3,12d4 <pass>

0000129c <fail>:
    129c:	10000537          	lui	a0,0x10000
    12a0:	04500593          	li	a1,69
    12a4:	05200613          	li	a2,82
    12a8:	04f00693          	li	a3,79
    12ac:	00a00713          	li	a4,10
    12b0:	030e0793          	addi	a5,t3,48
    12b4:	00b52023          	sw	a1,0(a0) # 10000000 <end+0xfff6780>
    12b8:	00c52023          	sw	a2,0(a0)
    12bc:	00c52023          	sw	a2,0(a0)
    12c0:	00d52023          	sw	a3,0(a0)
    12c4:	00c52023          	sw	a2,0(a0)
    12c8:	00f52023          	sw	a5,0(a0)
    12cc:	00e52023          	sw	a4,0(a0)
    12d0:	00100073          	ebreak

000012d4 <pass>:
    12d4:	10000537          	lui	a0,0x10000
    12d8:	04f00593          	li	a1,79
    12dc:	04b00613          	li	a2,75
    12e0:	00a00693          	li	a3,10
    12e4:	00b52023          	sw	a1,0(a0) # 10000000 <end+0xfff6780>
    12e8:	00c52023          	sw	a2,0(a0)
    12ec:	00d52023          	sw	a3,0(a0)
    12f0:	d9dfe06f          	j	8c <auipc_ret>

000012f4 <beq>:
    12f4:	00001537          	lui	a0,0x1
    12f8:	31450513          	addi	a0,a0,788 # 1314 <.test_name>
    12fc:	10000637          	lui	a2,0x10000

00001300 <.prname_next>:
    1300:	00050583          	lb	a1,0(a0)
    1304:	00058a63          	beqz	a1,1318 <.prname_done>
    1308:	00b62023          	sw	a1,0(a2) # 10000000 <end+0xfff6780>
    130c:	00150513          	addi	a0,a0,1
    1310:	ff1ff06f          	j	1300 <.prname_next>

00001314 <.test_name>:
    1314:	6562                	flw	fa0,24(sp)
    1316:	0071                	c.addi	zero,28

00001318 <.prname_done>:
    1318:	02e00593          	li	a1,46
    131c:	00b62023          	sw	a1,0(a2)
    1320:	00b62023          	sw	a1,0(a2)

00001324 <test_2>:
    1324:	00200e13          	li	t3,2
    1328:	00000093          	li	ra,0
    132c:	00000113          	li	sp,0
    1330:	00208663          	beq	ra,sp,133c <test_2+0x18>
    1334:	2bc01863          	bne	zero,t3,15e4 <fail>
    1338:	01c01663          	bne	zero,t3,1344 <test_3>
    133c:	fe208ee3          	beq	ra,sp,1338 <test_2+0x14>
    1340:	2bc01263          	bne	zero,t3,15e4 <fail>

00001344 <test_3>:
    1344:	00300e13          	li	t3,3
    1348:	00100093          	li	ra,1
    134c:	00100113          	li	sp,1
    1350:	00208663          	beq	ra,sp,135c <test_3+0x18>
    1354:	29c01863          	bne	zero,t3,15e4 <fail>
    1358:	01c01663          	bne	zero,t3,1364 <test_4>
    135c:	fe208ee3          	beq	ra,sp,1358 <test_3+0x14>
    1360:	29c01263          	bne	zero,t3,15e4 <fail>

00001364 <test_4>:
    1364:	00400e13          	li	t3,4
    1368:	fff00093          	li	ra,-1
    136c:	fff00113          	li	sp,-1
    1370:	00208663          	beq	ra,sp,137c <test_4+0x18>
    1374:	27c01863          	bne	zero,t3,15e4 <fail>
    1378:	01c01663          	bne	zero,t3,1384 <test_5>
    137c:	fe208ee3          	beq	ra,sp,1378 <test_4+0x14>
    1380:	27c01263          	bne	zero,t3,15e4 <fail>

00001384 <test_5>:
    1384:	00500e13          	li	t3,5
    1388:	00000093          	li	ra,0
    138c:	00100113          	li	sp,1
    1390:	00208463          	beq	ra,sp,1398 <test_5+0x14>
    1394:	01c01463          	bne	zero,t3,139c <test_5+0x18>
    1398:	25c01663          	bne	zero,t3,15e4 <fail>
    139c:	fe208ee3          	beq	ra,sp,1398 <test_5+0x14>

000013a0 <test_6>:
    13a0:	00600e13          	li	t3,6
    13a4:	00100093          	li	ra,1
    13a8:	00000113          	li	sp,0
    13ac:	00208463          	beq	ra,sp,13b4 <test_6+0x14>
    13b0:	01c01463          	bne	zero,t3,13b8 <test_6+0x18>
    13b4:	23c01863          	bne	zero,t3,15e4 <fail>
    13b8:	fe208ee3          	beq	ra,sp,13b4 <test_6+0x14>

000013bc <test_7>:
    13bc:	00700e13          	li	t3,7
    13c0:	fff00093          	li	ra,-1
    13c4:	00100113          	li	sp,1
    13c8:	00208463          	beq	ra,sp,13d0 <test_7+0x14>
    13cc:	01c01463          	bne	zero,t3,13d4 <test_7+0x18>
    13d0:	21c01a63          	bne	zero,t3,15e4 <fail>
    13d4:	fe208ee3          	beq	ra,sp,13d0 <test_7+0x14>

000013d8 <test_8>:
    13d8:	00800e13          	li	t3,8
    13dc:	00100093          	li	ra,1
    13e0:	fff00113          	li	sp,-1
    13e4:	00208463          	beq	ra,sp,13ec <test_8+0x14>
    13e8:	01c01463          	bne	zero,t3,13f0 <test_8+0x18>
    13ec:	1fc01c63          	bne	zero,t3,15e4 <fail>
    13f0:	fe208ee3          	beq	ra,sp,13ec <test_8+0x14>

000013f4 <test_9>:
    13f4:	00900e13          	li	t3,9
    13f8:	00000213          	li	tp,0
    13fc:	00000093          	li	ra,0
    1400:	fff00113          	li	sp,-1
    1404:	1e208063          	beq	ra,sp,15e4 <fail>
    1408:	00120213          	addi	tp,tp,1 # 1 <reset_vec+0x1>
    140c:	00200293          	li	t0,2
    1410:	fe5216e3          	bne	tp,t0,13fc <test_9+0x8>

00001414 <test_10>:
    1414:	00a00e13          	li	t3,10
    1418:	00000213          	li	tp,0
    141c:	00000093          	li	ra,0
    1420:	fff00113          	li	sp,-1
    1424:	00000013          	nop
    1428:	1a208e63          	beq	ra,sp,15e4 <fail>
    142c:	00120213          	addi	tp,tp,1 # 1 <reset_vec+0x1>
    1430:	00200293          	li	t0,2
    1434:	fe5214e3          	bne	tp,t0,141c <test_10+0x8>

00001438 <test_11>:
    1438:	00b00e13          	li	t3,11
    143c:	00000213          	li	tp,0
    1440:	00000093          	li	ra,0
    1444:	fff00113          	li	sp,-1
    1448:	00000013          	nop
    144c:	00000013          	nop
    1450:	18208a63          	beq	ra,sp,15e4 <fail>
    1454:	00120213          	addi	tp,tp,1 # 1 <reset_vec+0x1>
    1458:	00200293          	li	t0,2
    145c:	fe5212e3          	bne	tp,t0,1440 <test_11+0x8>

00001460 <test_12>:
    1460:	00c00e13          	li	t3,12
    1464:	00000213          	li	tp,0
    1468:	00000093          	li	ra,0
    146c:	00000013          	nop
    1470:	fff00113          	li	sp,-1
    1474:	16208863          	beq	ra,sp,15e4 <fail>
    1478:	00120213          	addi	tp,tp,1 # 1 <reset_vec+0x1>
    147c:	00200293          	li	t0,2
    1480:	fe5214e3          	bne	tp,t0,1468 <test_12+0x8>

00001484 <test_13>:
    1484:	00d00e13          	li	t3,13
    1488:	00000213          	li	tp,0
    148c:	00000093          	li	ra,0
    1490:	00000013          	nop
    1494:	fff00113          	li	sp,-1
    1498:	00000013          	nop
    149c:	14208463          	beq	ra,sp,15e4 <fail>
    14a0:	00120213          	addi	tp,tp,1 # 1 <reset_vec+0x1>
    14a4:	00200293          	li	t0,2
    14a8:	fe5212e3          	bne	tp,t0,148c <test_13+0x8>

000014ac <test_14>:
    14ac:	00e00e13          	li	t3,14
    14b0:	00000213          	li	tp,0
    14b4:	00000093          	li	ra,0
    14b8:	00000013          	nop
    14bc:	00000013          	nop
    14c0:	fff00113          	li	sp,-1
    14c4:	12208063          	beq	ra,sp,15e4 <fail>
    14c8:	00120213          	addi	tp,tp,1 # 1 <reset_vec+0x1>
    14cc:	00200293          	li	t0,2
    14d0:	fe5212e3          	bne	tp,t0,14b4 <test_14+0x8>

000014d4 <test_15>:
    14d4:	00f00e13          	li	t3,15
    14d8:	00000213          	li	tp,0
    14dc:	00000093          	li	ra,0
    14e0:	fff00113          	li	sp,-1
    14e4:	10208063          	beq	ra,sp,15e4 <fail>
    14e8:	00120213          	addi	tp,tp,1 # 1 <reset_vec+0x1>
    14ec:	00200293          	li	t0,2
    14f0:	fe5216e3          	bne	tp,t0,14dc <test_15+0x8>

000014f4 <test_16>:
    14f4:	01000e13          	li	t3,16
    14f8:	00000213          	li	tp,0
    14fc:	00000093          	li	ra,0
    1500:	fff00113          	li	sp,-1
    1504:	00000013          	nop
    1508:	0c208e63          	beq	ra,sp,15e4 <fail>
    150c:	00120213          	addi	tp,tp,1 # 1 <reset_vec+0x1>
    1510:	00200293          	li	t0,2
    1514:	fe5214e3          	bne	tp,t0,14fc <test_16+0x8>

00001518 <test_17>:
    1518:	01100e13          	li	t3,17
    151c:	00000213          	li	tp,0
    1520:	00000093          	li	ra,0
    1524:	fff00113          	li	sp,-1
    1528:	00000013          	nop
    152c:	00000013          	nop
    1530:	0a208a63          	beq	ra,sp,15e4 <fail>
    1534:	00120213          	addi	tp,tp,1 # 1 <reset_vec+0x1>
    1538:	00200293          	li	t0,2
    153c:	fe5212e3          	bne	tp,t0,1520 <test_17+0x8>

00001540 <test_18>:
    1540:	01200e13          	li	t3,18
    1544:	00000213          	li	tp,0
    1548:	00000093          	li	ra,0
    154c:	00000013          	nop
    1550:	fff00113          	li	sp,-1
    1554:	08208863          	beq	ra,sp,15e4 <fail>
    1558:	00120213          	addi	tp,tp,1 # 1 <reset_vec+0x1>
    155c:	00200293          	li	t0,2
    1560:	fe5214e3          	bne	tp,t0,1548 <test_18+0x8>

00001564 <test_19>:
    1564:	01300e13          	li	t3,19
    1568:	00000213          	li	tp,0
    156c:	00000093          	li	ra,0
    1570:	00000013          	nop
    1574:	fff00113          	li	sp,-1
    1578:	00000013          	nop
    157c:	06208463          	beq	ra,sp,15e4 <fail>
    1580:	00120213          	addi	tp,tp,1 # 1 <reset_vec+0x1>
    1584:	00200293          	li	t0,2
    1588:	fe5212e3          	bne	tp,t0,156c <test_19+0x8>

0000158c <test_20>:
    158c:	01400e13          	li	t3,20
    1590:	00000213          	li	tp,0
    1594:	00000093          	li	ra,0
    1598:	00000013          	nop
    159c:	00000013          	nop
    15a0:	fff00113          	li	sp,-1
    15a4:	04208063          	beq	ra,sp,15e4 <fail>
    15a8:	00120213          	addi	tp,tp,1 # 1 <reset_vec+0x1>
    15ac:	00200293          	li	t0,2
    15b0:	fe5212e3          	bne	tp,t0,1594 <test_20+0x8>

000015b4 <test_21>:
    15b4:	00100093          	li	ra,1
    15b8:	00000a63          	beqz	zero,15cc <test_21+0x18>
    15bc:	00108093          	addi	ra,ra,1
    15c0:	00108093          	addi	ra,ra,1
    15c4:	00108093          	addi	ra,ra,1
    15c8:	00108093          	addi	ra,ra,1
    15cc:	00108093          	addi	ra,ra,1
    15d0:	00108093          	addi	ra,ra,1
    15d4:	00300e93          	li	t4,3
    15d8:	01500e13          	li	t3,21
    15dc:	01d09463          	bne	ra,t4,15e4 <fail>
    15e0:	03c01e63          	bne	zero,t3,161c <pass>

000015e4 <fail>:
    15e4:	10000537          	lui	a0,0x10000
    15e8:	04500593          	li	a1,69
    15ec:	05200613          	li	a2,82
    15f0:	04f00693          	li	a3,79
    15f4:	00a00713          	li	a4,10
    15f8:	030e0793          	addi	a5,t3,48
    15fc:	00b52023          	sw	a1,0(a0) # 10000000 <end+0xfff6780>
    1600:	00c52023          	sw	a2,0(a0)
    1604:	00c52023          	sw	a2,0(a0)
    1608:	00d52023          	sw	a3,0(a0)
    160c:	00c52023          	sw	a2,0(a0)
    1610:	00f52023          	sw	a5,0(a0)
    1614:	00e52023          	sw	a4,0(a0)
    1618:	00100073          	ebreak

0000161c <pass>:
    161c:	10000537          	lui	a0,0x10000
    1620:	04f00593          	li	a1,79
    1624:	04b00613          	li	a2,75
    1628:	00a00693          	li	a3,10
    162c:	00b52023          	sw	a1,0(a0) # 10000000 <end+0xfff6780>
    1630:	00c52023          	sw	a2,0(a0)
    1634:	00d52023          	sw	a3,0(a0)
    1638:	a75fe06f          	j	ac <beq_ret>

0000163c <bge>:
    163c:	00001537          	lui	a0,0x1
    1640:	65c50513          	addi	a0,a0,1628 # 165c <.test_name>
    1644:	10000637          	lui	a2,0x10000

00001648 <.prname_next>:
    1648:	00050583          	lb	a1,0(a0)
    164c:	00058a63          	beqz	a1,1660 <.prname_done>
    1650:	00b62023          	sw	a1,0(a2) # 10000000 <end+0xfff6780>
    1654:	00150513          	addi	a0,a0,1
    1658:	ff1ff06f          	j	1648 <.prname_next>

0000165c <.test_name>:
    165c:	6762                	flw	fa4,24(sp)
    165e:	0065                	c.addi	zero,25

00001660 <.prname_done>:
    1660:	02e00593          	li	a1,46
    1664:	00b62023          	sw	a1,0(a2)
    1668:	00b62023          	sw	a1,0(a2)

0000166c <test_2>:
    166c:	00200e13          	li	t3,2
    1670:	00000093          	li	ra,0
    1674:	00000113          	li	sp,0
    1678:	0020d663          	ble	sp,ra,1684 <test_2+0x18>
    167c:	31c01863          	bne	zero,t3,198c <fail>
    1680:	01c01663          	bne	zero,t3,168c <test_3>
    1684:	fe20dee3          	ble	sp,ra,1680 <test_2+0x14>
    1688:	31c01263          	bne	zero,t3,198c <fail>

0000168c <test_3>:
    168c:	00300e13          	li	t3,3
    1690:	00100093          	li	ra,1
    1694:	00100113          	li	sp,1
    1698:	0020d663          	ble	sp,ra,16a4 <test_3+0x18>
    169c:	2fc01863          	bne	zero,t3,198c <fail>
    16a0:	01c01663          	bne	zero,t3,16ac <test_4>
    16a4:	fe20dee3          	ble	sp,ra,16a0 <test_3+0x14>
    16a8:	2fc01263          	bne	zero,t3,198c <fail>

000016ac <test_4>:
    16ac:	00400e13          	li	t3,4
    16b0:	fff00093          	li	ra,-1
    16b4:	fff00113          	li	sp,-1
    16b8:	0020d663          	ble	sp,ra,16c4 <test_4+0x18>
    16bc:	2dc01863          	bne	zero,t3,198c <fail>
    16c0:	01c01663          	bne	zero,t3,16cc <test_5>
    16c4:	fe20dee3          	ble	sp,ra,16c0 <test_4+0x14>
    16c8:	2dc01263          	bne	zero,t3,198c <fail>

000016cc <test_5>:
    16cc:	00500e13          	li	t3,5
    16d0:	00100093          	li	ra,1
    16d4:	00000113          	li	sp,0
    16d8:	0020d663          	ble	sp,ra,16e4 <test_5+0x18>
    16dc:	2bc01863          	bne	zero,t3,198c <fail>
    16e0:	01c01663          	bne	zero,t3,16ec <test_6>
    16e4:	fe20dee3          	ble	sp,ra,16e0 <test_5+0x14>
    16e8:	2bc01263          	bne	zero,t3,198c <fail>

000016ec <test_6>:
    16ec:	00600e13          	li	t3,6
    16f0:	00100093          	li	ra,1
    16f4:	fff00113          	li	sp,-1
    16f8:	0020d663          	ble	sp,ra,1704 <test_6+0x18>
    16fc:	29c01863          	bne	zero,t3,198c <fail>
    1700:	01c01663          	bne	zero,t3,170c <test_7>
    1704:	fe20dee3          	ble	sp,ra,1700 <test_6+0x14>
    1708:	29c01263          	bne	zero,t3,198c <fail>

0000170c <test_7>:
    170c:	00700e13          	li	t3,7
    1710:	fff00093          	li	ra,-1
    1714:	ffe00113          	li	sp,-2
    1718:	0020d663          	ble	sp,ra,1724 <test_7+0x18>
    171c:	27c01863          	bne	zero,t3,198c <fail>
    1720:	01c01663          	bne	zero,t3,172c <test_8>
    1724:	fe20dee3          	ble	sp,ra,1720 <test_7+0x14>
    1728:	27c01263          	bne	zero,t3,198c <fail>

0000172c <test_8>:
    172c:	00800e13          	li	t3,8
    1730:	00000093          	li	ra,0
    1734:	00100113          	li	sp,1
    1738:	0020d463          	ble	sp,ra,1740 <test_8+0x14>
    173c:	01c01463          	bne	zero,t3,1744 <test_8+0x18>
    1740:	25c01663          	bne	zero,t3,198c <fail>
    1744:	fe20dee3          	ble	sp,ra,1740 <test_8+0x14>

00001748 <test_9>:
    1748:	00900e13          	li	t3,9
    174c:	fff00093          	li	ra,-1
    1750:	00100113          	li	sp,1
    1754:	0020d463          	ble	sp,ra,175c <test_9+0x14>
    1758:	01c01463          	bne	zero,t3,1760 <test_9+0x18>
    175c:	23c01863          	bne	zero,t3,198c <fail>
    1760:	fe20dee3          	ble	sp,ra,175c <test_9+0x14>

00001764 <test_10>:
    1764:	00a00e13          	li	t3,10
    1768:	ffe00093          	li	ra,-2
    176c:	fff00113          	li	sp,-1
    1770:	0020d463          	ble	sp,ra,1778 <test_10+0x14>
    1774:	01c01463          	bne	zero,t3,177c <test_10+0x18>
    1778:	21c01a63          	bne	zero,t3,198c <fail>
    177c:	fe20dee3          	ble	sp,ra,1778 <test_10+0x14>

00001780 <test_11>:
    1780:	00b00e13          	li	t3,11
    1784:	ffe00093          	li	ra,-2
    1788:	00100113          	li	sp,1
    178c:	0020d463          	ble	sp,ra,1794 <test_11+0x14>
    1790:	01c01463          	bne	zero,t3,1798 <test_11+0x18>
    1794:	1fc01c63          	bne	zero,t3,198c <fail>
    1798:	fe20dee3          	ble	sp,ra,1794 <test_11+0x14>

0000179c <test_12>:
    179c:	00c00e13          	li	t3,12
    17a0:	00000213          	li	tp,0
    17a4:	fff00093          	li	ra,-1
    17a8:	00000113          	li	sp,0
    17ac:	1e20d063          	ble	sp,ra,198c <fail>
    17b0:	00120213          	addi	tp,tp,1 # 1 <reset_vec+0x1>
    17b4:	00200293          	li	t0,2
    17b8:	fe5216e3          	bne	tp,t0,17a4 <test_12+0x8>

000017bc <test_13>:
    17bc:	00d00e13          	li	t3,13
    17c0:	00000213          	li	tp,0
    17c4:	fff00093          	li	ra,-1
    17c8:	00000113          	li	sp,0
    17cc:	00000013          	nop
    17d0:	1a20de63          	ble	sp,ra,198c <fail>
    17d4:	00120213          	addi	tp,tp,1 # 1 <reset_vec+0x1>
    17d8:	00200293          	li	t0,2
    17dc:	fe5214e3          	bne	tp,t0,17c4 <test_13+0x8>

000017e0 <test_14>:
    17e0:	00e00e13          	li	t3,14
    17e4:	00000213          	li	tp,0
    17e8:	fff00093          	li	ra,-1
    17ec:	00000113          	li	sp,0
    17f0:	00000013          	nop
    17f4:	00000013          	nop
    17f8:	1820da63          	ble	sp,ra,198c <fail>
    17fc:	00120213          	addi	tp,tp,1 # 1 <reset_vec+0x1>
    1800:	00200293          	li	t0,2
    1804:	fe5212e3          	bne	tp,t0,17e8 <test_14+0x8>

00001808 <test_15>:
    1808:	00f00e13          	li	t3,15
    180c:	00000213          	li	tp,0
    1810:	fff00093          	li	ra,-1
    1814:	00000013          	nop
    1818:	00000113          	li	sp,0
    181c:	1620d863          	ble	sp,ra,198c <fail>
    1820:	00120213          	addi	tp,tp,1 # 1 <reset_vec+0x1>
    1824:	00200293          	li	t0,2
    1828:	fe5214e3          	bne	tp,t0,1810 <test_15+0x8>

0000182c <test_16>:
    182c:	01000e13          	li	t3,16
    1830:	00000213          	li	tp,0
    1834:	fff00093          	li	ra,-1
    1838:	00000013          	nop
    183c:	00000113          	li	sp,0
    1840:	00000013          	nop
    1844:	1420d463          	ble	sp,ra,198c <fail>
    1848:	00120213          	addi	tp,tp,1 # 1 <reset_vec+0x1>
    184c:	00200293          	li	t0,2
    1850:	fe5212e3          	bne	tp,t0,1834 <test_16+0x8>

00001854 <test_17>:
    1854:	01100e13          	li	t3,17
    1858:	00000213          	li	tp,0
    185c:	fff00093          	li	ra,-1
    1860:	00000013          	nop
    1864:	00000013          	nop
    1868:	00000113          	li	sp,0
    186c:	1220d063          	ble	sp,ra,198c <fail>
    1870:	00120213          	addi	tp,tp,1 # 1 <reset_vec+0x1>
    1874:	00200293          	li	t0,2
    1878:	fe5212e3          	bne	tp,t0,185c <test_17+0x8>

0000187c <test_18>:
    187c:	01200e13          	li	t3,18
    1880:	00000213          	li	tp,0
    1884:	fff00093          	li	ra,-1
    1888:	00000113          	li	sp,0
    188c:	1020d063          	ble	sp,ra,198c <fail>
    1890:	00120213          	addi	tp,tp,1 # 1 <reset_vec+0x1>
    1894:	00200293          	li	t0,2
    1898:	fe5216e3          	bne	tp,t0,1884 <test_18+0x8>

0000189c <test_19>:
    189c:	01300e13          	li	t3,19
    18a0:	00000213          	li	tp,0
    18a4:	fff00093          	li	ra,-1
    18a8:	00000113          	li	sp,0
    18ac:	00000013          	nop
    18b0:	0c20de63          	ble	sp,ra,198c <fail>
    18b4:	00120213          	addi	tp,tp,1 # 1 <reset_vec+0x1>
    18b8:	00200293          	li	t0,2
    18bc:	fe5214e3          	bne	tp,t0,18a4 <test_19+0x8>

000018c0 <test_20>:
    18c0:	01400e13          	li	t3,20
    18c4:	00000213          	li	tp,0
    18c8:	fff00093          	li	ra,-1
    18cc:	00000113          	li	sp,0
    18d0:	00000013          	nop
    18d4:	00000013          	nop
    18d8:	0a20da63          	ble	sp,ra,198c <fail>
    18dc:	00120213          	addi	tp,tp,1 # 1 <reset_vec+0x1>
    18e0:	00200293          	li	t0,2
    18e4:	fe5212e3          	bne	tp,t0,18c8 <test_20+0x8>

000018e8 <test_21>:
    18e8:	01500e13          	li	t3,21
    18ec:	00000213          	li	tp,0
    18f0:	fff00093          	li	ra,-1
    18f4:	00000013          	nop
    18f8:	00000113          	li	sp,0
    18fc:	0820d863          	ble	sp,ra,198c <fail>
    1900:	00120213          	addi	tp,tp,1 # 1 <reset_vec+0x1>
    1904:	00200293          	li	t0,2
    1908:	fe5214e3          	bne	tp,t0,18f0 <test_21+0x8>

0000190c <test_22>:
    190c:	01600e13          	li	t3,22
    1910:	00000213          	li	tp,0
    1914:	fff00093          	li	ra,-1
    1918:	00000013          	nop
    191c:	00000113          	li	sp,0
    1920:	00000013          	nop
    1924:	0620d463          	ble	sp,ra,198c <fail>
    1928:	00120213          	addi	tp,tp,1 # 1 <reset_vec+0x1>
    192c:	00200293          	li	t0,2
    1930:	fe5212e3          	bne	tp,t0,1914 <test_22+0x8>

00001934 <test_23>:
    1934:	01700e13          	li	t3,23
    1938:	00000213          	li	tp,0
    193c:	fff00093          	li	ra,-1
    1940:	00000013          	nop
    1944:	00000013          	nop
    1948:	00000113          	li	sp,0
    194c:	0420d063          	ble	sp,ra,198c <fail>
    1950:	00120213          	addi	tp,tp,1 # 1 <reset_vec+0x1>
    1954:	00200293          	li	t0,2
    1958:	fe5212e3          	bne	tp,t0,193c <test_23+0x8>

0000195c <test_24>:
    195c:	00100093          	li	ra,1
    1960:	0000da63          	bgez	ra,1974 <test_24+0x18>
    1964:	00108093          	addi	ra,ra,1
    1968:	00108093          	addi	ra,ra,1
    196c:	00108093          	addi	ra,ra,1
    1970:	00108093          	addi	ra,ra,1
    1974:	00108093          	addi	ra,ra,1
    1978:	00108093          	addi	ra,ra,1
    197c:	00300e93          	li	t4,3
    1980:	01800e13          	li	t3,24
    1984:	01d09463          	bne	ra,t4,198c <fail>
    1988:	03c01e63          	bne	zero,t3,19c4 <pass>

0000198c <fail>:
    198c:	10000537          	lui	a0,0x10000
    1990:	04500593          	li	a1,69
    1994:	05200613          	li	a2,82
    1998:	04f00693          	li	a3,79
    199c:	00a00713          	li	a4,10
    19a0:	030e0793          	addi	a5,t3,48
    19a4:	00b52023          	sw	a1,0(a0) # 10000000 <end+0xfff6780>
    19a8:	00c52023          	sw	a2,0(a0)
    19ac:	00c52023          	sw	a2,0(a0)
    19b0:	00d52023          	sw	a3,0(a0)
    19b4:	00c52023          	sw	a2,0(a0)
    19b8:	00f52023          	sw	a5,0(a0)
    19bc:	00e52023          	sw	a4,0(a0)
    19c0:	00100073          	ebreak

000019c4 <pass>:
    19c4:	10000537          	lui	a0,0x10000
    19c8:	04f00593          	li	a1,79
    19cc:	04b00613          	li	a2,75
    19d0:	00a00693          	li	a3,10
    19d4:	00b52023          	sw	a1,0(a0) # 10000000 <end+0xfff6780>
    19d8:	00c52023          	sw	a2,0(a0)
    19dc:	00d52023          	sw	a3,0(a0)
    19e0:	ee4fe06f          	j	c4 <bge_ret>

000019e4 <bgeu>:
    19e4:	00002537          	lui	a0,0x2
    19e8:	a0450513          	addi	a0,a0,-1532 # 1a04 <.test_name>
    19ec:	10000637          	lui	a2,0x10000

000019f0 <.prname_next>:
    19f0:	00050583          	lb	a1,0(a0)
    19f4:	00058c63          	beqz	a1,1a0c <.prname_done>
    19f8:	00b62023          	sw	a1,0(a2) # 10000000 <end+0xfff6780>
    19fc:	00150513          	addi	a0,a0,1
    1a00:	ff1ff06f          	j	19f0 <.prname_next>

00001a04 <.test_name>:
    1a04:	6762                	flw	fa4,24(sp)
    1a06:	7565                	lui	a0,0xffff9
    1a08:	0000                	unimp
	...

00001a0c <.prname_done>:
    1a0c:	02e00593          	li	a1,46
    1a10:	00b62023          	sw	a1,0(a2)
    1a14:	00b62023          	sw	a1,0(a2)

00001a18 <test_2>:
    1a18:	00200e13          	li	t3,2
    1a1c:	00000093          	li	ra,0
    1a20:	00000113          	li	sp,0
    1a24:	0020f663          	bleu	sp,ra,1a30 <test_2+0x18>
    1a28:	35c01263          	bne	zero,t3,1d6c <fail>
    1a2c:	01c01663          	bne	zero,t3,1a38 <test_3>
    1a30:	fe20fee3          	bleu	sp,ra,1a2c <test_2+0x14>
    1a34:	33c01c63          	bne	zero,t3,1d6c <fail>

00001a38 <test_3>:
    1a38:	00300e13          	li	t3,3
    1a3c:	00100093          	li	ra,1
    1a40:	00100113          	li	sp,1
    1a44:	0020f663          	bleu	sp,ra,1a50 <test_3+0x18>
    1a48:	33c01263          	bne	zero,t3,1d6c <fail>
    1a4c:	01c01663          	bne	zero,t3,1a58 <test_4>
    1a50:	fe20fee3          	bleu	sp,ra,1a4c <test_3+0x14>
    1a54:	31c01c63          	bne	zero,t3,1d6c <fail>

00001a58 <test_4>:
    1a58:	00400e13          	li	t3,4
    1a5c:	fff00093          	li	ra,-1
    1a60:	fff00113          	li	sp,-1
    1a64:	0020f663          	bleu	sp,ra,1a70 <test_4+0x18>
    1a68:	31c01263          	bne	zero,t3,1d6c <fail>
    1a6c:	01c01663          	bne	zero,t3,1a78 <test_5>
    1a70:	fe20fee3          	bleu	sp,ra,1a6c <test_4+0x14>
    1a74:	2fc01c63          	bne	zero,t3,1d6c <fail>

00001a78 <test_5>:
    1a78:	00500e13          	li	t3,5
    1a7c:	00100093          	li	ra,1
    1a80:	00000113          	li	sp,0
    1a84:	0020f663          	bleu	sp,ra,1a90 <test_5+0x18>
    1a88:	2fc01263          	bne	zero,t3,1d6c <fail>
    1a8c:	01c01663          	bne	zero,t3,1a98 <test_6>
    1a90:	fe20fee3          	bleu	sp,ra,1a8c <test_5+0x14>
    1a94:	2dc01c63          	bne	zero,t3,1d6c <fail>

00001a98 <test_6>:
    1a98:	00600e13          	li	t3,6
    1a9c:	fff00093          	li	ra,-1
    1aa0:	ffe00113          	li	sp,-2
    1aa4:	0020f663          	bleu	sp,ra,1ab0 <test_6+0x18>
    1aa8:	2dc01263          	bne	zero,t3,1d6c <fail>
    1aac:	01c01663          	bne	zero,t3,1ab8 <test_7>
    1ab0:	fe20fee3          	bleu	sp,ra,1aac <test_6+0x14>
    1ab4:	2bc01c63          	bne	zero,t3,1d6c <fail>

00001ab8 <test_7>:
    1ab8:	00700e13          	li	t3,7
    1abc:	fff00093          	li	ra,-1
    1ac0:	00000113          	li	sp,0
    1ac4:	0020f663          	bleu	sp,ra,1ad0 <test_7+0x18>
    1ac8:	2bc01263          	bne	zero,t3,1d6c <fail>
    1acc:	01c01663          	bne	zero,t3,1ad8 <test_8>
    1ad0:	fe20fee3          	bleu	sp,ra,1acc <test_7+0x14>
    1ad4:	29c01c63          	bne	zero,t3,1d6c <fail>

00001ad8 <test_8>:
    1ad8:	00800e13          	li	t3,8
    1adc:	00000093          	li	ra,0
    1ae0:	00100113          	li	sp,1
    1ae4:	0020f463          	bleu	sp,ra,1aec <test_8+0x14>
    1ae8:	01c01463          	bne	zero,t3,1af0 <test_8+0x18>
    1aec:	29c01063          	bne	zero,t3,1d6c <fail>
    1af0:	fe20fee3          	bleu	sp,ra,1aec <test_8+0x14>

00001af4 <test_9>:
    1af4:	00900e13          	li	t3,9
    1af8:	ffe00093          	li	ra,-2
    1afc:	fff00113          	li	sp,-1
    1b00:	0020f463          	bleu	sp,ra,1b08 <test_9+0x14>
    1b04:	01c01463          	bne	zero,t3,1b0c <test_9+0x18>
    1b08:	27c01263          	bne	zero,t3,1d6c <fail>
    1b0c:	fe20fee3          	bleu	sp,ra,1b08 <test_9+0x14>

00001b10 <test_10>:
    1b10:	00a00e13          	li	t3,10
    1b14:	00000093          	li	ra,0
    1b18:	fff00113          	li	sp,-1
    1b1c:	0020f463          	bleu	sp,ra,1b24 <test_10+0x14>
    1b20:	01c01463          	bne	zero,t3,1b28 <test_10+0x18>
    1b24:	25c01463          	bne	zero,t3,1d6c <fail>
    1b28:	fe20fee3          	bleu	sp,ra,1b24 <test_10+0x14>

00001b2c <test_11>:
    1b2c:	00b00e13          	li	t3,11
    1b30:	800000b7          	lui	ra,0x80000
    1b34:	fff08093          	addi	ra,ra,-1 # 7fffffff <pulp__FC+0x80000000>
    1b38:	80000137          	lui	sp,0x80000
    1b3c:	0020f463          	bleu	sp,ra,1b44 <test_11+0x18>
    1b40:	01c01463          	bne	zero,t3,1b48 <test_11+0x1c>
    1b44:	23c01463          	bne	zero,t3,1d6c <fail>
    1b48:	fe20fee3          	bleu	sp,ra,1b44 <test_11+0x18>

00001b4c <test_12>:
    1b4c:	00c00e13          	li	t3,12
    1b50:	00000213          	li	tp,0
    1b54:	f00000b7          	lui	ra,0xf0000
    1b58:	fff08093          	addi	ra,ra,-1 # efffffff <pulp__FC+0xf0000000>
    1b5c:	f0000137          	lui	sp,0xf0000
    1b60:	2020f663          	bleu	sp,ra,1d6c <fail>
    1b64:	00120213          	addi	tp,tp,1 # 1 <reset_vec+0x1>
    1b68:	00200293          	li	t0,2
    1b6c:	fe5214e3          	bne	tp,t0,1b54 <test_12+0x8>

00001b70 <test_13>:
    1b70:	00d00e13          	li	t3,13
    1b74:	00000213          	li	tp,0
    1b78:	f00000b7          	lui	ra,0xf0000
    1b7c:	fff08093          	addi	ra,ra,-1 # efffffff <pulp__FC+0xf0000000>
    1b80:	f0000137          	lui	sp,0xf0000
    1b84:	00000013          	nop
    1b88:	1e20f263          	bleu	sp,ra,1d6c <fail>
    1b8c:	00120213          	addi	tp,tp,1 # 1 <reset_vec+0x1>
    1b90:	00200293          	li	t0,2
    1b94:	fe5212e3          	bne	tp,t0,1b78 <test_13+0x8>

00001b98 <test_14>:
    1b98:	00e00e13          	li	t3,14
    1b9c:	00000213          	li	tp,0
    1ba0:	f00000b7          	lui	ra,0xf0000
    1ba4:	fff08093          	addi	ra,ra,-1 # efffffff <pulp__FC+0xf0000000>
    1ba8:	f0000137          	lui	sp,0xf0000
    1bac:	00000013          	nop
    1bb0:	00000013          	nop
    1bb4:	1a20fc63          	bleu	sp,ra,1d6c <fail>
    1bb8:	00120213          	addi	tp,tp,1 # 1 <reset_vec+0x1>
    1bbc:	00200293          	li	t0,2
    1bc0:	fe5210e3          	bne	tp,t0,1ba0 <test_14+0x8>

00001bc4 <test_15>:
    1bc4:	00f00e13          	li	t3,15
    1bc8:	00000213          	li	tp,0
    1bcc:	f00000b7          	lui	ra,0xf0000
    1bd0:	fff08093          	addi	ra,ra,-1 # efffffff <pulp__FC+0xf0000000>
    1bd4:	00000013          	nop
    1bd8:	f0000137          	lui	sp,0xf0000
    1bdc:	1820f863          	bleu	sp,ra,1d6c <fail>
    1be0:	00120213          	addi	tp,tp,1 # 1 <reset_vec+0x1>
    1be4:	00200293          	li	t0,2
    1be8:	fe5212e3          	bne	tp,t0,1bcc <test_15+0x8>

00001bec <test_16>:
    1bec:	01000e13          	li	t3,16
    1bf0:	00000213          	li	tp,0
    1bf4:	f00000b7          	lui	ra,0xf0000
    1bf8:	fff08093          	addi	ra,ra,-1 # efffffff <pulp__FC+0xf0000000>
    1bfc:	00000013          	nop
    1c00:	f0000137          	lui	sp,0xf0000
    1c04:	00000013          	nop
    1c08:	1620f263          	bleu	sp,ra,1d6c <fail>
    1c0c:	00120213          	addi	tp,tp,1 # 1 <reset_vec+0x1>
    1c10:	00200293          	li	t0,2
    1c14:	fe5210e3          	bne	tp,t0,1bf4 <test_16+0x8>

00001c18 <test_17>:
    1c18:	01100e13          	li	t3,17
    1c1c:	00000213          	li	tp,0
    1c20:	f00000b7          	lui	ra,0xf0000
    1c24:	fff08093          	addi	ra,ra,-1 # efffffff <pulp__FC+0xf0000000>
    1c28:	00000013          	nop
    1c2c:	00000013          	nop
    1c30:	f0000137          	lui	sp,0xf0000
    1c34:	1220fc63          	bleu	sp,ra,1d6c <fail>
    1c38:	00120213          	addi	tp,tp,1 # 1 <reset_vec+0x1>
    1c3c:	00200293          	li	t0,2
    1c40:	fe5210e3          	bne	tp,t0,1c20 <test_17+0x8>

00001c44 <test_18>:
    1c44:	01200e13          	li	t3,18
    1c48:	00000213          	li	tp,0
    1c4c:	f00000b7          	lui	ra,0xf0000
    1c50:	fff08093          	addi	ra,ra,-1 # efffffff <pulp__FC+0xf0000000>
    1c54:	f0000137          	lui	sp,0xf0000
    1c58:	1020fa63          	bleu	sp,ra,1d6c <fail>
    1c5c:	00120213          	addi	tp,tp,1 # 1 <reset_vec+0x1>
    1c60:	00200293          	li	t0,2
    1c64:	fe5214e3          	bne	tp,t0,1c4c <test_18+0x8>

00001c68 <test_19>:
    1c68:	01300e13          	li	t3,19
    1c6c:	00000213          	li	tp,0
    1c70:	f00000b7          	lui	ra,0xf0000
    1c74:	fff08093          	addi	ra,ra,-1 # efffffff <pulp__FC+0xf0000000>
    1c78:	f0000137          	lui	sp,0xf0000
    1c7c:	00000013          	nop
    1c80:	0e20f663          	bleu	sp,ra,1d6c <fail>
    1c84:	00120213          	addi	tp,tp,1 # 1 <reset_vec+0x1>
    1c88:	00200293          	li	t0,2
    1c8c:	fe5212e3          	bne	tp,t0,1c70 <test_19+0x8>

00001c90 <test_20>:
    1c90:	01400e13          	li	t3,20
    1c94:	00000213          	li	tp,0
    1c98:	f00000b7          	lui	ra,0xf0000
    1c9c:	fff08093          	addi	ra,ra,-1 # efffffff <pulp__FC+0xf0000000>
    1ca0:	f0000137          	lui	sp,0xf0000
    1ca4:	00000013          	nop
    1ca8:	00000013          	nop
    1cac:	0c20f063          	bleu	sp,ra,1d6c <fail>
    1cb0:	00120213          	addi	tp,tp,1 # 1 <reset_vec+0x1>
    1cb4:	00200293          	li	t0,2
    1cb8:	fe5210e3          	bne	tp,t0,1c98 <test_20+0x8>

00001cbc <test_21>:
    1cbc:	01500e13          	li	t3,21
    1cc0:	00000213          	li	tp,0
    1cc4:	f00000b7          	lui	ra,0xf0000
    1cc8:	fff08093          	addi	ra,ra,-1 # efffffff <pulp__FC+0xf0000000>
    1ccc:	00000013          	nop
    1cd0:	f0000137          	lui	sp,0xf0000
    1cd4:	0820fc63          	bleu	sp,ra,1d6c <fail>
    1cd8:	00120213          	addi	tp,tp,1 # 1 <reset_vec+0x1>
    1cdc:	00200293          	li	t0,2
    1ce0:	fe5212e3          	bne	tp,t0,1cc4 <test_21+0x8>

00001ce4 <test_22>:
    1ce4:	01600e13          	li	t3,22
    1ce8:	00000213          	li	tp,0
    1cec:	f00000b7          	lui	ra,0xf0000
    1cf0:	fff08093          	addi	ra,ra,-1 # efffffff <pulp__FC+0xf0000000>
    1cf4:	00000013          	nop
    1cf8:	f0000137          	lui	sp,0xf0000
    1cfc:	00000013          	nop
    1d00:	0620f663          	bleu	sp,ra,1d6c <fail>
    1d04:	00120213          	addi	tp,tp,1 # 1 <reset_vec+0x1>
    1d08:	00200293          	li	t0,2
    1d0c:	fe5210e3          	bne	tp,t0,1cec <test_22+0x8>

00001d10 <test_23>:
    1d10:	01700e13          	li	t3,23
    1d14:	00000213          	li	tp,0
    1d18:	f00000b7          	lui	ra,0xf0000
    1d1c:	fff08093          	addi	ra,ra,-1 # efffffff <pulp__FC+0xf0000000>
    1d20:	00000013          	nop
    1d24:	00000013          	nop
    1d28:	f0000137          	lui	sp,0xf0000
    1d2c:	0420f063          	bleu	sp,ra,1d6c <fail>
    1d30:	00120213          	addi	tp,tp,1 # 1 <reset_vec+0x1>
    1d34:	00200293          	li	t0,2
    1d38:	fe5210e3          	bne	tp,t0,1d18 <test_23+0x8>

00001d3c <test_24>:
    1d3c:	00100093          	li	ra,1
    1d40:	0000fa63          	bleu	zero,ra,1d54 <test_24+0x18>
    1d44:	00108093          	addi	ra,ra,1
    1d48:	00108093          	addi	ra,ra,1
    1d4c:	00108093          	addi	ra,ra,1
    1d50:	00108093          	addi	ra,ra,1
    1d54:	00108093          	addi	ra,ra,1
    1d58:	00108093          	addi	ra,ra,1
    1d5c:	00300e93          	li	t4,3
    1d60:	01800e13          	li	t3,24
    1d64:	01d09463          	bne	ra,t4,1d6c <fail>
    1d68:	03c01e63          	bne	zero,t3,1da4 <pass>

00001d6c <fail>:
    1d6c:	10000537          	lui	a0,0x10000
    1d70:	04500593          	li	a1,69
    1d74:	05200613          	li	a2,82
    1d78:	04f00693          	li	a3,79
    1d7c:	00a00713          	li	a4,10
    1d80:	030e0793          	addi	a5,t3,48
    1d84:	00b52023          	sw	a1,0(a0) # 10000000 <end+0xfff6780>
    1d88:	00c52023          	sw	a2,0(a0)
    1d8c:	00c52023          	sw	a2,0(a0)
    1d90:	00d52023          	sw	a3,0(a0)
    1d94:	00c52023          	sw	a2,0(a0)
    1d98:	00f52023          	sw	a5,0(a0)
    1d9c:	00e52023          	sw	a4,0(a0)
    1da0:	00100073          	ebreak

00001da4 <pass>:
    1da4:	10000537          	lui	a0,0x10000
    1da8:	04f00593          	li	a1,79
    1dac:	04b00613          	li	a2,75
    1db0:	00a00693          	li	a3,10
    1db4:	00b52023          	sw	a1,0(a0) # 10000000 <end+0xfff6780>
    1db8:	00c52023          	sw	a2,0(a0)
    1dbc:	00d52023          	sw	a3,0(a0)
    1dc0:	b14fe06f          	j	d4 <bgeu_ret>

00001dc4 <blt>:
    1dc4:	00002537          	lui	a0,0x2
    1dc8:	de450513          	addi	a0,a0,-540 # 1de4 <.test_name>
    1dcc:	10000637          	lui	a2,0x10000

00001dd0 <.prname_next>:
    1dd0:	00050583          	lb	a1,0(a0)
    1dd4:	00058a63          	beqz	a1,1de8 <.prname_done>
    1dd8:	00b62023          	sw	a1,0(a2) # 10000000 <end+0xfff6780>
    1ddc:	00150513          	addi	a0,a0,1
    1de0:	ff1ff06f          	j	1dd0 <.prname_next>

00001de4 <.test_name>:
    1de4:	6c62                	flw	fs8,24(sp)
    1de6:	0074                	addi	a3,sp,12

00001de8 <.prname_done>:
    1de8:	02e00593          	li	a1,46
    1dec:	00b62023          	sw	a1,0(a2)
    1df0:	00b62023          	sw	a1,0(a2)

00001df4 <test_2>:
    1df4:	00200e13          	li	t3,2
    1df8:	00000093          	li	ra,0
    1dfc:	00100113          	li	sp,1
    1e00:	0020c663          	blt	ra,sp,1e0c <test_2+0x18>
    1e04:	2bc01863          	bne	zero,t3,20b4 <fail>
    1e08:	01c01663          	bne	zero,t3,1e14 <test_3>
    1e0c:	fe20cee3          	blt	ra,sp,1e08 <test_2+0x14>
    1e10:	2bc01263          	bne	zero,t3,20b4 <fail>

00001e14 <test_3>:
    1e14:	00300e13          	li	t3,3
    1e18:	fff00093          	li	ra,-1
    1e1c:	00100113          	li	sp,1
    1e20:	0020c663          	blt	ra,sp,1e2c <test_3+0x18>
    1e24:	29c01863          	bne	zero,t3,20b4 <fail>
    1e28:	01c01663          	bne	zero,t3,1e34 <test_4>
    1e2c:	fe20cee3          	blt	ra,sp,1e28 <test_3+0x14>
    1e30:	29c01263          	bne	zero,t3,20b4 <fail>

00001e34 <test_4>:
    1e34:	00400e13          	li	t3,4
    1e38:	ffe00093          	li	ra,-2
    1e3c:	fff00113          	li	sp,-1
    1e40:	0020c663          	blt	ra,sp,1e4c <test_4+0x18>
    1e44:	27c01863          	bne	zero,t3,20b4 <fail>
    1e48:	01c01663          	bne	zero,t3,1e54 <test_5>
    1e4c:	fe20cee3          	blt	ra,sp,1e48 <test_4+0x14>
    1e50:	27c01263          	bne	zero,t3,20b4 <fail>

00001e54 <test_5>:
    1e54:	00500e13          	li	t3,5
    1e58:	00100093          	li	ra,1
    1e5c:	00000113          	li	sp,0
    1e60:	0020c463          	blt	ra,sp,1e68 <test_5+0x14>
    1e64:	01c01463          	bne	zero,t3,1e6c <test_5+0x18>
    1e68:	25c01663          	bne	zero,t3,20b4 <fail>
    1e6c:	fe20cee3          	blt	ra,sp,1e68 <test_5+0x14>

00001e70 <test_6>:
    1e70:	00600e13          	li	t3,6
    1e74:	00100093          	li	ra,1
    1e78:	fff00113          	li	sp,-1
    1e7c:	0020c463          	blt	ra,sp,1e84 <test_6+0x14>
    1e80:	01c01463          	bne	zero,t3,1e88 <test_6+0x18>
    1e84:	23c01863          	bne	zero,t3,20b4 <fail>
    1e88:	fe20cee3          	blt	ra,sp,1e84 <test_6+0x14>

00001e8c <test_7>:
    1e8c:	00700e13          	li	t3,7
    1e90:	fff00093          	li	ra,-1
    1e94:	ffe00113          	li	sp,-2
    1e98:	0020c463          	blt	ra,sp,1ea0 <test_7+0x14>
    1e9c:	01c01463          	bne	zero,t3,1ea4 <test_7+0x18>
    1ea0:	21c01a63          	bne	zero,t3,20b4 <fail>
    1ea4:	fe20cee3          	blt	ra,sp,1ea0 <test_7+0x14>

00001ea8 <test_8>:
    1ea8:	00800e13          	li	t3,8
    1eac:	00100093          	li	ra,1
    1eb0:	ffe00113          	li	sp,-2
    1eb4:	0020c463          	blt	ra,sp,1ebc <test_8+0x14>
    1eb8:	01c01463          	bne	zero,t3,1ec0 <test_8+0x18>
    1ebc:	1fc01c63          	bne	zero,t3,20b4 <fail>
    1ec0:	fe20cee3          	blt	ra,sp,1ebc <test_8+0x14>

00001ec4 <test_9>:
    1ec4:	00900e13          	li	t3,9
    1ec8:	00000213          	li	tp,0
    1ecc:	00000093          	li	ra,0
    1ed0:	fff00113          	li	sp,-1
    1ed4:	1e20c063          	blt	ra,sp,20b4 <fail>
    1ed8:	00120213          	addi	tp,tp,1 # 1 <reset_vec+0x1>
    1edc:	00200293          	li	t0,2
    1ee0:	fe5216e3          	bne	tp,t0,1ecc <test_9+0x8>

00001ee4 <test_10>:
    1ee4:	00a00e13          	li	t3,10
    1ee8:	00000213          	li	tp,0
    1eec:	00000093          	li	ra,0
    1ef0:	fff00113          	li	sp,-1
    1ef4:	00000013          	nop
    1ef8:	1a20ce63          	blt	ra,sp,20b4 <fail>
    1efc:	00120213          	addi	tp,tp,1 # 1 <reset_vec+0x1>
    1f00:	00200293          	li	t0,2
    1f04:	fe5214e3          	bne	tp,t0,1eec <test_10+0x8>

00001f08 <test_11>:
    1f08:	00b00e13          	li	t3,11
    1f0c:	00000213          	li	tp,0
    1f10:	00000093          	li	ra,0
    1f14:	fff00113          	li	sp,-1
    1f18:	00000013          	nop
    1f1c:	00000013          	nop
    1f20:	1820ca63          	blt	ra,sp,20b4 <fail>
    1f24:	00120213          	addi	tp,tp,1 # 1 <reset_vec+0x1>
    1f28:	00200293          	li	t0,2
    1f2c:	fe5212e3          	bne	tp,t0,1f10 <test_11+0x8>

00001f30 <test_12>:
    1f30:	00c00e13          	li	t3,12
    1f34:	00000213          	li	tp,0
    1f38:	00000093          	li	ra,0
    1f3c:	00000013          	nop
    1f40:	fff00113          	li	sp,-1
    1f44:	1620c863          	blt	ra,sp,20b4 <fail>
    1f48:	00120213          	addi	tp,tp,1 # 1 <reset_vec+0x1>
    1f4c:	00200293          	li	t0,2
    1f50:	fe5214e3          	bne	tp,t0,1f38 <test_12+0x8>

00001f54 <test_13>:
    1f54:	00d00e13          	li	t3,13
    1f58:	00000213          	li	tp,0
    1f5c:	00000093          	li	ra,0
    1f60:	00000013          	nop
    1f64:	fff00113          	li	sp,-1
    1f68:	00000013          	nop
    1f6c:	1420c463          	blt	ra,sp,20b4 <fail>
    1f70:	00120213          	addi	tp,tp,1 # 1 <reset_vec+0x1>
    1f74:	00200293          	li	t0,2
    1f78:	fe5212e3          	bne	tp,t0,1f5c <test_13+0x8>

00001f7c <test_14>:
    1f7c:	00e00e13          	li	t3,14
    1f80:	00000213          	li	tp,0
    1f84:	00000093          	li	ra,0
    1f88:	00000013          	nop
    1f8c:	00000013          	nop
    1f90:	fff00113          	li	sp,-1
    1f94:	1220c063          	blt	ra,sp,20b4 <fail>
    1f98:	00120213          	addi	tp,tp,1 # 1 <reset_vec+0x1>
    1f9c:	00200293          	li	t0,2
    1fa0:	fe5212e3          	bne	tp,t0,1f84 <test_14+0x8>

00001fa4 <test_15>:
    1fa4:	00f00e13          	li	t3,15
    1fa8:	00000213          	li	tp,0
    1fac:	00000093          	li	ra,0
    1fb0:	fff00113          	li	sp,-1
    1fb4:	1020c063          	blt	ra,sp,20b4 <fail>
    1fb8:	00120213          	addi	tp,tp,1 # 1 <reset_vec+0x1>
    1fbc:	00200293          	li	t0,2
    1fc0:	fe5216e3          	bne	tp,t0,1fac <test_15+0x8>

00001fc4 <test_16>:
    1fc4:	01000e13          	li	t3,16
    1fc8:	00000213          	li	tp,0
    1fcc:	00000093          	li	ra,0
    1fd0:	fff00113          	li	sp,-1
    1fd4:	00000013          	nop
    1fd8:	0c20ce63          	blt	ra,sp,20b4 <fail>
    1fdc:	00120213          	addi	tp,tp,1 # 1 <reset_vec+0x1>
    1fe0:	00200293          	li	t0,2
    1fe4:	fe5214e3          	bne	tp,t0,1fcc <test_16+0x8>

00001fe8 <test_17>:
    1fe8:	01100e13          	li	t3,17
    1fec:	00000213          	li	tp,0
    1ff0:	00000093          	li	ra,0
    1ff4:	fff00113          	li	sp,-1
    1ff8:	00000013          	nop
    1ffc:	00000013          	nop
    2000:	0a20ca63          	blt	ra,sp,20b4 <fail>
    2004:	00120213          	addi	tp,tp,1 # 1 <reset_vec+0x1>
    2008:	00200293          	li	t0,2
    200c:	fe5212e3          	bne	tp,t0,1ff0 <test_17+0x8>

00002010 <test_18>:
    2010:	01200e13          	li	t3,18
    2014:	00000213          	li	tp,0
    2018:	00000093          	li	ra,0
    201c:	00000013          	nop
    2020:	fff00113          	li	sp,-1
    2024:	0820c863          	blt	ra,sp,20b4 <fail>
    2028:	00120213          	addi	tp,tp,1 # 1 <reset_vec+0x1>
    202c:	00200293          	li	t0,2
    2030:	fe5214e3          	bne	tp,t0,2018 <test_18+0x8>

00002034 <test_19>:
    2034:	01300e13          	li	t3,19
    2038:	00000213          	li	tp,0
    203c:	00000093          	li	ra,0
    2040:	00000013          	nop
    2044:	fff00113          	li	sp,-1
    2048:	00000013          	nop
    204c:	0620c463          	blt	ra,sp,20b4 <fail>
    2050:	00120213          	addi	tp,tp,1 # 1 <reset_vec+0x1>
    2054:	00200293          	li	t0,2
    2058:	fe5212e3          	bne	tp,t0,203c <test_19+0x8>

0000205c <test_20>:
    205c:	01400e13          	li	t3,20
    2060:	00000213          	li	tp,0
    2064:	00000093          	li	ra,0
    2068:	00000013          	nop
    206c:	00000013          	nop
    2070:	fff00113          	li	sp,-1
    2074:	0420c063          	blt	ra,sp,20b4 <fail>
    2078:	00120213          	addi	tp,tp,1 # 1 <reset_vec+0x1>
    207c:	00200293          	li	t0,2
    2080:	fe5212e3          	bne	tp,t0,2064 <test_20+0x8>

00002084 <test_21>:
    2084:	00100093          	li	ra,1
    2088:	00104a63          	bgtz	ra,209c <test_21+0x18>
    208c:	00108093          	addi	ra,ra,1
    2090:	00108093          	addi	ra,ra,1
    2094:	00108093          	addi	ra,ra,1
    2098:	00108093          	addi	ra,ra,1
    209c:	00108093          	addi	ra,ra,1
    20a0:	00108093          	addi	ra,ra,1
    20a4:	00300e93          	li	t4,3
    20a8:	01500e13          	li	t3,21
    20ac:	01d09463          	bne	ra,t4,20b4 <fail>
    20b0:	03c01e63          	bne	zero,t3,20ec <pass>

000020b4 <fail>:
    20b4:	10000537          	lui	a0,0x10000
    20b8:	04500593          	li	a1,69
    20bc:	05200613          	li	a2,82
    20c0:	04f00693          	li	a3,79
    20c4:	00a00713          	li	a4,10
    20c8:	030e0793          	addi	a5,t3,48
    20cc:	00b52023          	sw	a1,0(a0) # 10000000 <end+0xfff6780>
    20d0:	00c52023          	sw	a2,0(a0)
    20d4:	00c52023          	sw	a2,0(a0)
    20d8:	00d52023          	sw	a3,0(a0)
    20dc:	00c52023          	sw	a2,0(a0)
    20e0:	00f52023          	sw	a5,0(a0)
    20e4:	00e52023          	sw	a4,0(a0)
    20e8:	00100073          	ebreak

000020ec <pass>:
    20ec:	10000537          	lui	a0,0x10000
    20f0:	04f00593          	li	a1,79
    20f4:	04b00613          	li	a2,75
    20f8:	00a00693          	li	a3,10
    20fc:	00b52023          	sw	a1,0(a0) # 10000000 <end+0xfff6780>
    2100:	00c52023          	sw	a2,0(a0)
    2104:	00d52023          	sw	a3,0(a0)
    2108:	fb5fd06f          	j	bc <blt_ret>

0000210c <bltu>:
    210c:	00002537          	lui	a0,0x2
    2110:	12c50513          	addi	a0,a0,300 # 212c <.test_name>
    2114:	10000637          	lui	a2,0x10000

00002118 <.prname_next>:
    2118:	00050583          	lb	a1,0(a0)
    211c:	00058c63          	beqz	a1,2134 <.prname_done>
    2120:	00b62023          	sw	a1,0(a2) # 10000000 <end+0xfff6780>
    2124:	00150513          	addi	a0,a0,1
    2128:	ff1ff06f          	j	2118 <.prname_next>

0000212c <.test_name>:
    212c:	6c62                	flw	fs8,24(sp)
    212e:	7574                	flw	fa3,108(a0)
    2130:	0000                	unimp
	...

00002134 <.prname_done>:
    2134:	02e00593          	li	a1,46
    2138:	00b62023          	sw	a1,0(a2)
    213c:	00b62023          	sw	a1,0(a2)

00002140 <test_2>:
    2140:	00200e13          	li	t3,2
    2144:	00000093          	li	ra,0
    2148:	00100113          	li	sp,1
    214c:	0020e663          	bltu	ra,sp,2158 <test_2+0x18>
    2150:	2fc01263          	bne	zero,t3,2434 <fail>
    2154:	01c01663          	bne	zero,t3,2160 <test_3>
    2158:	fe20eee3          	bltu	ra,sp,2154 <test_2+0x14>
    215c:	2dc01c63          	bne	zero,t3,2434 <fail>

00002160 <test_3>:
    2160:	00300e13          	li	t3,3
    2164:	ffe00093          	li	ra,-2
    2168:	fff00113          	li	sp,-1
    216c:	0020e663          	bltu	ra,sp,2178 <test_3+0x18>
    2170:	2dc01263          	bne	zero,t3,2434 <fail>
    2174:	01c01663          	bne	zero,t3,2180 <test_4>
    2178:	fe20eee3          	bltu	ra,sp,2174 <test_3+0x14>
    217c:	2bc01c63          	bne	zero,t3,2434 <fail>

00002180 <test_4>:
    2180:	00400e13          	li	t3,4
    2184:	00000093          	li	ra,0
    2188:	fff00113          	li	sp,-1
    218c:	0020e663          	bltu	ra,sp,2198 <test_4+0x18>
    2190:	2bc01263          	bne	zero,t3,2434 <fail>
    2194:	01c01663          	bne	zero,t3,21a0 <test_5>
    2198:	fe20eee3          	bltu	ra,sp,2194 <test_4+0x14>
    219c:	29c01c63          	bne	zero,t3,2434 <fail>

000021a0 <test_5>:
    21a0:	00500e13          	li	t3,5
    21a4:	00100093          	li	ra,1
    21a8:	00000113          	li	sp,0
    21ac:	0020e463          	bltu	ra,sp,21b4 <test_5+0x14>
    21b0:	01c01463          	bne	zero,t3,21b8 <test_5+0x18>
    21b4:	29c01063          	bne	zero,t3,2434 <fail>
    21b8:	fe20eee3          	bltu	ra,sp,21b4 <test_5+0x14>

000021bc <test_6>:
    21bc:	00600e13          	li	t3,6
    21c0:	fff00093          	li	ra,-1
    21c4:	ffe00113          	li	sp,-2
    21c8:	0020e463          	bltu	ra,sp,21d0 <test_6+0x14>
    21cc:	01c01463          	bne	zero,t3,21d4 <test_6+0x18>
    21d0:	27c01263          	bne	zero,t3,2434 <fail>
    21d4:	fe20eee3          	bltu	ra,sp,21d0 <test_6+0x14>

000021d8 <test_7>:
    21d8:	00700e13          	li	t3,7
    21dc:	fff00093          	li	ra,-1
    21e0:	00000113          	li	sp,0
    21e4:	0020e463          	bltu	ra,sp,21ec <test_7+0x14>
    21e8:	01c01463          	bne	zero,t3,21f0 <test_7+0x18>
    21ec:	25c01463          	bne	zero,t3,2434 <fail>
    21f0:	fe20eee3          	bltu	ra,sp,21ec <test_7+0x14>

000021f4 <test_8>:
    21f4:	00800e13          	li	t3,8
    21f8:	800000b7          	lui	ra,0x80000
    21fc:	80000137          	lui	sp,0x80000
    2200:	fff10113          	addi	sp,sp,-1 # 7fffffff <pulp__FC+0x80000000>
    2204:	0020e463          	bltu	ra,sp,220c <test_8+0x18>
    2208:	01c01463          	bne	zero,t3,2210 <test_8+0x1c>
    220c:	23c01463          	bne	zero,t3,2434 <fail>
    2210:	fe20eee3          	bltu	ra,sp,220c <test_8+0x18>

00002214 <test_9>:
    2214:	00900e13          	li	t3,9
    2218:	00000213          	li	tp,0
    221c:	f00000b7          	lui	ra,0xf0000
    2220:	f0000137          	lui	sp,0xf0000
    2224:	fff10113          	addi	sp,sp,-1 # efffffff <pulp__FC+0xf0000000>
    2228:	2020e663          	bltu	ra,sp,2434 <fail>
    222c:	00120213          	addi	tp,tp,1 # 1 <reset_vec+0x1>
    2230:	00200293          	li	t0,2
    2234:	fe5214e3          	bne	tp,t0,221c <test_9+0x8>

00002238 <test_10>:
    2238:	00a00e13          	li	t3,10
    223c:	00000213          	li	tp,0
    2240:	f00000b7          	lui	ra,0xf0000
    2244:	f0000137          	lui	sp,0xf0000
    2248:	fff10113          	addi	sp,sp,-1 # efffffff <pulp__FC+0xf0000000>
    224c:	00000013          	nop
    2250:	1e20e263          	bltu	ra,sp,2434 <fail>
    2254:	00120213          	addi	tp,tp,1 # 1 <reset_vec+0x1>
    2258:	00200293          	li	t0,2
    225c:	fe5212e3          	bne	tp,t0,2240 <test_10+0x8>

00002260 <test_11>:
    2260:	00b00e13          	li	t3,11
    2264:	00000213          	li	tp,0
    2268:	f00000b7          	lui	ra,0xf0000
    226c:	f0000137          	lui	sp,0xf0000
    2270:	fff10113          	addi	sp,sp,-1 # efffffff <pulp__FC+0xf0000000>
    2274:	00000013          	nop
    2278:	00000013          	nop
    227c:	1a20ec63          	bltu	ra,sp,2434 <fail>
    2280:	00120213          	addi	tp,tp,1 # 1 <reset_vec+0x1>
    2284:	00200293          	li	t0,2
    2288:	fe5210e3          	bne	tp,t0,2268 <test_11+0x8>

0000228c <test_12>:
    228c:	00c00e13          	li	t3,12
    2290:	00000213          	li	tp,0
    2294:	f00000b7          	lui	ra,0xf0000
    2298:	00000013          	nop
    229c:	f0000137          	lui	sp,0xf0000
    22a0:	fff10113          	addi	sp,sp,-1 # efffffff <pulp__FC+0xf0000000>
    22a4:	1820e863          	bltu	ra,sp,2434 <fail>
    22a8:	00120213          	addi	tp,tp,1 # 1 <reset_vec+0x1>
    22ac:	00200293          	li	t0,2
    22b0:	fe5212e3          	bne	tp,t0,2294 <test_12+0x8>

000022b4 <test_13>:
    22b4:	00d00e13          	li	t3,13
    22b8:	00000213          	li	tp,0
    22bc:	f00000b7          	lui	ra,0xf0000
    22c0:	00000013          	nop
    22c4:	f0000137          	lui	sp,0xf0000
    22c8:	fff10113          	addi	sp,sp,-1 # efffffff <pulp__FC+0xf0000000>
    22cc:	00000013          	nop
    22d0:	1620e263          	bltu	ra,sp,2434 <fail>
    22d4:	00120213          	addi	tp,tp,1 # 1 <reset_vec+0x1>
    22d8:	00200293          	li	t0,2
    22dc:	fe5210e3          	bne	tp,t0,22bc <test_13+0x8>

000022e0 <test_14>:
    22e0:	00e00e13          	li	t3,14
    22e4:	00000213          	li	tp,0
    22e8:	f00000b7          	lui	ra,0xf0000
    22ec:	00000013          	nop
    22f0:	00000013          	nop
    22f4:	f0000137          	lui	sp,0xf0000
    22f8:	fff10113          	addi	sp,sp,-1 # efffffff <pulp__FC+0xf0000000>
    22fc:	1220ec63          	bltu	ra,sp,2434 <fail>
    2300:	00120213          	addi	tp,tp,1 # 1 <reset_vec+0x1>
    2304:	00200293          	li	t0,2
    2308:	fe5210e3          	bne	tp,t0,22e8 <test_14+0x8>

0000230c <test_15>:
    230c:	00f00e13          	li	t3,15
    2310:	00000213          	li	tp,0
    2314:	f00000b7          	lui	ra,0xf0000
    2318:	f0000137          	lui	sp,0xf0000
    231c:	fff10113          	addi	sp,sp,-1 # efffffff <pulp__FC+0xf0000000>
    2320:	1020ea63          	bltu	ra,sp,2434 <fail>
    2324:	00120213          	addi	tp,tp,1 # 1 <reset_vec+0x1>
    2328:	00200293          	li	t0,2
    232c:	fe5214e3          	bne	tp,t0,2314 <test_15+0x8>

00002330 <test_16>:
    2330:	01000e13          	li	t3,16
    2334:	00000213          	li	tp,0
    2338:	f00000b7          	lui	ra,0xf0000
    233c:	f0000137          	lui	sp,0xf0000
    2340:	fff10113          	addi	sp,sp,-1 # efffffff <pulp__FC+0xf0000000>
    2344:	00000013          	nop
    2348:	0e20e663          	bltu	ra,sp,2434 <fail>
    234c:	00120213          	addi	tp,tp,1 # 1 <reset_vec+0x1>
    2350:	00200293          	li	t0,2
    2354:	fe5212e3          	bne	tp,t0,2338 <test_16+0x8>

00002358 <test_17>:
    2358:	01100e13          	li	t3,17
    235c:	00000213          	li	tp,0
    2360:	f00000b7          	lui	ra,0xf0000
    2364:	f0000137          	lui	sp,0xf0000
    2368:	fff10113          	addi	sp,sp,-1 # efffffff <pulp__FC+0xf0000000>
    236c:	00000013          	nop
    2370:	00000013          	nop
    2374:	0c20e063          	bltu	ra,sp,2434 <fail>
    2378:	00120213          	addi	tp,tp,1 # 1 <reset_vec+0x1>
    237c:	00200293          	li	t0,2
    2380:	fe5210e3          	bne	tp,t0,2360 <test_17+0x8>

00002384 <test_18>:
    2384:	01200e13          	li	t3,18
    2388:	00000213          	li	tp,0
    238c:	f00000b7          	lui	ra,0xf0000
    2390:	00000013          	nop
    2394:	f0000137          	lui	sp,0xf0000
    2398:	fff10113          	addi	sp,sp,-1 # efffffff <pulp__FC+0xf0000000>
    239c:	0820ec63          	bltu	ra,sp,2434 <fail>
    23a0:	00120213          	addi	tp,tp,1 # 1 <reset_vec+0x1>
    23a4:	00200293          	li	t0,2
    23a8:	fe5212e3          	bne	tp,t0,238c <test_18+0x8>

000023ac <test_19>:
    23ac:	01300e13          	li	t3,19
    23b0:	00000213          	li	tp,0
    23b4:	f00000b7          	lui	ra,0xf0000
    23b8:	00000013          	nop
    23bc:	f0000137          	lui	sp,0xf0000
    23c0:	fff10113          	addi	sp,sp,-1 # efffffff <pulp__FC+0xf0000000>
    23c4:	00000013          	nop
    23c8:	0620e663          	bltu	ra,sp,2434 <fail>
    23cc:	00120213          	addi	tp,tp,1 # 1 <reset_vec+0x1>
    23d0:	00200293          	li	t0,2
    23d4:	fe5210e3          	bne	tp,t0,23b4 <test_19+0x8>

000023d8 <test_20>:
    23d8:	01400e13          	li	t3,20
    23dc:	00000213          	li	tp,0
    23e0:	f00000b7          	lui	ra,0xf0000
    23e4:	00000013          	nop
    23e8:	00000013          	nop
    23ec:	f0000137          	lui	sp,0xf0000
    23f0:	fff10113          	addi	sp,sp,-1 # efffffff <pulp__FC+0xf0000000>
    23f4:	0420e063          	bltu	ra,sp,2434 <fail>
    23f8:	00120213          	addi	tp,tp,1 # 1 <reset_vec+0x1>
    23fc:	00200293          	li	t0,2
    2400:	fe5210e3          	bne	tp,t0,23e0 <test_20+0x8>

00002404 <test_21>:
    2404:	00100093          	li	ra,1
    2408:	00106a63          	bltu	zero,ra,241c <test_21+0x18>
    240c:	00108093          	addi	ra,ra,1 # f0000001 <pulp__FC+0xf0000002>
    2410:	00108093          	addi	ra,ra,1
    2414:	00108093          	addi	ra,ra,1
    2418:	00108093          	addi	ra,ra,1
    241c:	00108093          	addi	ra,ra,1
    2420:	00108093          	addi	ra,ra,1
    2424:	00300e93          	li	t4,3
    2428:	01500e13          	li	t3,21
    242c:	01d09463          	bne	ra,t4,2434 <fail>
    2430:	03c01e63          	bne	zero,t3,246c <pass>

00002434 <fail>:
    2434:	10000537          	lui	a0,0x10000
    2438:	04500593          	li	a1,69
    243c:	05200613          	li	a2,82
    2440:	04f00693          	li	a3,79
    2444:	00a00713          	li	a4,10
    2448:	030e0793          	addi	a5,t3,48
    244c:	00b52023          	sw	a1,0(a0) # 10000000 <end+0xfff6780>
    2450:	00c52023          	sw	a2,0(a0)
    2454:	00c52023          	sw	a2,0(a0)
    2458:	00d52023          	sw	a3,0(a0)
    245c:	00c52023          	sw	a2,0(a0)
    2460:	00f52023          	sw	a5,0(a0)
    2464:	00e52023          	sw	a4,0(a0)
    2468:	00100073          	ebreak

0000246c <pass>:
    246c:	10000537          	lui	a0,0x10000
    2470:	04f00593          	li	a1,79
    2474:	04b00613          	li	a2,75
    2478:	00a00693          	li	a3,10
    247c:	00b52023          	sw	a1,0(a0) # 10000000 <end+0xfff6780>
    2480:	00c52023          	sw	a2,0(a0)
    2484:	00d52023          	sw	a3,0(a0)
    2488:	c45fd06f          	j	cc <bltu_ret>

0000248c <bne>:
    248c:	00002537          	lui	a0,0x2
    2490:	4ac50513          	addi	a0,a0,1196 # 24ac <.test_name>
    2494:	10000637          	lui	a2,0x10000

00002498 <.prname_next>:
    2498:	00050583          	lb	a1,0(a0)
    249c:	00058a63          	beqz	a1,24b0 <.prname_done>
    24a0:	00b62023          	sw	a1,0(a2) # 10000000 <end+0xfff6780>
    24a4:	00150513          	addi	a0,a0,1
    24a8:	ff1ff06f          	j	2498 <.prname_next>

000024ac <.test_name>:
    24ac:	6e62                	flw	ft8,24(sp)
    24ae:	0065                	c.addi	zero,25

000024b0 <.prname_done>:
    24b0:	02e00593          	li	a1,46
    24b4:	00b62023          	sw	a1,0(a2)
    24b8:	00b62023          	sw	a1,0(a2)

000024bc <test_2>:
    24bc:	00200e13          	li	t3,2
    24c0:	00000093          	li	ra,0
    24c4:	00100113          	li	sp,1
    24c8:	00209663          	bne	ra,sp,24d4 <test_2+0x18>
    24cc:	2bc01a63          	bne	zero,t3,2780 <fail>
    24d0:	01c01663          	bne	zero,t3,24dc <test_3>
    24d4:	fe209ee3          	bne	ra,sp,24d0 <test_2+0x14>
    24d8:	2bc01463          	bne	zero,t3,2780 <fail>

000024dc <test_3>:
    24dc:	00300e13          	li	t3,3
    24e0:	00100093          	li	ra,1
    24e4:	00000113          	li	sp,0
    24e8:	00209663          	bne	ra,sp,24f4 <test_3+0x18>
    24ec:	29c01a63          	bne	zero,t3,2780 <fail>
    24f0:	01c01663          	bne	zero,t3,24fc <test_4>
    24f4:	fe209ee3          	bne	ra,sp,24f0 <test_3+0x14>
    24f8:	29c01463          	bne	zero,t3,2780 <fail>

000024fc <test_4>:
    24fc:	00400e13          	li	t3,4
    2500:	fff00093          	li	ra,-1
    2504:	00100113          	li	sp,1
    2508:	00209663          	bne	ra,sp,2514 <test_4+0x18>
    250c:	27c01a63          	bne	zero,t3,2780 <fail>
    2510:	01c01663          	bne	zero,t3,251c <test_5>
    2514:	fe209ee3          	bne	ra,sp,2510 <test_4+0x14>
    2518:	27c01463          	bne	zero,t3,2780 <fail>

0000251c <test_5>:
    251c:	00500e13          	li	t3,5
    2520:	00100093          	li	ra,1
    2524:	fff00113          	li	sp,-1
    2528:	00209663          	bne	ra,sp,2534 <test_5+0x18>
    252c:	25c01a63          	bne	zero,t3,2780 <fail>
    2530:	01c01663          	bne	zero,t3,253c <test_6>
    2534:	fe209ee3          	bne	ra,sp,2530 <test_5+0x14>
    2538:	25c01463          	bne	zero,t3,2780 <fail>

0000253c <test_6>:
    253c:	00600e13          	li	t3,6
    2540:	00000093          	li	ra,0
    2544:	00000113          	li	sp,0
    2548:	00209463          	bne	ra,sp,2550 <test_6+0x14>
    254c:	01c01463          	bne	zero,t3,2554 <test_6+0x18>
    2550:	23c01863          	bne	zero,t3,2780 <fail>
    2554:	fe209ee3          	bne	ra,sp,2550 <test_6+0x14>

00002558 <test_7>:
    2558:	00700e13          	li	t3,7
    255c:	00100093          	li	ra,1
    2560:	00100113          	li	sp,1
    2564:	00209463          	bne	ra,sp,256c <test_7+0x14>
    2568:	01c01463          	bne	zero,t3,2570 <test_7+0x18>
    256c:	21c01a63          	bne	zero,t3,2780 <fail>
    2570:	fe209ee3          	bne	ra,sp,256c <test_7+0x14>

00002574 <test_8>:
    2574:	00800e13          	li	t3,8
    2578:	fff00093          	li	ra,-1
    257c:	fff00113          	li	sp,-1
    2580:	00209463          	bne	ra,sp,2588 <test_8+0x14>
    2584:	01c01463          	bne	zero,t3,258c <test_8+0x18>
    2588:	1fc01c63          	bne	zero,t3,2780 <fail>
    258c:	fe209ee3          	bne	ra,sp,2588 <test_8+0x14>

00002590 <test_9>:
    2590:	00900e13          	li	t3,9
    2594:	00000213          	li	tp,0
    2598:	00000093          	li	ra,0
    259c:	00000113          	li	sp,0
    25a0:	1e209063          	bne	ra,sp,2780 <fail>
    25a4:	00120213          	addi	tp,tp,1 # 1 <reset_vec+0x1>
    25a8:	00200293          	li	t0,2
    25ac:	fe5216e3          	bne	tp,t0,2598 <test_9+0x8>

000025b0 <test_10>:
    25b0:	00a00e13          	li	t3,10
    25b4:	00000213          	li	tp,0
    25b8:	00000093          	li	ra,0
    25bc:	00000113          	li	sp,0
    25c0:	00000013          	nop
    25c4:	1a209e63          	bne	ra,sp,2780 <fail>
    25c8:	00120213          	addi	tp,tp,1 # 1 <reset_vec+0x1>
    25cc:	00200293          	li	t0,2
    25d0:	fe5214e3          	bne	tp,t0,25b8 <test_10+0x8>

000025d4 <test_11>:
    25d4:	00b00e13          	li	t3,11
    25d8:	00000213          	li	tp,0
    25dc:	00000093          	li	ra,0
    25e0:	00000113          	li	sp,0
    25e4:	00000013          	nop
    25e8:	00000013          	nop
    25ec:	18209a63          	bne	ra,sp,2780 <fail>
    25f0:	00120213          	addi	tp,tp,1 # 1 <reset_vec+0x1>
    25f4:	00200293          	li	t0,2
    25f8:	fe5212e3          	bne	tp,t0,25dc <test_11+0x8>

000025fc <test_12>:
    25fc:	00c00e13          	li	t3,12
    2600:	00000213          	li	tp,0
    2604:	00000093          	li	ra,0
    2608:	00000013          	nop
    260c:	00000113          	li	sp,0
    2610:	16209863          	bne	ra,sp,2780 <fail>
    2614:	00120213          	addi	tp,tp,1 # 1 <reset_vec+0x1>
    2618:	00200293          	li	t0,2
    261c:	fe5214e3          	bne	tp,t0,2604 <test_12+0x8>

00002620 <test_13>:
    2620:	00d00e13          	li	t3,13
    2624:	00000213          	li	tp,0
    2628:	00000093          	li	ra,0
    262c:	00000013          	nop
    2630:	00000113          	li	sp,0
    2634:	00000013          	nop
    2638:	14209463          	bne	ra,sp,2780 <fail>
    263c:	00120213          	addi	tp,tp,1 # 1 <reset_vec+0x1>
    2640:	00200293          	li	t0,2
    2644:	fe5212e3          	bne	tp,t0,2628 <test_13+0x8>

00002648 <test_14>:
    2648:	00e00e13          	li	t3,14
    264c:	00000213          	li	tp,0
    2650:	00000093          	li	ra,0
    2654:	00000013          	nop
    2658:	00000013          	nop
    265c:	00000113          	li	sp,0
    2660:	12209063          	bne	ra,sp,2780 <fail>
    2664:	00120213          	addi	tp,tp,1 # 1 <reset_vec+0x1>
    2668:	00200293          	li	t0,2
    266c:	fe5212e3          	bne	tp,t0,2650 <test_14+0x8>

00002670 <test_15>:
    2670:	00f00e13          	li	t3,15
    2674:	00000213          	li	tp,0
    2678:	00000093          	li	ra,0
    267c:	00000113          	li	sp,0
    2680:	10209063          	bne	ra,sp,2780 <fail>
    2684:	00120213          	addi	tp,tp,1 # 1 <reset_vec+0x1>
    2688:	00200293          	li	t0,2
    268c:	fe5216e3          	bne	tp,t0,2678 <test_15+0x8>

00002690 <test_16>:
    2690:	01000e13          	li	t3,16
    2694:	00000213          	li	tp,0
    2698:	00000093          	li	ra,0
    269c:	00000113          	li	sp,0
    26a0:	00000013          	nop
    26a4:	0c209e63          	bne	ra,sp,2780 <fail>
    26a8:	00120213          	addi	tp,tp,1 # 1 <reset_vec+0x1>
    26ac:	00200293          	li	t0,2
    26b0:	fe5214e3          	bne	tp,t0,2698 <test_16+0x8>

000026b4 <test_17>:
    26b4:	01100e13          	li	t3,17
    26b8:	00000213          	li	tp,0
    26bc:	00000093          	li	ra,0
    26c0:	00000113          	li	sp,0
    26c4:	00000013          	nop
    26c8:	00000013          	nop
    26cc:	0a209a63          	bne	ra,sp,2780 <fail>
    26d0:	00120213          	addi	tp,tp,1 # 1 <reset_vec+0x1>
    26d4:	00200293          	li	t0,2
    26d8:	fe5212e3          	bne	tp,t0,26bc <test_17+0x8>

000026dc <test_18>:
    26dc:	01200e13          	li	t3,18
    26e0:	00000213          	li	tp,0
    26e4:	00000093          	li	ra,0
    26e8:	00000013          	nop
    26ec:	00000113          	li	sp,0
    26f0:	08209863          	bne	ra,sp,2780 <fail>
    26f4:	00120213          	addi	tp,tp,1 # 1 <reset_vec+0x1>
    26f8:	00200293          	li	t0,2
    26fc:	fe5214e3          	bne	tp,t0,26e4 <test_18+0x8>

00002700 <test_19>:
    2700:	01300e13          	li	t3,19
    2704:	00000213          	li	tp,0
    2708:	00000093          	li	ra,0
    270c:	00000013          	nop
    2710:	00000113          	li	sp,0
    2714:	00000013          	nop
    2718:	06209463          	bne	ra,sp,2780 <fail>
    271c:	00120213          	addi	tp,tp,1 # 1 <reset_vec+0x1>
    2720:	00200293          	li	t0,2
    2724:	fe5212e3          	bne	tp,t0,2708 <test_19+0x8>

00002728 <test_20>:
    2728:	01400e13          	li	t3,20
    272c:	00000213          	li	tp,0
    2730:	00000093          	li	ra,0
    2734:	00000013          	nop
    2738:	00000013          	nop
    273c:	00000113          	li	sp,0
    2740:	04209063          	bne	ra,sp,2780 <fail>
    2744:	00120213          	addi	tp,tp,1 # 1 <reset_vec+0x1>
    2748:	00200293          	li	t0,2
    274c:	fe5212e3          	bne	tp,t0,2730 <test_20+0x8>

00002750 <test_21>:
    2750:	00100093          	li	ra,1
    2754:	00009a63          	bnez	ra,2768 <test_21+0x18>
    2758:	00108093          	addi	ra,ra,1
    275c:	00108093          	addi	ra,ra,1
    2760:	00108093          	addi	ra,ra,1
    2764:	00108093          	addi	ra,ra,1
    2768:	00108093          	addi	ra,ra,1
    276c:	00108093          	addi	ra,ra,1
    2770:	00300e93          	li	t4,3
    2774:	01500e13          	li	t3,21
    2778:	01d09463          	bne	ra,t4,2780 <fail>
    277c:	03c01e63          	bne	zero,t3,27b8 <pass>

00002780 <fail>:
    2780:	10000537          	lui	a0,0x10000
    2784:	04500593          	li	a1,69
    2788:	05200613          	li	a2,82
    278c:	04f00693          	li	a3,79
    2790:	00a00713          	li	a4,10
    2794:	030e0793          	addi	a5,t3,48
    2798:	00b52023          	sw	a1,0(a0) # 10000000 <end+0xfff6780>
    279c:	00c52023          	sw	a2,0(a0)
    27a0:	00c52023          	sw	a2,0(a0)
    27a4:	00d52023          	sw	a3,0(a0)
    27a8:	00c52023          	sw	a2,0(a0)
    27ac:	00f52023          	sw	a5,0(a0)
    27b0:	00e52023          	sw	a4,0(a0)
    27b4:	00100073          	ebreak

000027b8 <pass>:
    27b8:	10000537          	lui	a0,0x10000
    27bc:	04f00593          	li	a1,79
    27c0:	04b00613          	li	a2,75
    27c4:	00a00693          	li	a3,10
    27c8:	00b52023          	sw	a1,0(a0) # 10000000 <end+0xfff6780>
    27cc:	00c52023          	sw	a2,0(a0)
    27d0:	00d52023          	sw	a3,0(a0)
    27d4:	8e1fd06f          	j	b4 <bne_ret>

000027d8 <j>:
    27d8:	00002537          	lui	a0,0x2
    27dc:	7f850513          	addi	a0,a0,2040 # 27f8 <.test_name>
    27e0:	10000637          	lui	a2,0x10000

000027e4 <.prname_next>:
    27e4:	00050583          	lb	a1,0(a0)
    27e8:	00058a63          	beqz	a1,27fc <.prname_done>
    27ec:	00b62023          	sw	a1,0(a2) # 10000000 <end+0xfff6780>
    27f0:	00150513          	addi	a0,a0,1
    27f4:	ff1ff06f          	j	27e4 <.prname_next>

000027f8 <.test_name>:
    27f8:	006a                	0x6a
	...

000027fc <.prname_done>:
    27fc:	02e00593          	li	a1,46
    2800:	00b62023          	sw	a1,0(a2)
    2804:	00b62023          	sw	a1,0(a2)
    2808:	00200e13          	li	t3,2
    280c:	0080006f          	j	2814 <test_2>
    2810:	0340006f          	j	2844 <fail>

00002814 <test_2>:
    2814:	00100093          	li	ra,1
    2818:	0140006f          	j	282c <test_2+0x18>
    281c:	00108093          	addi	ra,ra,1
    2820:	00108093          	addi	ra,ra,1
    2824:	00108093          	addi	ra,ra,1
    2828:	00108093          	addi	ra,ra,1
    282c:	00108093          	addi	ra,ra,1
    2830:	00108093          	addi	ra,ra,1
    2834:	00300e93          	li	t4,3
    2838:	00300e13          	li	t3,3
    283c:	01d09463          	bne	ra,t4,2844 <fail>
    2840:	03c01e63          	bne	zero,t3,287c <pass>

00002844 <fail>:
    2844:	10000537          	lui	a0,0x10000
    2848:	04500593          	li	a1,69
    284c:	05200613          	li	a2,82
    2850:	04f00693          	li	a3,79
    2854:	00a00713          	li	a4,10
    2858:	030e0793          	addi	a5,t3,48
    285c:	00b52023          	sw	a1,0(a0) # 10000000 <end+0xfff6780>
    2860:	00c52023          	sw	a2,0(a0)
    2864:	00c52023          	sw	a2,0(a0)
    2868:	00d52023          	sw	a3,0(a0)
    286c:	00c52023          	sw	a2,0(a0)
    2870:	00f52023          	sw	a5,0(a0)
    2874:	00e52023          	sw	a4,0(a0)
    2878:	00100073          	ebreak

0000287c <pass>:
    287c:	10000537          	lui	a0,0x10000
    2880:	04f00593          	li	a1,79
    2884:	04b00613          	li	a2,75
    2888:	00a00693          	li	a3,10
    288c:	00b52023          	sw	a1,0(a0) # 10000000 <end+0xfff6780>
    2890:	00c52023          	sw	a2,0(a0)
    2894:	00d52023          	sw	a3,0(a0)
    2898:	ffcfd06f          	j	94 <j_ret>

0000289c <jal>:
    289c:	00003537          	lui	a0,0x3
    28a0:	8bc50513          	addi	a0,a0,-1860 # 28bc <.test_name>
    28a4:	10000637          	lui	a2,0x10000

000028a8 <.prname_next>:
    28a8:	00050583          	lb	a1,0(a0)
    28ac:	00058a63          	beqz	a1,28c0 <.prname_done>
    28b0:	00b62023          	sw	a1,0(a2) # 10000000 <end+0xfff6780>
    28b4:	00150513          	addi	a0,a0,1
    28b8:	ff1ff06f          	j	28a8 <.prname_next>

000028bc <.test_name>:
    28bc:	616a                	flw	ft2,152(sp)
    28be:	006c                	addi	a1,sp,12

000028c0 <.prname_done>:
    28c0:	02e00593          	li	a1,46
    28c4:	00b62023          	sw	a1,0(a2)
    28c8:	00b62023          	sw	a1,0(a2)

000028cc <test_2>:
    28cc:	00200e13          	li	t3,2
    28d0:	00000093          	li	ra,0

000028d4 <linkaddr_2>:
    28d4:	010000ef          	jal	ra,28e4 <target_2>
    28d8:	00000013          	nop
    28dc:	00000013          	nop
    28e0:	0440006f          	j	2924 <fail>

000028e4 <target_2>:
    28e4:	00000117          	auipc	sp,0x0
    28e8:	ff010113          	addi	sp,sp,-16 # 28d4 <linkaddr_2>
    28ec:	00410113          	addi	sp,sp,4
    28f0:	02111a63          	bne	sp,ra,2924 <fail>

000028f4 <test_3>:
    28f4:	00100113          	li	sp,1
    28f8:	014000ef          	jal	ra,290c <test_3+0x18>
    28fc:	00110113          	addi	sp,sp,1
    2900:	00110113          	addi	sp,sp,1
    2904:	00110113          	addi	sp,sp,1
    2908:	00110113          	addi	sp,sp,1
    290c:	00110113          	addi	sp,sp,1
    2910:	00110113          	addi	sp,sp,1
    2914:	00300e93          	li	t4,3
    2918:	00300e13          	li	t3,3
    291c:	01d11463          	bne	sp,t4,2924 <fail>
    2920:	03c01e63          	bne	zero,t3,295c <pass>

00002924 <fail>:
    2924:	10000537          	lui	a0,0x10000
    2928:	04500593          	li	a1,69
    292c:	05200613          	li	a2,82
    2930:	04f00693          	li	a3,79
    2934:	00a00713          	li	a4,10
    2938:	030e0793          	addi	a5,t3,48
    293c:	00b52023          	sw	a1,0(a0) # 10000000 <end+0xfff6780>
    2940:	00c52023          	sw	a2,0(a0)
    2944:	00c52023          	sw	a2,0(a0)
    2948:	00d52023          	sw	a3,0(a0)
    294c:	00c52023          	sw	a2,0(a0)
    2950:	00f52023          	sw	a5,0(a0)
    2954:	00e52023          	sw	a4,0(a0)
    2958:	00100073          	ebreak

0000295c <pass>:
    295c:	10000537          	lui	a0,0x10000
    2960:	04f00593          	li	a1,79
    2964:	04b00613          	li	a2,75
    2968:	00a00693          	li	a3,10
    296c:	00b52023          	sw	a1,0(a0) # 10000000 <end+0xfff6780>
    2970:	00c52023          	sw	a2,0(a0)
    2974:	00d52023          	sw	a3,0(a0)
    2978:	f24fd06f          	j	9c <jal_ret>

0000297c <jalr>:
    297c:	00003537          	lui	a0,0x3
    2980:	99c50513          	addi	a0,a0,-1636 # 299c <.test_name>
    2984:	10000637          	lui	a2,0x10000

00002988 <.prname_next>:
    2988:	00050583          	lb	a1,0(a0)
    298c:	00058c63          	beqz	a1,29a4 <.prname_done>
    2990:	00b62023          	sw	a1,0(a2) # 10000000 <end+0xfff6780>
    2994:	00150513          	addi	a0,a0,1
    2998:	ff1ff06f          	j	2988 <.prname_next>

0000299c <.test_name>:
    299c:	616a                	flw	ft2,152(sp)
    299e:	726c                	flw	fa1,100(a2)
    29a0:	0000                	unimp
	...

000029a4 <.prname_done>:
    29a4:	02e00593          	li	a1,46
    29a8:	00b62023          	sw	a1,0(a2)
    29ac:	00b62023          	sw	a1,0(a2)

000029b0 <test_2>:
    29b0:	00200e13          	li	t3,2
    29b4:	00000f93          	li	t6,0
    29b8:	00000117          	auipc	sp,0x0
    29bc:	01810113          	addi	sp,sp,24 # 29d0 <target_2>

000029c0 <linkaddr_2>:
    29c0:	000109e7          	jalr	s3,sp
    29c4:	00000013          	nop
    29c8:	00000013          	nop
    29cc:	0e40006f          	j	2ab0 <fail>

000029d0 <target_2>:
    29d0:	00000097          	auipc	ra,0x0
    29d4:	ff008093          	addi	ra,ra,-16 # 29c0 <linkaddr_2>
    29d8:	00408093          	addi	ra,ra,4
    29dc:	0d309a63          	bne	ra,s3,2ab0 <fail>

000029e0 <test_3>:
    29e0:	00300e13          	li	t3,3
    29e4:	00000f93          	li	t6,0
    29e8:	00000197          	auipc	gp,0x0
    29ec:	01418193          	addi	gp,gp,20 # 29fc <target_3>

000029f0 <linkaddr_3>:
    29f0:	00018067          	jr	gp
    29f4:	00000013          	nop
    29f8:	0b80006f          	j	2ab0 <fail>

000029fc <target_3>:
    29fc:	0a0f9a63          	bnez	t6,2ab0 <fail>

00002a00 <test_4>:
    2a00:	00400e13          	li	t3,4
    2a04:	00000213          	li	tp,0
    2a08:	00000317          	auipc	t1,0x0
    2a0c:	01030313          	addi	t1,t1,16 # 2a18 <test_4+0x18>
    2a10:	000309e7          	jalr	s3,t1
    2a14:	09c01e63          	bne	zero,t3,2ab0 <fail>
    2a18:	00120213          	addi	tp,tp,1 # 1 <reset_vec+0x1>
    2a1c:	00200293          	li	t0,2
    2a20:	fe5214e3          	bne	tp,t0,2a08 <test_4+0x8>

00002a24 <test_5>:
    2a24:	00500e13          	li	t3,5
    2a28:	00000213          	li	tp,0
    2a2c:	00000317          	auipc	t1,0x0
    2a30:	01430313          	addi	t1,t1,20 # 2a40 <test_5+0x1c>
    2a34:	00000013          	nop
    2a38:	000309e7          	jalr	s3,t1
    2a3c:	07c01a63          	bne	zero,t3,2ab0 <fail>
    2a40:	00120213          	addi	tp,tp,1 # 1 <reset_vec+0x1>
    2a44:	00200293          	li	t0,2
    2a48:	fe5212e3          	bne	tp,t0,2a2c <test_5+0x8>

00002a4c <test_6>:
    2a4c:	00600e13          	li	t3,6
    2a50:	00000213          	li	tp,0
    2a54:	00000317          	auipc	t1,0x0
    2a58:	01830313          	addi	t1,t1,24 # 2a6c <test_6+0x20>
    2a5c:	00000013          	nop
    2a60:	00000013          	nop
    2a64:	000309e7          	jalr	s3,t1
    2a68:	05c01463          	bne	zero,t3,2ab0 <fail>
    2a6c:	00120213          	addi	tp,tp,1 # 1 <reset_vec+0x1>
    2a70:	00200293          	li	t0,2
    2a74:	fe5210e3          	bne	tp,t0,2a54 <test_6+0x8>

00002a78 <test_7>:
    2a78:	00100093          	li	ra,1
    2a7c:	00000117          	auipc	sp,0x0
    2a80:	01c10113          	addi	sp,sp,28 # 2a98 <test_7+0x20>
    2a84:	ffc109e7          	jalr	s3,-4(sp)
    2a88:	00108093          	addi	ra,ra,1
    2a8c:	00108093          	addi	ra,ra,1
    2a90:	00108093          	addi	ra,ra,1
    2a94:	00108093          	addi	ra,ra,1
    2a98:	00108093          	addi	ra,ra,1
    2a9c:	00108093          	addi	ra,ra,1
    2aa0:	00400e93          	li	t4,4
    2aa4:	00700e13          	li	t3,7
    2aa8:	01d09463          	bne	ra,t4,2ab0 <fail>
    2aac:	03c01e63          	bne	zero,t3,2ae8 <pass>

00002ab0 <fail>:
    2ab0:	10000537          	lui	a0,0x10000
    2ab4:	04500593          	li	a1,69
    2ab8:	05200613          	li	a2,82
    2abc:	04f00693          	li	a3,79
    2ac0:	00a00713          	li	a4,10
    2ac4:	030e0793          	addi	a5,t3,48
    2ac8:	00b52023          	sw	a1,0(a0) # 10000000 <end+0xfff6780>
    2acc:	00c52023          	sw	a2,0(a0)
    2ad0:	00c52023          	sw	a2,0(a0)
    2ad4:	00d52023          	sw	a3,0(a0)
    2ad8:	00c52023          	sw	a2,0(a0)
    2adc:	00f52023          	sw	a5,0(a0)
    2ae0:	00e52023          	sw	a4,0(a0)
    2ae4:	00100073          	ebreak

00002ae8 <pass>:
    2ae8:	10000537          	lui	a0,0x10000
    2aec:	04f00593          	li	a1,79
    2af0:	04b00613          	li	a2,75
    2af4:	00a00693          	li	a3,10
    2af8:	00b52023          	sw	a1,0(a0) # 10000000 <end+0xfff6780>
    2afc:	00c52023          	sw	a2,0(a0)
    2b00:	00d52023          	sw	a3,0(a0)
    2b04:	da0fd06f          	j	a4 <jalr_ret>

00002b08 <lb>:
    2b08:	00003537          	lui	a0,0x3
    2b0c:	b2850513          	addi	a0,a0,-1240 # 2b28 <.test_name>
    2b10:	10000637          	lui	a2,0x10000

00002b14 <.prname_next>:
    2b14:	00050583          	lb	a1,0(a0)
    2b18:	00058a63          	beqz	a1,2b2c <.prname_done>
    2b1c:	00b62023          	sw	a1,0(a2) # 10000000 <end+0xfff6780>
    2b20:	00150513          	addi	a0,a0,1
    2b24:	ff1ff06f          	j	2b14 <.prname_next>

00002b28 <.test_name>:
    2b28:	626c                	flw	fa1,68(a2)
	...

00002b2c <.prname_done>:
    2b2c:	02e00593          	li	a1,46
    2b30:	00b62023          	sw	a1,0(a2)
    2b34:	00b62023          	sw	a1,0(a2)

00002b38 <test_2>:
    2b38:	00007097          	auipc	ra,0x7
    2b3c:	cd808093          	addi	ra,ra,-808 # 9810 <tdat>
    2b40:	00008183          	lb	gp,0(ra)
    2b44:	fff00e93          	li	t4,-1
    2b48:	00200e13          	li	t3,2
    2b4c:	23d19c63          	bne	gp,t4,2d84 <fail>

00002b50 <test_3>:
    2b50:	00007097          	auipc	ra,0x7
    2b54:	cc008093          	addi	ra,ra,-832 # 9810 <tdat>
    2b58:	00108183          	lb	gp,1(ra)
    2b5c:	00000e93          	li	t4,0
    2b60:	00300e13          	li	t3,3
    2b64:	23d19063          	bne	gp,t4,2d84 <fail>

00002b68 <test_4>:
    2b68:	00007097          	auipc	ra,0x7
    2b6c:	ca808093          	addi	ra,ra,-856 # 9810 <tdat>
    2b70:	00208183          	lb	gp,2(ra)
    2b74:	ff000e93          	li	t4,-16
    2b78:	00400e13          	li	t3,4
    2b7c:	21d19463          	bne	gp,t4,2d84 <fail>

00002b80 <test_5>:
    2b80:	00007097          	auipc	ra,0x7
    2b84:	c9008093          	addi	ra,ra,-880 # 9810 <tdat>
    2b88:	00308183          	lb	gp,3(ra)
    2b8c:	00f00e93          	li	t4,15
    2b90:	00500e13          	li	t3,5
    2b94:	1fd19863          	bne	gp,t4,2d84 <fail>

00002b98 <test_6>:
    2b98:	00007097          	auipc	ra,0x7
    2b9c:	c7b08093          	addi	ra,ra,-901 # 9813 <tdat4>
    2ba0:	ffd08183          	lb	gp,-3(ra)
    2ba4:	fff00e93          	li	t4,-1
    2ba8:	00600e13          	li	t3,6
    2bac:	1dd19c63          	bne	gp,t4,2d84 <fail>

00002bb0 <test_7>:
    2bb0:	00007097          	auipc	ra,0x7
    2bb4:	c6308093          	addi	ra,ra,-925 # 9813 <tdat4>
    2bb8:	ffe08183          	lb	gp,-2(ra)
    2bbc:	00000e93          	li	t4,0
    2bc0:	00700e13          	li	t3,7
    2bc4:	1dd19063          	bne	gp,t4,2d84 <fail>

00002bc8 <test_8>:
    2bc8:	00007097          	auipc	ra,0x7
    2bcc:	c4b08093          	addi	ra,ra,-949 # 9813 <tdat4>
    2bd0:	fff08183          	lb	gp,-1(ra)
    2bd4:	ff000e93          	li	t4,-16
    2bd8:	00800e13          	li	t3,8
    2bdc:	1bd19463          	bne	gp,t4,2d84 <fail>

00002be0 <test_9>:
    2be0:	00007097          	auipc	ra,0x7
    2be4:	c3308093          	addi	ra,ra,-973 # 9813 <tdat4>
    2be8:	00008183          	lb	gp,0(ra)
    2bec:	00f00e93          	li	t4,15
    2bf0:	00900e13          	li	t3,9
    2bf4:	19d19863          	bne	gp,t4,2d84 <fail>

00002bf8 <test_10>:
    2bf8:	00007097          	auipc	ra,0x7
    2bfc:	c1808093          	addi	ra,ra,-1000 # 9810 <tdat>
    2c00:	fe008093          	addi	ra,ra,-32
    2c04:	02008183          	lb	gp,32(ra)
    2c08:	fff00e93          	li	t4,-1
    2c0c:	00a00e13          	li	t3,10
    2c10:	17d19a63          	bne	gp,t4,2d84 <fail>

00002c14 <test_11>:
    2c14:	00007097          	auipc	ra,0x7
    2c18:	bfc08093          	addi	ra,ra,-1028 # 9810 <tdat>
    2c1c:	ffa08093          	addi	ra,ra,-6
    2c20:	00708183          	lb	gp,7(ra)
    2c24:	00000e93          	li	t4,0
    2c28:	00b00e13          	li	t3,11
    2c2c:	15d19c63          	bne	gp,t4,2d84 <fail>

00002c30 <test_12>:
    2c30:	00c00e13          	li	t3,12
    2c34:	00000213          	li	tp,0
    2c38:	00007097          	auipc	ra,0x7
    2c3c:	bd908093          	addi	ra,ra,-1063 # 9811 <tdat2>
    2c40:	00108183          	lb	gp,1(ra)
    2c44:	00018313          	mv	t1,gp
    2c48:	ff000e93          	li	t4,-16
    2c4c:	13d31c63          	bne	t1,t4,2d84 <fail>
    2c50:	00120213          	addi	tp,tp,1 # 1 <reset_vec+0x1>
    2c54:	00200293          	li	t0,2
    2c58:	fe5210e3          	bne	tp,t0,2c38 <test_12+0x8>

00002c5c <test_13>:
    2c5c:	00d00e13          	li	t3,13
    2c60:	00000213          	li	tp,0
    2c64:	00007097          	auipc	ra,0x7
    2c68:	bae08093          	addi	ra,ra,-1106 # 9812 <tdat3>
    2c6c:	00108183          	lb	gp,1(ra)
    2c70:	00000013          	nop
    2c74:	00018313          	mv	t1,gp
    2c78:	00f00e93          	li	t4,15
    2c7c:	11d31463          	bne	t1,t4,2d84 <fail>
    2c80:	00120213          	addi	tp,tp,1 # 1 <reset_vec+0x1>
    2c84:	00200293          	li	t0,2
    2c88:	fc521ee3          	bne	tp,t0,2c64 <test_13+0x8>

00002c8c <test_14>:
    2c8c:	00e00e13          	li	t3,14
    2c90:	00000213          	li	tp,0
    2c94:	00007097          	auipc	ra,0x7
    2c98:	b7c08093          	addi	ra,ra,-1156 # 9810 <tdat>
    2c9c:	00108183          	lb	gp,1(ra)
    2ca0:	00000013          	nop
    2ca4:	00000013          	nop
    2ca8:	00018313          	mv	t1,gp
    2cac:	00000e93          	li	t4,0
    2cb0:	0dd31a63          	bne	t1,t4,2d84 <fail>
    2cb4:	00120213          	addi	tp,tp,1 # 1 <reset_vec+0x1>
    2cb8:	00200293          	li	t0,2
    2cbc:	fc521ce3          	bne	tp,t0,2c94 <test_14+0x8>

00002cc0 <test_15>:
    2cc0:	00f00e13          	li	t3,15
    2cc4:	00000213          	li	tp,0
    2cc8:	00007097          	auipc	ra,0x7
    2ccc:	b4908093          	addi	ra,ra,-1207 # 9811 <tdat2>
    2cd0:	00108183          	lb	gp,1(ra)
    2cd4:	ff000e93          	li	t4,-16
    2cd8:	0bd19663          	bne	gp,t4,2d84 <fail>
    2cdc:	00120213          	addi	tp,tp,1 # 1 <reset_vec+0x1>
    2ce0:	00200293          	li	t0,2
    2ce4:	fe5212e3          	bne	tp,t0,2cc8 <test_15+0x8>

00002ce8 <test_16>:
    2ce8:	01000e13          	li	t3,16
    2cec:	00000213          	li	tp,0
    2cf0:	00007097          	auipc	ra,0x7
    2cf4:	b2208093          	addi	ra,ra,-1246 # 9812 <tdat3>
    2cf8:	00000013          	nop
    2cfc:	00108183          	lb	gp,1(ra)
    2d00:	00f00e93          	li	t4,15
    2d04:	09d19063          	bne	gp,t4,2d84 <fail>
    2d08:	00120213          	addi	tp,tp,1 # 1 <reset_vec+0x1>
    2d0c:	00200293          	li	t0,2
    2d10:	fe5210e3          	bne	tp,t0,2cf0 <test_16+0x8>

00002d14 <test_17>:
    2d14:	01100e13          	li	t3,17
    2d18:	00000213          	li	tp,0
    2d1c:	00007097          	auipc	ra,0x7
    2d20:	af408093          	addi	ra,ra,-1292 # 9810 <tdat>
    2d24:	00000013          	nop
    2d28:	00000013          	nop
    2d2c:	00108183          	lb	gp,1(ra)
    2d30:	00000e93          	li	t4,0
    2d34:	05d19863          	bne	gp,t4,2d84 <fail>
    2d38:	00120213          	addi	tp,tp,1 # 1 <reset_vec+0x1>
    2d3c:	00200293          	li	t0,2
    2d40:	fc521ee3          	bne	tp,t0,2d1c <test_17+0x8>

00002d44 <test_18>:
    2d44:	00007197          	auipc	gp,0x7
    2d48:	acc18193          	addi	gp,gp,-1332 # 9810 <tdat>
    2d4c:	00018103          	lb	sp,0(gp)
    2d50:	00200113          	li	sp,2
    2d54:	00200e93          	li	t4,2
    2d58:	01200e13          	li	t3,18
    2d5c:	03d11463          	bne	sp,t4,2d84 <fail>

00002d60 <test_19>:
    2d60:	00007197          	auipc	gp,0x7
    2d64:	ab018193          	addi	gp,gp,-1360 # 9810 <tdat>
    2d68:	00018103          	lb	sp,0(gp)
    2d6c:	00000013          	nop
    2d70:	00200113          	li	sp,2
    2d74:	00200e93          	li	t4,2
    2d78:	01300e13          	li	t3,19
    2d7c:	01d11463          	bne	sp,t4,2d84 <fail>
    2d80:	03c01e63          	bne	zero,t3,2dbc <pass>

00002d84 <fail>:
    2d84:	10000537          	lui	a0,0x10000
    2d88:	04500593          	li	a1,69
    2d8c:	05200613          	li	a2,82
    2d90:	04f00693          	li	a3,79
    2d94:	00a00713          	li	a4,10
    2d98:	030e0793          	addi	a5,t3,48
    2d9c:	00b52023          	sw	a1,0(a0) # 10000000 <end+0xfff6780>
    2da0:	00c52023          	sw	a2,0(a0)
    2da4:	00c52023          	sw	a2,0(a0)
    2da8:	00d52023          	sw	a3,0(a0)
    2dac:	00c52023          	sw	a2,0(a0)
    2db0:	00f52023          	sw	a5,0(a0)
    2db4:	00e52023          	sw	a4,0(a0)
    2db8:	00100073          	ebreak

00002dbc <pass>:
    2dbc:	10000537          	lui	a0,0x10000
    2dc0:	04f00593          	li	a1,79
    2dc4:	04b00613          	li	a2,75
    2dc8:	00a00693          	li	a3,10
    2dcc:	00b52023          	sw	a1,0(a0) # 10000000 <end+0xfff6780>
    2dd0:	00c52023          	sw	a2,0(a0)
    2dd4:	00d52023          	sw	a3,0(a0)
    2dd8:	b04fd06f          	j	dc <lb_ret>

00002ddc <lbu>:
    2ddc:	00003537          	lui	a0,0x3
    2de0:	dfc50513          	addi	a0,a0,-516 # 2dfc <.test_name>
    2de4:	10000637          	lui	a2,0x10000

00002de8 <.prname_next>:
    2de8:	00050583          	lb	a1,0(a0)
    2dec:	00058a63          	beqz	a1,2e00 <.prname_done>
    2df0:	00b62023          	sw	a1,0(a2) # 10000000 <end+0xfff6780>
    2df4:	00150513          	addi	a0,a0,1
    2df8:	ff1ff06f          	j	2de8 <.prname_next>

00002dfc <.test_name>:
    2dfc:	626c                	flw	fa1,68(a2)
    2dfe:	0075                	c.addi	zero,29

00002e00 <.prname_done>:
    2e00:	02e00593          	li	a1,46
    2e04:	00b62023          	sw	a1,0(a2)
    2e08:	00b62023          	sw	a1,0(a2)

00002e0c <test_2>:
    2e0c:	00007097          	auipc	ra,0x7
    2e10:	a0808093          	addi	ra,ra,-1528 # 9814 <tdat>
    2e14:	0000c183          	lbu	gp,0(ra)
    2e18:	0ff00e93          	li	t4,255
    2e1c:	00200e13          	li	t3,2
    2e20:	23d19c63          	bne	gp,t4,3058 <fail>

00002e24 <test_3>:
    2e24:	00007097          	auipc	ra,0x7
    2e28:	9f008093          	addi	ra,ra,-1552 # 9814 <tdat>
    2e2c:	0010c183          	lbu	gp,1(ra)
    2e30:	00000e93          	li	t4,0
    2e34:	00300e13          	li	t3,3
    2e38:	23d19063          	bne	gp,t4,3058 <fail>

00002e3c <test_4>:
    2e3c:	00007097          	auipc	ra,0x7
    2e40:	9d808093          	addi	ra,ra,-1576 # 9814 <tdat>
    2e44:	0020c183          	lbu	gp,2(ra)
    2e48:	0f000e93          	li	t4,240
    2e4c:	00400e13          	li	t3,4
    2e50:	21d19463          	bne	gp,t4,3058 <fail>

00002e54 <test_5>:
    2e54:	00007097          	auipc	ra,0x7
    2e58:	9c008093          	addi	ra,ra,-1600 # 9814 <tdat>
    2e5c:	0030c183          	lbu	gp,3(ra)
    2e60:	00f00e93          	li	t4,15
    2e64:	00500e13          	li	t3,5
    2e68:	1fd19863          	bne	gp,t4,3058 <fail>

00002e6c <test_6>:
    2e6c:	00007097          	auipc	ra,0x7
    2e70:	9ab08093          	addi	ra,ra,-1621 # 9817 <tdat4>
    2e74:	ffd0c183          	lbu	gp,-3(ra)
    2e78:	0ff00e93          	li	t4,255
    2e7c:	00600e13          	li	t3,6
    2e80:	1dd19c63          	bne	gp,t4,3058 <fail>

00002e84 <test_7>:
    2e84:	00007097          	auipc	ra,0x7
    2e88:	99308093          	addi	ra,ra,-1645 # 9817 <tdat4>
    2e8c:	ffe0c183          	lbu	gp,-2(ra)
    2e90:	00000e93          	li	t4,0
    2e94:	00700e13          	li	t3,7
    2e98:	1dd19063          	bne	gp,t4,3058 <fail>

00002e9c <test_8>:
    2e9c:	00007097          	auipc	ra,0x7
    2ea0:	97b08093          	addi	ra,ra,-1669 # 9817 <tdat4>
    2ea4:	fff0c183          	lbu	gp,-1(ra)
    2ea8:	0f000e93          	li	t4,240
    2eac:	00800e13          	li	t3,8
    2eb0:	1bd19463          	bne	gp,t4,3058 <fail>

00002eb4 <test_9>:
    2eb4:	00007097          	auipc	ra,0x7
    2eb8:	96308093          	addi	ra,ra,-1693 # 9817 <tdat4>
    2ebc:	0000c183          	lbu	gp,0(ra)
    2ec0:	00f00e93          	li	t4,15
    2ec4:	00900e13          	li	t3,9
    2ec8:	19d19863          	bne	gp,t4,3058 <fail>

00002ecc <test_10>:
    2ecc:	00007097          	auipc	ra,0x7
    2ed0:	94808093          	addi	ra,ra,-1720 # 9814 <tdat>
    2ed4:	fe008093          	addi	ra,ra,-32
    2ed8:	0200c183          	lbu	gp,32(ra)
    2edc:	0ff00e93          	li	t4,255
    2ee0:	00a00e13          	li	t3,10
    2ee4:	17d19a63          	bne	gp,t4,3058 <fail>

00002ee8 <test_11>:
    2ee8:	00007097          	auipc	ra,0x7
    2eec:	92c08093          	addi	ra,ra,-1748 # 9814 <tdat>
    2ef0:	ffa08093          	addi	ra,ra,-6
    2ef4:	0070c183          	lbu	gp,7(ra)
    2ef8:	00000e93          	li	t4,0
    2efc:	00b00e13          	li	t3,11
    2f00:	15d19c63          	bne	gp,t4,3058 <fail>

00002f04 <test_12>:
    2f04:	00c00e13          	li	t3,12
    2f08:	00000213          	li	tp,0
    2f0c:	00007097          	auipc	ra,0x7
    2f10:	90908093          	addi	ra,ra,-1783 # 9815 <tdat2>
    2f14:	0010c183          	lbu	gp,1(ra)
    2f18:	00018313          	mv	t1,gp
    2f1c:	0f000e93          	li	t4,240
    2f20:	13d31c63          	bne	t1,t4,3058 <fail>
    2f24:	00120213          	addi	tp,tp,1 # 1 <reset_vec+0x1>
    2f28:	00200293          	li	t0,2
    2f2c:	fe5210e3          	bne	tp,t0,2f0c <test_12+0x8>

00002f30 <test_13>:
    2f30:	00d00e13          	li	t3,13
    2f34:	00000213          	li	tp,0
    2f38:	00007097          	auipc	ra,0x7
    2f3c:	8de08093          	addi	ra,ra,-1826 # 9816 <tdat3>
    2f40:	0010c183          	lbu	gp,1(ra)
    2f44:	00000013          	nop
    2f48:	00018313          	mv	t1,gp
    2f4c:	00f00e93          	li	t4,15
    2f50:	11d31463          	bne	t1,t4,3058 <fail>
    2f54:	00120213          	addi	tp,tp,1 # 1 <reset_vec+0x1>
    2f58:	00200293          	li	t0,2
    2f5c:	fc521ee3          	bne	tp,t0,2f38 <test_13+0x8>

00002f60 <test_14>:
    2f60:	00e00e13          	li	t3,14
    2f64:	00000213          	li	tp,0
    2f68:	00007097          	auipc	ra,0x7
    2f6c:	8ac08093          	addi	ra,ra,-1876 # 9814 <tdat>
    2f70:	0010c183          	lbu	gp,1(ra)
    2f74:	00000013          	nop
    2f78:	00000013          	nop
    2f7c:	00018313          	mv	t1,gp
    2f80:	00000e93          	li	t4,0
    2f84:	0dd31a63          	bne	t1,t4,3058 <fail>
    2f88:	00120213          	addi	tp,tp,1 # 1 <reset_vec+0x1>
    2f8c:	00200293          	li	t0,2
    2f90:	fc521ce3          	bne	tp,t0,2f68 <test_14+0x8>

00002f94 <test_15>:
    2f94:	00f00e13          	li	t3,15
    2f98:	00000213          	li	tp,0
    2f9c:	00007097          	auipc	ra,0x7
    2fa0:	87908093          	addi	ra,ra,-1927 # 9815 <tdat2>
    2fa4:	0010c183          	lbu	gp,1(ra)
    2fa8:	0f000e93          	li	t4,240
    2fac:	0bd19663          	bne	gp,t4,3058 <fail>
    2fb0:	00120213          	addi	tp,tp,1 # 1 <reset_vec+0x1>
    2fb4:	00200293          	li	t0,2
    2fb8:	fe5212e3          	bne	tp,t0,2f9c <test_15+0x8>

00002fbc <test_16>:
    2fbc:	01000e13          	li	t3,16
    2fc0:	00000213          	li	tp,0
    2fc4:	00007097          	auipc	ra,0x7
    2fc8:	85208093          	addi	ra,ra,-1966 # 9816 <tdat3>
    2fcc:	00000013          	nop
    2fd0:	0010c183          	lbu	gp,1(ra)
    2fd4:	00f00e93          	li	t4,15
    2fd8:	09d19063          	bne	gp,t4,3058 <fail>
    2fdc:	00120213          	addi	tp,tp,1 # 1 <reset_vec+0x1>
    2fe0:	00200293          	li	t0,2
    2fe4:	fe5210e3          	bne	tp,t0,2fc4 <test_16+0x8>

00002fe8 <test_17>:
    2fe8:	01100e13          	li	t3,17
    2fec:	00000213          	li	tp,0
    2ff0:	00007097          	auipc	ra,0x7
    2ff4:	82408093          	addi	ra,ra,-2012 # 9814 <tdat>
    2ff8:	00000013          	nop
    2ffc:	00000013          	nop
    3000:	0010c183          	lbu	gp,1(ra)
    3004:	00000e93          	li	t4,0
    3008:	05d19863          	bne	gp,t4,3058 <fail>
    300c:	00120213          	addi	tp,tp,1 # 1 <reset_vec+0x1>
    3010:	00200293          	li	t0,2
    3014:	fc521ee3          	bne	tp,t0,2ff0 <test_17+0x8>

00003018 <test_18>:
    3018:	00006197          	auipc	gp,0x6
    301c:	7fc18193          	addi	gp,gp,2044 # 9814 <tdat>
    3020:	0001c103          	lbu	sp,0(gp)
    3024:	00200113          	li	sp,2
    3028:	00200e93          	li	t4,2
    302c:	01200e13          	li	t3,18
    3030:	03d11463          	bne	sp,t4,3058 <fail>

00003034 <test_19>:
    3034:	00006197          	auipc	gp,0x6
    3038:	7e018193          	addi	gp,gp,2016 # 9814 <tdat>
    303c:	0001c103          	lbu	sp,0(gp)
    3040:	00000013          	nop
    3044:	00200113          	li	sp,2
    3048:	00200e93          	li	t4,2
    304c:	01300e13          	li	t3,19
    3050:	01d11463          	bne	sp,t4,3058 <fail>
    3054:	03c01e63          	bne	zero,t3,3090 <pass>

00003058 <fail>:
    3058:	10000537          	lui	a0,0x10000
    305c:	04500593          	li	a1,69
    3060:	05200613          	li	a2,82
    3064:	04f00693          	li	a3,79
    3068:	00a00713          	li	a4,10
    306c:	030e0793          	addi	a5,t3,48
    3070:	00b52023          	sw	a1,0(a0) # 10000000 <end+0xfff6780>
    3074:	00c52023          	sw	a2,0(a0)
    3078:	00c52023          	sw	a2,0(a0)
    307c:	00d52023          	sw	a3,0(a0)
    3080:	00c52023          	sw	a2,0(a0)
    3084:	00f52023          	sw	a5,0(a0)
    3088:	00e52023          	sw	a4,0(a0)
    308c:	00100073          	ebreak

00003090 <pass>:
    3090:	10000537          	lui	a0,0x10000
    3094:	04f00593          	li	a1,79
    3098:	04b00613          	li	a2,75
    309c:	00a00693          	li	a3,10
    30a0:	00b52023          	sw	a1,0(a0) # 10000000 <end+0xfff6780>
    30a4:	00c52023          	sw	a2,0(a0)
    30a8:	00d52023          	sw	a3,0(a0)
    30ac:	848fd06f          	j	f4 <lbu_ret>

000030b0 <lh>:
    30b0:	00003537          	lui	a0,0x3
    30b4:	0d050513          	addi	a0,a0,208 # 30d0 <.test_name>
    30b8:	10000637          	lui	a2,0x10000

000030bc <.prname_next>:
    30bc:	00050583          	lb	a1,0(a0)
    30c0:	00058a63          	beqz	a1,30d4 <.prname_done>
    30c4:	00b62023          	sw	a1,0(a2) # 10000000 <end+0xfff6780>
    30c8:	00150513          	addi	a0,a0,1
    30cc:	ff1ff06f          	j	30bc <.prname_next>

000030d0 <.test_name>:
    30d0:	686c                	flw	fa1,84(s0)
	...

000030d4 <.prname_done>:
    30d4:	02e00593          	li	a1,46
    30d8:	00b62023          	sw	a1,0(a2)
    30dc:	00b62023          	sw	a1,0(a2)

000030e0 <test_2>:
    30e0:	00006097          	auipc	ra,0x6
    30e4:	73808093          	addi	ra,ra,1848 # 9818 <tdat>
    30e8:	00009183          	lh	gp,0(ra)
    30ec:	0ff00e93          	li	t4,255
    30f0:	00200e13          	li	t3,2
    30f4:	25d19c63          	bne	gp,t4,334c <fail>

000030f8 <test_3>:
    30f8:	00006097          	auipc	ra,0x6
    30fc:	72008093          	addi	ra,ra,1824 # 9818 <tdat>
    3100:	00209183          	lh	gp,2(ra)
    3104:	f0000e93          	li	t4,-256
    3108:	00300e13          	li	t3,3
    310c:	25d19063          	bne	gp,t4,334c <fail>

00003110 <test_4>:
    3110:	00006097          	auipc	ra,0x6
    3114:	70808093          	addi	ra,ra,1800 # 9818 <tdat>
    3118:	00409183          	lh	gp,4(ra)
    311c:	00001eb7          	lui	t4,0x1
    3120:	ff0e8e93          	addi	t4,t4,-16 # ff0 <.test_name>
    3124:	00400e13          	li	t3,4
    3128:	23d19263          	bne	gp,t4,334c <fail>

0000312c <test_5>:
    312c:	00006097          	auipc	ra,0x6
    3130:	6ec08093          	addi	ra,ra,1772 # 9818 <tdat>
    3134:	00609183          	lh	gp,6(ra)
    3138:	fffffeb7          	lui	t4,0xfffff
    313c:	00fe8e93          	addi	t4,t4,15 # fffff00f <pulp__FC+0xfffff010>
    3140:	00500e13          	li	t3,5
    3144:	21d19463          	bne	gp,t4,334c <fail>

00003148 <test_6>:
    3148:	00006097          	auipc	ra,0x6
    314c:	6d608093          	addi	ra,ra,1750 # 981e <tdat4>
    3150:	ffa09183          	lh	gp,-6(ra)
    3154:	0ff00e93          	li	t4,255
    3158:	00600e13          	li	t3,6
    315c:	1fd19863          	bne	gp,t4,334c <fail>

00003160 <test_7>:
    3160:	00006097          	auipc	ra,0x6
    3164:	6be08093          	addi	ra,ra,1726 # 981e <tdat4>
    3168:	ffc09183          	lh	gp,-4(ra)
    316c:	f0000e93          	li	t4,-256
    3170:	00700e13          	li	t3,7
    3174:	1dd19c63          	bne	gp,t4,334c <fail>

00003178 <test_8>:
    3178:	00006097          	auipc	ra,0x6
    317c:	6a608093          	addi	ra,ra,1702 # 981e <tdat4>
    3180:	ffe09183          	lh	gp,-2(ra)
    3184:	00001eb7          	lui	t4,0x1
    3188:	ff0e8e93          	addi	t4,t4,-16 # ff0 <.test_name>
    318c:	00800e13          	li	t3,8
    3190:	1bd19e63          	bne	gp,t4,334c <fail>

00003194 <test_9>:
    3194:	00006097          	auipc	ra,0x6
    3198:	68a08093          	addi	ra,ra,1674 # 981e <tdat4>
    319c:	00009183          	lh	gp,0(ra)
    31a0:	fffffeb7          	lui	t4,0xfffff
    31a4:	00fe8e93          	addi	t4,t4,15 # fffff00f <pulp__FC+0xfffff010>
    31a8:	00900e13          	li	t3,9
    31ac:	1bd19063          	bne	gp,t4,334c <fail>

000031b0 <test_10>:
    31b0:	00006097          	auipc	ra,0x6
    31b4:	66808093          	addi	ra,ra,1640 # 9818 <tdat>
    31b8:	fe008093          	addi	ra,ra,-32
    31bc:	02009183          	lh	gp,32(ra)
    31c0:	0ff00e93          	li	t4,255
    31c4:	00a00e13          	li	t3,10
    31c8:	19d19263          	bne	gp,t4,334c <fail>

000031cc <test_11>:
    31cc:	00006097          	auipc	ra,0x6
    31d0:	64c08093          	addi	ra,ra,1612 # 9818 <tdat>
    31d4:	ffb08093          	addi	ra,ra,-5
    31d8:	00709183          	lh	gp,7(ra)
    31dc:	f0000e93          	li	t4,-256
    31e0:	00b00e13          	li	t3,11
    31e4:	17d19463          	bne	gp,t4,334c <fail>

000031e8 <test_12>:
    31e8:	00c00e13          	li	t3,12
    31ec:	00000213          	li	tp,0
    31f0:	00006097          	auipc	ra,0x6
    31f4:	62a08093          	addi	ra,ra,1578 # 981a <tdat2>
    31f8:	00209183          	lh	gp,2(ra)
    31fc:	00018313          	mv	t1,gp
    3200:	00001eb7          	lui	t4,0x1
    3204:	ff0e8e93          	addi	t4,t4,-16 # ff0 <.test_name>
    3208:	15d31263          	bne	t1,t4,334c <fail>
    320c:	00120213          	addi	tp,tp,1 # 1 <reset_vec+0x1>
    3210:	00200293          	li	t0,2
    3214:	fc521ee3          	bne	tp,t0,31f0 <test_12+0x8>

00003218 <test_13>:
    3218:	00d00e13          	li	t3,13
    321c:	00000213          	li	tp,0
    3220:	00006097          	auipc	ra,0x6
    3224:	5fc08093          	addi	ra,ra,1532 # 981c <tdat3>
    3228:	00209183          	lh	gp,2(ra)
    322c:	00000013          	nop
    3230:	00018313          	mv	t1,gp
    3234:	fffffeb7          	lui	t4,0xfffff
    3238:	00fe8e93          	addi	t4,t4,15 # fffff00f <pulp__FC+0xfffff010>
    323c:	11d31863          	bne	t1,t4,334c <fail>
    3240:	00120213          	addi	tp,tp,1 # 1 <reset_vec+0x1>
    3244:	00200293          	li	t0,2
    3248:	fc521ce3          	bne	tp,t0,3220 <test_13+0x8>

0000324c <test_14>:
    324c:	00e00e13          	li	t3,14
    3250:	00000213          	li	tp,0
    3254:	00006097          	auipc	ra,0x6
    3258:	5c408093          	addi	ra,ra,1476 # 9818 <tdat>
    325c:	00209183          	lh	gp,2(ra)
    3260:	00000013          	nop
    3264:	00000013          	nop
    3268:	00018313          	mv	t1,gp
    326c:	f0000e93          	li	t4,-256
    3270:	0dd31e63          	bne	t1,t4,334c <fail>
    3274:	00120213          	addi	tp,tp,1 # 1 <reset_vec+0x1>
    3278:	00200293          	li	t0,2
    327c:	fc521ce3          	bne	tp,t0,3254 <test_14+0x8>

00003280 <test_15>:
    3280:	00f00e13          	li	t3,15
    3284:	00000213          	li	tp,0
    3288:	00006097          	auipc	ra,0x6
    328c:	59208093          	addi	ra,ra,1426 # 981a <tdat2>
    3290:	00209183          	lh	gp,2(ra)
    3294:	00001eb7          	lui	t4,0x1
    3298:	ff0e8e93          	addi	t4,t4,-16 # ff0 <.test_name>
    329c:	0bd19863          	bne	gp,t4,334c <fail>
    32a0:	00120213          	addi	tp,tp,1 # 1 <reset_vec+0x1>
    32a4:	00200293          	li	t0,2
    32a8:	fe5210e3          	bne	tp,t0,3288 <test_15+0x8>

000032ac <test_16>:
    32ac:	01000e13          	li	t3,16
    32b0:	00000213          	li	tp,0
    32b4:	00006097          	auipc	ra,0x6
    32b8:	56808093          	addi	ra,ra,1384 # 981c <tdat3>
    32bc:	00000013          	nop
    32c0:	00209183          	lh	gp,2(ra)
    32c4:	fffffeb7          	lui	t4,0xfffff
    32c8:	00fe8e93          	addi	t4,t4,15 # fffff00f <pulp__FC+0xfffff010>
    32cc:	09d19063          	bne	gp,t4,334c <fail>
    32d0:	00120213          	addi	tp,tp,1 # 1 <reset_vec+0x1>
    32d4:	00200293          	li	t0,2
    32d8:	fc521ee3          	bne	tp,t0,32b4 <test_16+0x8>

000032dc <test_17>:
    32dc:	01100e13          	li	t3,17
    32e0:	00000213          	li	tp,0
    32e4:	00006097          	auipc	ra,0x6
    32e8:	53408093          	addi	ra,ra,1332 # 9818 <tdat>
    32ec:	00000013          	nop
    32f0:	00000013          	nop
    32f4:	00209183          	lh	gp,2(ra)
    32f8:	f0000e93          	li	t4,-256
    32fc:	05d19863          	bne	gp,t4,334c <fail>
    3300:	00120213          	addi	tp,tp,1 # 1 <reset_vec+0x1>
    3304:	00200293          	li	t0,2
    3308:	fc521ee3          	bne	tp,t0,32e4 <test_17+0x8>

0000330c <test_18>:
    330c:	00006197          	auipc	gp,0x6
    3310:	50c18193          	addi	gp,gp,1292 # 9818 <tdat>
    3314:	00019103          	lh	sp,0(gp)
    3318:	00200113          	li	sp,2
    331c:	00200e93          	li	t4,2
    3320:	01200e13          	li	t3,18
    3324:	03d11463          	bne	sp,t4,334c <fail>

00003328 <test_19>:
    3328:	00006197          	auipc	gp,0x6
    332c:	4f018193          	addi	gp,gp,1264 # 9818 <tdat>
    3330:	00019103          	lh	sp,0(gp)
    3334:	00000013          	nop
    3338:	00200113          	li	sp,2
    333c:	00200e93          	li	t4,2
    3340:	01300e13          	li	t3,19
    3344:	01d11463          	bne	sp,t4,334c <fail>
    3348:	03c01e63          	bne	zero,t3,3384 <pass>

0000334c <fail>:
    334c:	10000537          	lui	a0,0x10000
    3350:	04500593          	li	a1,69
    3354:	05200613          	li	a2,82
    3358:	04f00693          	li	a3,79
    335c:	00a00713          	li	a4,10
    3360:	030e0793          	addi	a5,t3,48
    3364:	00b52023          	sw	a1,0(a0) # 10000000 <end+0xfff6780>
    3368:	00c52023          	sw	a2,0(a0)
    336c:	00c52023          	sw	a2,0(a0)
    3370:	00d52023          	sw	a3,0(a0)
    3374:	00c52023          	sw	a2,0(a0)
    3378:	00f52023          	sw	a5,0(a0)
    337c:	00e52023          	sw	a4,0(a0)
    3380:	00100073          	ebreak

00003384 <pass>:
    3384:	10000537          	lui	a0,0x10000
    3388:	04f00593          	li	a1,79
    338c:	04b00613          	li	a2,75
    3390:	00a00693          	li	a3,10
    3394:	00b52023          	sw	a1,0(a0) # 10000000 <end+0xfff6780>
    3398:	00c52023          	sw	a2,0(a0)
    339c:	00d52023          	sw	a3,0(a0)
    33a0:	d45fc06f          	j	e4 <lh_ret>

000033a4 <lhu>:
    33a4:	00003537          	lui	a0,0x3
    33a8:	3c450513          	addi	a0,a0,964 # 33c4 <.test_name>
    33ac:	10000637          	lui	a2,0x10000

000033b0 <.prname_next>:
    33b0:	00050583          	lb	a1,0(a0)
    33b4:	00058a63          	beqz	a1,33c8 <.prname_done>
    33b8:	00b62023          	sw	a1,0(a2) # 10000000 <end+0xfff6780>
    33bc:	00150513          	addi	a0,a0,1
    33c0:	ff1ff06f          	j	33b0 <.prname_next>

000033c4 <.test_name>:
    33c4:	686c                	flw	fa1,84(s0)
    33c6:	0075                	c.addi	zero,29

000033c8 <.prname_done>:
    33c8:	02e00593          	li	a1,46
    33cc:	00b62023          	sw	a1,0(a2)
    33d0:	00b62023          	sw	a1,0(a2)

000033d4 <test_2>:
    33d4:	00006097          	auipc	ra,0x6
    33d8:	44c08093          	addi	ra,ra,1100 # 9820 <tdat>
    33dc:	0000d183          	lhu	gp,0(ra)
    33e0:	0ff00e93          	li	t4,255
    33e4:	00200e13          	li	t3,2
    33e8:	27d19663          	bne	gp,t4,3654 <fail>

000033ec <test_3>:
    33ec:	00006097          	auipc	ra,0x6
    33f0:	43408093          	addi	ra,ra,1076 # 9820 <tdat>
    33f4:	0020d183          	lhu	gp,2(ra)
    33f8:	00010eb7          	lui	t4,0x10
    33fc:	f00e8e93          	addi	t4,t4,-256 # ff00 <end+0x6680>
    3400:	00300e13          	li	t3,3
    3404:	25d19863          	bne	gp,t4,3654 <fail>

00003408 <test_4>:
    3408:	00006097          	auipc	ra,0x6
    340c:	41808093          	addi	ra,ra,1048 # 9820 <tdat>
    3410:	0040d183          	lhu	gp,4(ra)
    3414:	00001eb7          	lui	t4,0x1
    3418:	ff0e8e93          	addi	t4,t4,-16 # ff0 <.test_name>
    341c:	00400e13          	li	t3,4
    3420:	23d19a63          	bne	gp,t4,3654 <fail>

00003424 <test_5>:
    3424:	00006097          	auipc	ra,0x6
    3428:	3fc08093          	addi	ra,ra,1020 # 9820 <tdat>
    342c:	0060d183          	lhu	gp,6(ra)
    3430:	0000feb7          	lui	t4,0xf
    3434:	00fe8e93          	addi	t4,t4,15 # f00f <end+0x578f>
    3438:	00500e13          	li	t3,5
    343c:	21d19c63          	bne	gp,t4,3654 <fail>

00003440 <test_6>:
    3440:	00006097          	auipc	ra,0x6
    3444:	3e608093          	addi	ra,ra,998 # 9826 <tdat4>
    3448:	ffa0d183          	lhu	gp,-6(ra)
    344c:	0ff00e93          	li	t4,255
    3450:	00600e13          	li	t3,6
    3454:	21d19063          	bne	gp,t4,3654 <fail>

00003458 <test_7>:
    3458:	00006097          	auipc	ra,0x6
    345c:	3ce08093          	addi	ra,ra,974 # 9826 <tdat4>
    3460:	ffc0d183          	lhu	gp,-4(ra)
    3464:	00010eb7          	lui	t4,0x10
    3468:	f00e8e93          	addi	t4,t4,-256 # ff00 <end+0x6680>
    346c:	00700e13          	li	t3,7
    3470:	1fd19263          	bne	gp,t4,3654 <fail>

00003474 <test_8>:
    3474:	00006097          	auipc	ra,0x6
    3478:	3b208093          	addi	ra,ra,946 # 9826 <tdat4>
    347c:	ffe0d183          	lhu	gp,-2(ra)
    3480:	00001eb7          	lui	t4,0x1
    3484:	ff0e8e93          	addi	t4,t4,-16 # ff0 <.test_name>
    3488:	00800e13          	li	t3,8
    348c:	1dd19463          	bne	gp,t4,3654 <fail>

00003490 <test_9>:
    3490:	00006097          	auipc	ra,0x6
    3494:	39608093          	addi	ra,ra,918 # 9826 <tdat4>
    3498:	0000d183          	lhu	gp,0(ra)
    349c:	0000feb7          	lui	t4,0xf
    34a0:	00fe8e93          	addi	t4,t4,15 # f00f <end+0x578f>
    34a4:	00900e13          	li	t3,9
    34a8:	1bd19663          	bne	gp,t4,3654 <fail>

000034ac <test_10>:
    34ac:	00006097          	auipc	ra,0x6
    34b0:	37408093          	addi	ra,ra,884 # 9820 <tdat>
    34b4:	fe008093          	addi	ra,ra,-32
    34b8:	0200d183          	lhu	gp,32(ra)
    34bc:	0ff00e93          	li	t4,255
    34c0:	00a00e13          	li	t3,10
    34c4:	19d19863          	bne	gp,t4,3654 <fail>

000034c8 <test_11>:
    34c8:	00006097          	auipc	ra,0x6
    34cc:	35808093          	addi	ra,ra,856 # 9820 <tdat>
    34d0:	ffb08093          	addi	ra,ra,-5
    34d4:	0070d183          	lhu	gp,7(ra)
    34d8:	00010eb7          	lui	t4,0x10
    34dc:	f00e8e93          	addi	t4,t4,-256 # ff00 <end+0x6680>
    34e0:	00b00e13          	li	t3,11
    34e4:	17d19863          	bne	gp,t4,3654 <fail>

000034e8 <test_12>:
    34e8:	00c00e13          	li	t3,12
    34ec:	00000213          	li	tp,0
    34f0:	00006097          	auipc	ra,0x6
    34f4:	33208093          	addi	ra,ra,818 # 9822 <tdat2>
    34f8:	0020d183          	lhu	gp,2(ra)
    34fc:	00018313          	mv	t1,gp
    3500:	00001eb7          	lui	t4,0x1
    3504:	ff0e8e93          	addi	t4,t4,-16 # ff0 <.test_name>
    3508:	15d31663          	bne	t1,t4,3654 <fail>
    350c:	00120213          	addi	tp,tp,1 # 1 <reset_vec+0x1>
    3510:	00200293          	li	t0,2
    3514:	fc521ee3          	bne	tp,t0,34f0 <test_12+0x8>

00003518 <test_13>:
    3518:	00d00e13          	li	t3,13
    351c:	00000213          	li	tp,0
    3520:	00006097          	auipc	ra,0x6
    3524:	30408093          	addi	ra,ra,772 # 9824 <tdat3>
    3528:	0020d183          	lhu	gp,2(ra)
    352c:	00000013          	nop
    3530:	00018313          	mv	t1,gp
    3534:	0000feb7          	lui	t4,0xf
    3538:	00fe8e93          	addi	t4,t4,15 # f00f <end+0x578f>
    353c:	11d31c63          	bne	t1,t4,3654 <fail>
    3540:	00120213          	addi	tp,tp,1 # 1 <reset_vec+0x1>
    3544:	00200293          	li	t0,2
    3548:	fc521ce3          	bne	tp,t0,3520 <test_13+0x8>

0000354c <test_14>:
    354c:	00e00e13          	li	t3,14
    3550:	00000213          	li	tp,0
    3554:	00006097          	auipc	ra,0x6
    3558:	2cc08093          	addi	ra,ra,716 # 9820 <tdat>
    355c:	0020d183          	lhu	gp,2(ra)
    3560:	00000013          	nop
    3564:	00000013          	nop
    3568:	00018313          	mv	t1,gp
    356c:	00010eb7          	lui	t4,0x10
    3570:	f00e8e93          	addi	t4,t4,-256 # ff00 <end+0x6680>
    3574:	0fd31063          	bne	t1,t4,3654 <fail>
    3578:	00120213          	addi	tp,tp,1 # 1 <reset_vec+0x1>
    357c:	00200293          	li	t0,2
    3580:	fc521ae3          	bne	tp,t0,3554 <test_14+0x8>

00003584 <test_15>:
    3584:	00f00e13          	li	t3,15
    3588:	00000213          	li	tp,0
    358c:	00006097          	auipc	ra,0x6
    3590:	29608093          	addi	ra,ra,662 # 9822 <tdat2>
    3594:	0020d183          	lhu	gp,2(ra)
    3598:	00001eb7          	lui	t4,0x1
    359c:	ff0e8e93          	addi	t4,t4,-16 # ff0 <.test_name>
    35a0:	0bd19a63          	bne	gp,t4,3654 <fail>
    35a4:	00120213          	addi	tp,tp,1 # 1 <reset_vec+0x1>
    35a8:	00200293          	li	t0,2
    35ac:	fe5210e3          	bne	tp,t0,358c <test_15+0x8>

000035b0 <test_16>:
    35b0:	01000e13          	li	t3,16
    35b4:	00000213          	li	tp,0
    35b8:	00006097          	auipc	ra,0x6
    35bc:	26c08093          	addi	ra,ra,620 # 9824 <tdat3>
    35c0:	00000013          	nop
    35c4:	0020d183          	lhu	gp,2(ra)
    35c8:	0000feb7          	lui	t4,0xf
    35cc:	00fe8e93          	addi	t4,t4,15 # f00f <end+0x578f>
    35d0:	09d19263          	bne	gp,t4,3654 <fail>
    35d4:	00120213          	addi	tp,tp,1 # 1 <reset_vec+0x1>
    35d8:	00200293          	li	t0,2
    35dc:	fc521ee3          	bne	tp,t0,35b8 <test_16+0x8>

000035e0 <test_17>:
    35e0:	01100e13          	li	t3,17
    35e4:	00000213          	li	tp,0
    35e8:	00006097          	auipc	ra,0x6
    35ec:	23808093          	addi	ra,ra,568 # 9820 <tdat>
    35f0:	00000013          	nop
    35f4:	00000013          	nop
    35f8:	0020d183          	lhu	gp,2(ra)
    35fc:	00010eb7          	lui	t4,0x10
    3600:	f00e8e93          	addi	t4,t4,-256 # ff00 <end+0x6680>
    3604:	05d19863          	bne	gp,t4,3654 <fail>
    3608:	00120213          	addi	tp,tp,1 # 1 <reset_vec+0x1>
    360c:	00200293          	li	t0,2
    3610:	fc521ce3          	bne	tp,t0,35e8 <test_17+0x8>

00003614 <test_18>:
    3614:	00006197          	auipc	gp,0x6
    3618:	20c18193          	addi	gp,gp,524 # 9820 <tdat>
    361c:	0001d103          	lhu	sp,0(gp)
    3620:	00200113          	li	sp,2
    3624:	00200e93          	li	t4,2
    3628:	01200e13          	li	t3,18
    362c:	03d11463          	bne	sp,t4,3654 <fail>

00003630 <test_19>:
    3630:	00006197          	auipc	gp,0x6
    3634:	1f018193          	addi	gp,gp,496 # 9820 <tdat>
    3638:	0001d103          	lhu	sp,0(gp)
    363c:	00000013          	nop
    3640:	00200113          	li	sp,2
    3644:	00200e93          	li	t4,2
    3648:	01300e13          	li	t3,19
    364c:	01d11463          	bne	sp,t4,3654 <fail>
    3650:	03c01e63          	bne	zero,t3,368c <pass>

00003654 <fail>:
    3654:	10000537          	lui	a0,0x10000
    3658:	04500593          	li	a1,69
    365c:	05200613          	li	a2,82
    3660:	04f00693          	li	a3,79
    3664:	00a00713          	li	a4,10
    3668:	030e0793          	addi	a5,t3,48
    366c:	00b52023          	sw	a1,0(a0) # 10000000 <end+0xfff6780>
    3670:	00c52023          	sw	a2,0(a0)
    3674:	00c52023          	sw	a2,0(a0)
    3678:	00d52023          	sw	a3,0(a0)
    367c:	00c52023          	sw	a2,0(a0)
    3680:	00f52023          	sw	a5,0(a0)
    3684:	00e52023          	sw	a4,0(a0)
    3688:	00100073          	ebreak

0000368c <pass>:
    368c:	10000537          	lui	a0,0x10000
    3690:	04f00593          	li	a1,79
    3694:	04b00613          	li	a2,75
    3698:	00a00693          	li	a3,10
    369c:	00b52023          	sw	a1,0(a0) # 10000000 <end+0xfff6780>
    36a0:	00c52023          	sw	a2,0(a0)
    36a4:	00d52023          	sw	a3,0(a0)
    36a8:	a55fc06f          	j	fc <lhu_ret>

000036ac <lui>:
    36ac:	00003537          	lui	a0,0x3
    36b0:	6cc50513          	addi	a0,a0,1740 # 36cc <.test_name>
    36b4:	10000637          	lui	a2,0x10000

000036b8 <.prname_next>:
    36b8:	00050583          	lb	a1,0(a0)
    36bc:	00058a63          	beqz	a1,36d0 <.prname_done>
    36c0:	00b62023          	sw	a1,0(a2) # 10000000 <end+0xfff6780>
    36c4:	00150513          	addi	a0,a0,1
    36c8:	ff1ff06f          	j	36b8 <.prname_next>

000036cc <.test_name>:
    36cc:	756c                	flw	fa1,108(a0)
    36ce:	0069                	c.addi	zero,26

000036d0 <.prname_done>:
    36d0:	02e00593          	li	a1,46
    36d4:	00b62023          	sw	a1,0(a2)
    36d8:	00b62023          	sw	a1,0(a2)

000036dc <test_2>:
    36dc:	000000b7          	lui	ra,0x0
    36e0:	00000e93          	li	t4,0
    36e4:	00200e13          	li	t3,2
    36e8:	05d09a63          	bne	ra,t4,373c <fail>

000036ec <test_3>:
    36ec:	fffff0b7          	lui	ra,0xfffff
    36f0:	4010d093          	srai	ra,ra,0x1
    36f4:	80000e93          	li	t4,-2048
    36f8:	00300e13          	li	t3,3
    36fc:	05d09063          	bne	ra,t4,373c <fail>

00003700 <test_4>:
    3700:	7ffff0b7          	lui	ra,0x7ffff
    3704:	4140d093          	srai	ra,ra,0x14
    3708:	7ff00e93          	li	t4,2047
    370c:	00400e13          	li	t3,4
    3710:	03d09663          	bne	ra,t4,373c <fail>

00003714 <test_5>:
    3714:	800000b7          	lui	ra,0x80000
    3718:	4140d093          	srai	ra,ra,0x14
    371c:	80000e93          	li	t4,-2048
    3720:	00500e13          	li	t3,5
    3724:	01d09c63          	bne	ra,t4,373c <fail>

00003728 <test_6>:
    3728:	80000037          	lui	zero,0x80000
    372c:	00000e93          	li	t4,0
    3730:	00600e13          	li	t3,6
    3734:	01d01463          	bne	zero,t4,373c <fail>
    3738:	03c01e63          	bne	zero,t3,3774 <pass>

0000373c <fail>:
    373c:	10000537          	lui	a0,0x10000
    3740:	04500593          	li	a1,69
    3744:	05200613          	li	a2,82
    3748:	04f00693          	li	a3,79
    374c:	00a00713          	li	a4,10
    3750:	030e0793          	addi	a5,t3,48
    3754:	00b52023          	sw	a1,0(a0) # 10000000 <end+0xfff6780>
    3758:	00c52023          	sw	a2,0(a0)
    375c:	00c52023          	sw	a2,0(a0)
    3760:	00d52023          	sw	a3,0(a0)
    3764:	00c52023          	sw	a2,0(a0)
    3768:	00f52023          	sw	a5,0(a0)
    376c:	00e52023          	sw	a4,0(a0)
    3770:	00100073          	ebreak

00003774 <pass>:
    3774:	10000537          	lui	a0,0x10000
    3778:	04f00593          	li	a1,79
    377c:	04b00613          	li	a2,75
    3780:	00a00693          	li	a3,10
    3784:	00b52023          	sw	a1,0(a0) # 10000000 <end+0xfff6780>
    3788:	00c52023          	sw	a2,0(a0)
    378c:	00d52023          	sw	a3,0(a0)
    3790:	8f5fc06f          	j	84 <lui_ret>

00003794 <lw>:
    3794:	00003537          	lui	a0,0x3
    3798:	7b450513          	addi	a0,a0,1972 # 37b4 <.test_name>
    379c:	10000637          	lui	a2,0x10000

000037a0 <.prname_next>:
    37a0:	00050583          	lb	a1,0(a0)
    37a4:	00058a63          	beqz	a1,37b8 <.prname_done>
    37a8:	00b62023          	sw	a1,0(a2) # 10000000 <end+0xfff6780>
    37ac:	00150513          	addi	a0,a0,1
    37b0:	ff1ff06f          	j	37a0 <.prname_next>

000037b4 <.test_name>:
    37b4:	776c                	flw	fa1,108(a4)
	...

000037b8 <.prname_done>:
    37b8:	02e00593          	li	a1,46
    37bc:	00b62023          	sw	a1,0(a2)
    37c0:	00b62023          	sw	a1,0(a2)

000037c4 <test_2>:
    37c4:	00006097          	auipc	ra,0x6
    37c8:	06408093          	addi	ra,ra,100 # 9828 <tdat>
    37cc:	0000a183          	lw	gp,0(ra)
    37d0:	00ff0eb7          	lui	t4,0xff0
    37d4:	0ffe8e93          	addi	t4,t4,255 # ff00ff <end+0xfe687f>
    37d8:	00200e13          	li	t3,2
    37dc:	27d19a63          	bne	gp,t4,3a50 <fail>

000037e0 <test_3>:
    37e0:	00006097          	auipc	ra,0x6
    37e4:	04808093          	addi	ra,ra,72 # 9828 <tdat>
    37e8:	0040a183          	lw	gp,4(ra)
    37ec:	ff010eb7          	lui	t4,0xff010
    37f0:	f00e8e93          	addi	t4,t4,-256 # ff00ff00 <pulp__FC+0xff00ff01>
    37f4:	00300e13          	li	t3,3
    37f8:	25d19c63          	bne	gp,t4,3a50 <fail>

000037fc <test_4>:
    37fc:	00006097          	auipc	ra,0x6
    3800:	02c08093          	addi	ra,ra,44 # 9828 <tdat>
    3804:	0080a183          	lw	gp,8(ra)
    3808:	0ff01eb7          	lui	t4,0xff01
    380c:	ff0e8e93          	addi	t4,t4,-16 # ff00ff0 <end+0xfef7770>
    3810:	00400e13          	li	t3,4
    3814:	23d19e63          	bne	gp,t4,3a50 <fail>

00003818 <test_5>:
    3818:	00006097          	auipc	ra,0x6
    381c:	01008093          	addi	ra,ra,16 # 9828 <tdat>
    3820:	00c0a183          	lw	gp,12(ra)
    3824:	f00ffeb7          	lui	t4,0xf00ff
    3828:	00fe8e93          	addi	t4,t4,15 # f00ff00f <pulp__FC+0xf00ff010>
    382c:	00500e13          	li	t3,5
    3830:	23d19063          	bne	gp,t4,3a50 <fail>

00003834 <test_6>:
    3834:	00006097          	auipc	ra,0x6
    3838:	00008093          	mv	ra,ra
    383c:	ff40a183          	lw	gp,-12(ra) # 9828 <tdat>
    3840:	00ff0eb7          	lui	t4,0xff0
    3844:	0ffe8e93          	addi	t4,t4,255 # ff00ff <end+0xfe687f>
    3848:	00600e13          	li	t3,6
    384c:	21d19263          	bne	gp,t4,3a50 <fail>

00003850 <test_7>:
    3850:	00006097          	auipc	ra,0x6
    3854:	fe408093          	addi	ra,ra,-28 # 9834 <tdat4>
    3858:	ff80a183          	lw	gp,-8(ra)
    385c:	ff010eb7          	lui	t4,0xff010
    3860:	f00e8e93          	addi	t4,t4,-256 # ff00ff00 <pulp__FC+0xff00ff01>
    3864:	00700e13          	li	t3,7
    3868:	1fd19463          	bne	gp,t4,3a50 <fail>

0000386c <test_8>:
    386c:	00006097          	auipc	ra,0x6
    3870:	fc808093          	addi	ra,ra,-56 # 9834 <tdat4>
    3874:	ffc0a183          	lw	gp,-4(ra)
    3878:	0ff01eb7          	lui	t4,0xff01
    387c:	ff0e8e93          	addi	t4,t4,-16 # ff00ff0 <end+0xfef7770>
    3880:	00800e13          	li	t3,8
    3884:	1dd19663          	bne	gp,t4,3a50 <fail>

00003888 <test_9>:
    3888:	00006097          	auipc	ra,0x6
    388c:	fac08093          	addi	ra,ra,-84 # 9834 <tdat4>
    3890:	0000a183          	lw	gp,0(ra)
    3894:	f00ffeb7          	lui	t4,0xf00ff
    3898:	00fe8e93          	addi	t4,t4,15 # f00ff00f <pulp__FC+0xf00ff010>
    389c:	00900e13          	li	t3,9
    38a0:	1bd19863          	bne	gp,t4,3a50 <fail>

000038a4 <test_10>:
    38a4:	00006097          	auipc	ra,0x6
    38a8:	f8408093          	addi	ra,ra,-124 # 9828 <tdat>
    38ac:	fe008093          	addi	ra,ra,-32
    38b0:	0200a183          	lw	gp,32(ra)
    38b4:	00ff0eb7          	lui	t4,0xff0
    38b8:	0ffe8e93          	addi	t4,t4,255 # ff00ff <end+0xfe687f>
    38bc:	00a00e13          	li	t3,10
    38c0:	19d19863          	bne	gp,t4,3a50 <fail>

000038c4 <test_11>:
    38c4:	00006097          	auipc	ra,0x6
    38c8:	f6408093          	addi	ra,ra,-156 # 9828 <tdat>
    38cc:	ffd08093          	addi	ra,ra,-3
    38d0:	0070a183          	lw	gp,7(ra)
    38d4:	ff010eb7          	lui	t4,0xff010
    38d8:	f00e8e93          	addi	t4,t4,-256 # ff00ff00 <pulp__FC+0xff00ff01>
    38dc:	00b00e13          	li	t3,11
    38e0:	17d19863          	bne	gp,t4,3a50 <fail>

000038e4 <test_12>:
    38e4:	00c00e13          	li	t3,12
    38e8:	00000213          	li	tp,0
    38ec:	00006097          	auipc	ra,0x6
    38f0:	f4008093          	addi	ra,ra,-192 # 982c <tdat2>
    38f4:	0040a183          	lw	gp,4(ra)
    38f8:	00018313          	mv	t1,gp
    38fc:	0ff01eb7          	lui	t4,0xff01
    3900:	ff0e8e93          	addi	t4,t4,-16 # ff00ff0 <end+0xfef7770>
    3904:	15d31663          	bne	t1,t4,3a50 <fail>
    3908:	00120213          	addi	tp,tp,1 # 1 <reset_vec+0x1>
    390c:	00200293          	li	t0,2
    3910:	fc521ee3          	bne	tp,t0,38ec <test_12+0x8>

00003914 <test_13>:
    3914:	00d00e13          	li	t3,13
    3918:	00000213          	li	tp,0
    391c:	00006097          	auipc	ra,0x6
    3920:	f1408093          	addi	ra,ra,-236 # 9830 <tdat3>
    3924:	0040a183          	lw	gp,4(ra)
    3928:	00000013          	nop
    392c:	00018313          	mv	t1,gp
    3930:	f00ffeb7          	lui	t4,0xf00ff
    3934:	00fe8e93          	addi	t4,t4,15 # f00ff00f <pulp__FC+0xf00ff010>
    3938:	11d31c63          	bne	t1,t4,3a50 <fail>
    393c:	00120213          	addi	tp,tp,1 # 1 <reset_vec+0x1>
    3940:	00200293          	li	t0,2
    3944:	fc521ce3          	bne	tp,t0,391c <test_13+0x8>

00003948 <test_14>:
    3948:	00e00e13          	li	t3,14
    394c:	00000213          	li	tp,0
    3950:	00006097          	auipc	ra,0x6
    3954:	ed808093          	addi	ra,ra,-296 # 9828 <tdat>
    3958:	0040a183          	lw	gp,4(ra)
    395c:	00000013          	nop
    3960:	00000013          	nop
    3964:	00018313          	mv	t1,gp
    3968:	ff010eb7          	lui	t4,0xff010
    396c:	f00e8e93          	addi	t4,t4,-256 # ff00ff00 <pulp__FC+0xff00ff01>
    3970:	0fd31063          	bne	t1,t4,3a50 <fail>
    3974:	00120213          	addi	tp,tp,1 # 1 <reset_vec+0x1>
    3978:	00200293          	li	t0,2
    397c:	fc521ae3          	bne	tp,t0,3950 <test_14+0x8>

00003980 <test_15>:
    3980:	00f00e13          	li	t3,15
    3984:	00000213          	li	tp,0
    3988:	00006097          	auipc	ra,0x6
    398c:	ea408093          	addi	ra,ra,-348 # 982c <tdat2>
    3990:	0040a183          	lw	gp,4(ra)
    3994:	0ff01eb7          	lui	t4,0xff01
    3998:	ff0e8e93          	addi	t4,t4,-16 # ff00ff0 <end+0xfef7770>
    399c:	0bd19a63          	bne	gp,t4,3a50 <fail>
    39a0:	00120213          	addi	tp,tp,1 # 1 <reset_vec+0x1>
    39a4:	00200293          	li	t0,2
    39a8:	fe5210e3          	bne	tp,t0,3988 <test_15+0x8>

000039ac <test_16>:
    39ac:	01000e13          	li	t3,16
    39b0:	00000213          	li	tp,0
    39b4:	00006097          	auipc	ra,0x6
    39b8:	e7c08093          	addi	ra,ra,-388 # 9830 <tdat3>
    39bc:	00000013          	nop
    39c0:	0040a183          	lw	gp,4(ra)
    39c4:	f00ffeb7          	lui	t4,0xf00ff
    39c8:	00fe8e93          	addi	t4,t4,15 # f00ff00f <pulp__FC+0xf00ff010>
    39cc:	09d19263          	bne	gp,t4,3a50 <fail>
    39d0:	00120213          	addi	tp,tp,1 # 1 <reset_vec+0x1>
    39d4:	00200293          	li	t0,2
    39d8:	fc521ee3          	bne	tp,t0,39b4 <test_16+0x8>

000039dc <test_17>:
    39dc:	01100e13          	li	t3,17
    39e0:	00000213          	li	tp,0
    39e4:	00006097          	auipc	ra,0x6
    39e8:	e4408093          	addi	ra,ra,-444 # 9828 <tdat>
    39ec:	00000013          	nop
    39f0:	00000013          	nop
    39f4:	0040a183          	lw	gp,4(ra)
    39f8:	ff010eb7          	lui	t4,0xff010
    39fc:	f00e8e93          	addi	t4,t4,-256 # ff00ff00 <pulp__FC+0xff00ff01>
    3a00:	05d19863          	bne	gp,t4,3a50 <fail>
    3a04:	00120213          	addi	tp,tp,1 # 1 <reset_vec+0x1>
    3a08:	00200293          	li	t0,2
    3a0c:	fc521ce3          	bne	tp,t0,39e4 <test_17+0x8>

00003a10 <test_18>:
    3a10:	00006197          	auipc	gp,0x6
    3a14:	e1818193          	addi	gp,gp,-488 # 9828 <tdat>
    3a18:	0001a103          	lw	sp,0(gp)
    3a1c:	00200113          	li	sp,2
    3a20:	00200e93          	li	t4,2
    3a24:	01200e13          	li	t3,18
    3a28:	03d11463          	bne	sp,t4,3a50 <fail>

00003a2c <test_19>:
    3a2c:	00006197          	auipc	gp,0x6
    3a30:	dfc18193          	addi	gp,gp,-516 # 9828 <tdat>
    3a34:	0001a103          	lw	sp,0(gp)
    3a38:	00000013          	nop
    3a3c:	00200113          	li	sp,2
    3a40:	00200e93          	li	t4,2
    3a44:	01300e13          	li	t3,19
    3a48:	01d11463          	bne	sp,t4,3a50 <fail>
    3a4c:	03c01e63          	bne	zero,t3,3a88 <pass>

00003a50 <fail>:
    3a50:	10000537          	lui	a0,0x10000
    3a54:	04500593          	li	a1,69
    3a58:	05200613          	li	a2,82
    3a5c:	04f00693          	li	a3,79
    3a60:	00a00713          	li	a4,10
    3a64:	030e0793          	addi	a5,t3,48
    3a68:	00b52023          	sw	a1,0(a0) # 10000000 <end+0xfff6780>
    3a6c:	00c52023          	sw	a2,0(a0)
    3a70:	00c52023          	sw	a2,0(a0)
    3a74:	00d52023          	sw	a3,0(a0)
    3a78:	00c52023          	sw	a2,0(a0)
    3a7c:	00f52023          	sw	a5,0(a0)
    3a80:	00e52023          	sw	a4,0(a0)
    3a84:	00100073          	ebreak

00003a88 <pass>:
    3a88:	10000537          	lui	a0,0x10000
    3a8c:	04f00593          	li	a1,79
    3a90:	04b00613          	li	a2,75
    3a94:	00a00693          	li	a3,10
    3a98:	00b52023          	sw	a1,0(a0) # 10000000 <end+0xfff6780>
    3a9c:	00c52023          	sw	a2,0(a0)
    3aa0:	00d52023          	sw	a3,0(a0)
    3aa4:	e48fc06f          	j	ec <lw_ret>

00003aa8 <mul>:
    3aa8:	00004537          	lui	a0,0x4
    3aac:	ac850513          	addi	a0,a0,-1336 # 3ac8 <.test_name>
    3ab0:	10000637          	lui	a2,0x10000

00003ab4 <.prname_next>:
    3ab4:	00050583          	lb	a1,0(a0)
    3ab8:	00058a63          	beqz	a1,3acc <.prname_done>
    3abc:	00b62023          	sw	a1,0(a2) # 10000000 <end+0xfff6780>
    3ac0:	00150513          	addi	a0,a0,1
    3ac4:	ff1ff06f          	j	3ab4 <.prname_next>

00003ac8 <.test_name>:
    3ac8:	756d                	lui	a0,0xffffb
    3aca:	006c                	addi	a1,sp,12

00003acc <.prname_done>:
    3acc:	02e00593          	li	a1,46
    3ad0:	00b62023          	sw	a1,0(a2)
    3ad4:	00b62023          	sw	a1,0(a2)

00003ad8 <test_32>:
    3ad8:	000080b7          	lui	ra,0x8
    3adc:	e0008093          	addi	ra,ra,-512 # 7e00 <test_16+0x14>
    3ae0:	b6db7137          	lui	sp,0xb6db7
    3ae4:	db710113          	addi	sp,sp,-585 # b6db6db7 <pulp__FC+0xb6db6db8>
    3ae8:	022081b3          	mul	gp,ra,sp
    3aec:	00001eb7          	lui	t4,0x1
    3af0:	200e8e93          	addi	t4,t4,512 # 1200 <pass+0x4>
    3af4:	02000e13          	li	t3,32
    3af8:	4bd19463          	bne	gp,t4,3fa0 <fail>

00003afc <test_33>:
    3afc:	000080b7          	lui	ra,0x8
    3b00:	fc008093          	addi	ra,ra,-64 # 7fc0 <test_29+0x14>
    3b04:	b6db7137          	lui	sp,0xb6db7
    3b08:	db710113          	addi	sp,sp,-585 # b6db6db7 <pulp__FC+0xb6db6db8>
    3b0c:	022081b3          	mul	gp,ra,sp
    3b10:	00001eb7          	lui	t4,0x1
    3b14:	240e8e93          	addi	t4,t4,576 # 1240 <.test_name>
    3b18:	02100e13          	li	t3,33
    3b1c:	49d19263          	bne	gp,t4,3fa0 <fail>

00003b20 <test_2>:
    3b20:	00000093          	li	ra,0
    3b24:	00000113          	li	sp,0
    3b28:	022081b3          	mul	gp,ra,sp
    3b2c:	00000e93          	li	t4,0
    3b30:	00200e13          	li	t3,2
    3b34:	47d19663          	bne	gp,t4,3fa0 <fail>

00003b38 <test_3>:
    3b38:	00100093          	li	ra,1
    3b3c:	00100113          	li	sp,1
    3b40:	022081b3          	mul	gp,ra,sp
    3b44:	00100e93          	li	t4,1
    3b48:	00300e13          	li	t3,3
    3b4c:	45d19a63          	bne	gp,t4,3fa0 <fail>

00003b50 <test_4>:
    3b50:	00300093          	li	ra,3
    3b54:	00700113          	li	sp,7
    3b58:	022081b3          	mul	gp,ra,sp
    3b5c:	01500e93          	li	t4,21
    3b60:	00400e13          	li	t3,4
    3b64:	43d19e63          	bne	gp,t4,3fa0 <fail>

00003b68 <test_5>:
    3b68:	00000093          	li	ra,0
    3b6c:	ffff8137          	lui	sp,0xffff8
    3b70:	022081b3          	mul	gp,ra,sp
    3b74:	00000e93          	li	t4,0
    3b78:	00500e13          	li	t3,5
    3b7c:	43d19263          	bne	gp,t4,3fa0 <fail>

00003b80 <test_6>:
    3b80:	800000b7          	lui	ra,0x80000
    3b84:	00000113          	li	sp,0
    3b88:	022081b3          	mul	gp,ra,sp
    3b8c:	00000e93          	li	t4,0
    3b90:	00600e13          	li	t3,6
    3b94:	41d19663          	bne	gp,t4,3fa0 <fail>

00003b98 <test_7>:
    3b98:	800000b7          	lui	ra,0x80000
    3b9c:	ffff8137          	lui	sp,0xffff8
    3ba0:	022081b3          	mul	gp,ra,sp
    3ba4:	00000e93          	li	t4,0
    3ba8:	00700e13          	li	t3,7
    3bac:	3fd19a63          	bne	gp,t4,3fa0 <fail>

00003bb0 <test_30>:
    3bb0:	aaaab0b7          	lui	ra,0xaaaab
    3bb4:	aab08093          	addi	ra,ra,-1365 # aaaaaaab <pulp__FC+0xaaaaaaac>
    3bb8:	00030137          	lui	sp,0x30
    3bbc:	e7d10113          	addi	sp,sp,-387 # 2fe7d <end+0x265fd>
    3bc0:	022081b3          	mul	gp,ra,sp
    3bc4:	00010eb7          	lui	t4,0x10
    3bc8:	f7fe8e93          	addi	t4,t4,-129 # ff7f <end+0x66ff>
    3bcc:	01e00e13          	li	t3,30
    3bd0:	3dd19863          	bne	gp,t4,3fa0 <fail>

00003bd4 <test_31>:
    3bd4:	000300b7          	lui	ra,0x30
    3bd8:	e7d08093          	addi	ra,ra,-387 # 2fe7d <end+0x265fd>
    3bdc:	aaaab137          	lui	sp,0xaaaab
    3be0:	aab10113          	addi	sp,sp,-1365 # aaaaaaab <pulp__FC+0xaaaaaaac>
    3be4:	022081b3          	mul	gp,ra,sp
    3be8:	00010eb7          	lui	t4,0x10
    3bec:	f7fe8e93          	addi	t4,t4,-129 # ff7f <end+0x66ff>
    3bf0:	01f00e13          	li	t3,31
    3bf4:	3bd19663          	bne	gp,t4,3fa0 <fail>

00003bf8 <test_34>:
    3bf8:	ff0000b7          	lui	ra,0xff000
    3bfc:	ff000137          	lui	sp,0xff000
    3c00:	022081b3          	mul	gp,ra,sp
    3c04:	00000e93          	li	t4,0
    3c08:	02200e13          	li	t3,34
    3c0c:	39d19a63          	bne	gp,t4,3fa0 <fail>

00003c10 <test_35>:
    3c10:	fff00093          	li	ra,-1
    3c14:	fff00113          	li	sp,-1
    3c18:	022081b3          	mul	gp,ra,sp
    3c1c:	00100e93          	li	t4,1
    3c20:	02300e13          	li	t3,35
    3c24:	37d19e63          	bne	gp,t4,3fa0 <fail>

00003c28 <test_36>:
    3c28:	fff00093          	li	ra,-1
    3c2c:	00100113          	li	sp,1
    3c30:	022081b3          	mul	gp,ra,sp
    3c34:	fff00e93          	li	t4,-1
    3c38:	02400e13          	li	t3,36
    3c3c:	37d19263          	bne	gp,t4,3fa0 <fail>

00003c40 <test_37>:
    3c40:	00100093          	li	ra,1
    3c44:	fff00113          	li	sp,-1
    3c48:	022081b3          	mul	gp,ra,sp
    3c4c:	fff00e93          	li	t4,-1
    3c50:	02500e13          	li	t3,37
    3c54:	35d19663          	bne	gp,t4,3fa0 <fail>

00003c58 <test_8>:
    3c58:	00d00093          	li	ra,13
    3c5c:	00b00113          	li	sp,11
    3c60:	022080b3          	mul	ra,ra,sp
    3c64:	08f00e93          	li	t4,143
    3c68:	00800e13          	li	t3,8
    3c6c:	33d09a63          	bne	ra,t4,3fa0 <fail>

00003c70 <test_9>:
    3c70:	00e00093          	li	ra,14
    3c74:	00b00113          	li	sp,11
    3c78:	02208133          	mul	sp,ra,sp
    3c7c:	09a00e93          	li	t4,154
    3c80:	00900e13          	li	t3,9
    3c84:	31d11e63          	bne	sp,t4,3fa0 <fail>

00003c88 <test_10>:
    3c88:	00d00093          	li	ra,13
    3c8c:	021080b3          	mul	ra,ra,ra
    3c90:	0a900e93          	li	t4,169
    3c94:	00a00e13          	li	t3,10
    3c98:	31d09463          	bne	ra,t4,3fa0 <fail>

00003c9c <test_11>:
    3c9c:	00000213          	li	tp,0
    3ca0:	00d00093          	li	ra,13
    3ca4:	00b00113          	li	sp,11
    3ca8:	022081b3          	mul	gp,ra,sp
    3cac:	00018313          	mv	t1,gp
    3cb0:	00120213          	addi	tp,tp,1 # 1 <reset_vec+0x1>
    3cb4:	00200293          	li	t0,2
    3cb8:	fe5214e3          	bne	tp,t0,3ca0 <test_11+0x4>
    3cbc:	08f00e93          	li	t4,143
    3cc0:	00b00e13          	li	t3,11
    3cc4:	2dd31e63          	bne	t1,t4,3fa0 <fail>

00003cc8 <test_12>:
    3cc8:	00000213          	li	tp,0
    3ccc:	00e00093          	li	ra,14
    3cd0:	00b00113          	li	sp,11
    3cd4:	022081b3          	mul	gp,ra,sp
    3cd8:	00000013          	nop
    3cdc:	00018313          	mv	t1,gp
    3ce0:	00120213          	addi	tp,tp,1 # 1 <reset_vec+0x1>
    3ce4:	00200293          	li	t0,2
    3ce8:	fe5212e3          	bne	tp,t0,3ccc <test_12+0x4>
    3cec:	09a00e93          	li	t4,154
    3cf0:	00c00e13          	li	t3,12
    3cf4:	2bd31663          	bne	t1,t4,3fa0 <fail>

00003cf8 <test_13>:
    3cf8:	00000213          	li	tp,0
    3cfc:	00f00093          	li	ra,15
    3d00:	00b00113          	li	sp,11
    3d04:	022081b3          	mul	gp,ra,sp
    3d08:	00000013          	nop
    3d0c:	00000013          	nop
    3d10:	00018313          	mv	t1,gp
    3d14:	00120213          	addi	tp,tp,1 # 1 <reset_vec+0x1>
    3d18:	00200293          	li	t0,2
    3d1c:	fe5210e3          	bne	tp,t0,3cfc <test_13+0x4>
    3d20:	0a500e93          	li	t4,165
    3d24:	00d00e13          	li	t3,13
    3d28:	27d31c63          	bne	t1,t4,3fa0 <fail>

00003d2c <test_14>:
    3d2c:	00000213          	li	tp,0
    3d30:	00d00093          	li	ra,13
    3d34:	00b00113          	li	sp,11
    3d38:	022081b3          	mul	gp,ra,sp
    3d3c:	00120213          	addi	tp,tp,1 # 1 <reset_vec+0x1>
    3d40:	00200293          	li	t0,2
    3d44:	fe5216e3          	bne	tp,t0,3d30 <test_14+0x4>
    3d48:	08f00e93          	li	t4,143
    3d4c:	00e00e13          	li	t3,14
    3d50:	25d19863          	bne	gp,t4,3fa0 <fail>

00003d54 <test_15>:
    3d54:	00000213          	li	tp,0
    3d58:	00e00093          	li	ra,14
    3d5c:	00b00113          	li	sp,11
    3d60:	00000013          	nop
    3d64:	022081b3          	mul	gp,ra,sp
    3d68:	00120213          	addi	tp,tp,1 # 1 <reset_vec+0x1>
    3d6c:	00200293          	li	t0,2
    3d70:	fe5214e3          	bne	tp,t0,3d58 <test_15+0x4>
    3d74:	09a00e93          	li	t4,154
    3d78:	00f00e13          	li	t3,15
    3d7c:	23d19263          	bne	gp,t4,3fa0 <fail>

00003d80 <test_16>:
    3d80:	00000213          	li	tp,0
    3d84:	00f00093          	li	ra,15
    3d88:	00b00113          	li	sp,11
    3d8c:	00000013          	nop
    3d90:	00000013          	nop
    3d94:	022081b3          	mul	gp,ra,sp
    3d98:	00120213          	addi	tp,tp,1 # 1 <reset_vec+0x1>
    3d9c:	00200293          	li	t0,2
    3da0:	fe5212e3          	bne	tp,t0,3d84 <test_16+0x4>
    3da4:	0a500e93          	li	t4,165
    3da8:	01000e13          	li	t3,16
    3dac:	1fd19a63          	bne	gp,t4,3fa0 <fail>

00003db0 <test_17>:
    3db0:	00000213          	li	tp,0
    3db4:	00d00093          	li	ra,13
    3db8:	00000013          	nop
    3dbc:	00b00113          	li	sp,11
    3dc0:	022081b3          	mul	gp,ra,sp
    3dc4:	00120213          	addi	tp,tp,1 # 1 <reset_vec+0x1>
    3dc8:	00200293          	li	t0,2
    3dcc:	fe5214e3          	bne	tp,t0,3db4 <test_17+0x4>
    3dd0:	08f00e93          	li	t4,143
    3dd4:	01100e13          	li	t3,17
    3dd8:	1dd19463          	bne	gp,t4,3fa0 <fail>

00003ddc <test_18>:
    3ddc:	00000213          	li	tp,0
    3de0:	00e00093          	li	ra,14
    3de4:	00000013          	nop
    3de8:	00b00113          	li	sp,11
    3dec:	00000013          	nop
    3df0:	022081b3          	mul	gp,ra,sp
    3df4:	00120213          	addi	tp,tp,1 # 1 <reset_vec+0x1>
    3df8:	00200293          	li	t0,2
    3dfc:	fe5212e3          	bne	tp,t0,3de0 <test_18+0x4>
    3e00:	09a00e93          	li	t4,154
    3e04:	01200e13          	li	t3,18
    3e08:	19d19c63          	bne	gp,t4,3fa0 <fail>

00003e0c <test_19>:
    3e0c:	00000213          	li	tp,0
    3e10:	00f00093          	li	ra,15
    3e14:	00000013          	nop
    3e18:	00000013          	nop
    3e1c:	00b00113          	li	sp,11
    3e20:	022081b3          	mul	gp,ra,sp
    3e24:	00120213          	addi	tp,tp,1 # 1 <reset_vec+0x1>
    3e28:	00200293          	li	t0,2
    3e2c:	fe5212e3          	bne	tp,t0,3e10 <test_19+0x4>
    3e30:	0a500e93          	li	t4,165
    3e34:	01300e13          	li	t3,19
    3e38:	17d19463          	bne	gp,t4,3fa0 <fail>

00003e3c <test_20>:
    3e3c:	00000213          	li	tp,0
    3e40:	00b00113          	li	sp,11
    3e44:	00d00093          	li	ra,13
    3e48:	022081b3          	mul	gp,ra,sp
    3e4c:	00120213          	addi	tp,tp,1 # 1 <reset_vec+0x1>
    3e50:	00200293          	li	t0,2
    3e54:	fe5216e3          	bne	tp,t0,3e40 <test_20+0x4>
    3e58:	08f00e93          	li	t4,143
    3e5c:	01400e13          	li	t3,20
    3e60:	15d19063          	bne	gp,t4,3fa0 <fail>

00003e64 <test_21>:
    3e64:	00000213          	li	tp,0
    3e68:	00b00113          	li	sp,11
    3e6c:	00e00093          	li	ra,14
    3e70:	00000013          	nop
    3e74:	022081b3          	mul	gp,ra,sp
    3e78:	00120213          	addi	tp,tp,1 # 1 <reset_vec+0x1>
    3e7c:	00200293          	li	t0,2
    3e80:	fe5214e3          	bne	tp,t0,3e68 <test_21+0x4>
    3e84:	09a00e93          	li	t4,154
    3e88:	01500e13          	li	t3,21
    3e8c:	11d19a63          	bne	gp,t4,3fa0 <fail>

00003e90 <test_22>:
    3e90:	00000213          	li	tp,0
    3e94:	00b00113          	li	sp,11
    3e98:	00f00093          	li	ra,15
    3e9c:	00000013          	nop
    3ea0:	00000013          	nop
    3ea4:	022081b3          	mul	gp,ra,sp
    3ea8:	00120213          	addi	tp,tp,1 # 1 <reset_vec+0x1>
    3eac:	00200293          	li	t0,2
    3eb0:	fe5212e3          	bne	tp,t0,3e94 <test_22+0x4>
    3eb4:	0a500e93          	li	t4,165
    3eb8:	01600e13          	li	t3,22
    3ebc:	0fd19263          	bne	gp,t4,3fa0 <fail>

00003ec0 <test_23>:
    3ec0:	00000213          	li	tp,0
    3ec4:	00b00113          	li	sp,11
    3ec8:	00000013          	nop
    3ecc:	00d00093          	li	ra,13
    3ed0:	022081b3          	mul	gp,ra,sp
    3ed4:	00120213          	addi	tp,tp,1 # 1 <reset_vec+0x1>
    3ed8:	00200293          	li	t0,2
    3edc:	fe5214e3          	bne	tp,t0,3ec4 <test_23+0x4>
    3ee0:	08f00e93          	li	t4,143
    3ee4:	01700e13          	li	t3,23
    3ee8:	0bd19c63          	bne	gp,t4,3fa0 <fail>

00003eec <test_24>:
    3eec:	00000213          	li	tp,0
    3ef0:	00b00113          	li	sp,11
    3ef4:	00000013          	nop
    3ef8:	00e00093          	li	ra,14
    3efc:	00000013          	nop
    3f00:	022081b3          	mul	gp,ra,sp
    3f04:	00120213          	addi	tp,tp,1 # 1 <reset_vec+0x1>
    3f08:	00200293          	li	t0,2
    3f0c:	fe5212e3          	bne	tp,t0,3ef0 <test_24+0x4>
    3f10:	09a00e93          	li	t4,154
    3f14:	01800e13          	li	t3,24
    3f18:	09d19463          	bne	gp,t4,3fa0 <fail>

00003f1c <test_25>:
    3f1c:	00000213          	li	tp,0
    3f20:	00b00113          	li	sp,11
    3f24:	00000013          	nop
    3f28:	00000013          	nop
    3f2c:	00f00093          	li	ra,15
    3f30:	022081b3          	mul	gp,ra,sp
    3f34:	00120213          	addi	tp,tp,1 # 1 <reset_vec+0x1>
    3f38:	00200293          	li	t0,2
    3f3c:	fe5212e3          	bne	tp,t0,3f20 <test_25+0x4>
    3f40:	0a500e93          	li	t4,165
    3f44:	01900e13          	li	t3,25
    3f48:	05d19c63          	bne	gp,t4,3fa0 <fail>

00003f4c <test_26>:
    3f4c:	01f00093          	li	ra,31
    3f50:	02100133          	mul	sp,zero,ra
    3f54:	00000e93          	li	t4,0
    3f58:	01a00e13          	li	t3,26
    3f5c:	05d11263          	bne	sp,t4,3fa0 <fail>

00003f60 <test_27>:
    3f60:	02000093          	li	ra,32
    3f64:	02008133          	mul	sp,ra,zero
    3f68:	00000e93          	li	t4,0
    3f6c:	01b00e13          	li	t3,27
    3f70:	03d11863          	bne	sp,t4,3fa0 <fail>

00003f74 <test_28>:
    3f74:	020000b3          	mul	ra,zero,zero
    3f78:	00000e93          	li	t4,0
    3f7c:	01c00e13          	li	t3,28
    3f80:	03d09063          	bne	ra,t4,3fa0 <fail>

00003f84 <test_29>:
    3f84:	02100093          	li	ra,33
    3f88:	02200113          	li	sp,34
    3f8c:	02208033          	mul	zero,ra,sp
    3f90:	00000e93          	li	t4,0
    3f94:	01d00e13          	li	t3,29
    3f98:	01d01463          	bne	zero,t4,3fa0 <fail>
    3f9c:	03c01e63          	bne	zero,t3,3fd8 <pass>

00003fa0 <fail>:
    3fa0:	10000537          	lui	a0,0x10000
    3fa4:	04500593          	li	a1,69
    3fa8:	05200613          	li	a2,82
    3fac:	04f00693          	li	a3,79
    3fb0:	00a00713          	li	a4,10
    3fb4:	030e0793          	addi	a5,t3,48
    3fb8:	00b52023          	sw	a1,0(a0) # 10000000 <end+0xfff6780>
    3fbc:	00c52023          	sw	a2,0(a0)
    3fc0:	00c52023          	sw	a2,0(a0)
    3fc4:	00d52023          	sw	a3,0(a0)
    3fc8:	00c52023          	sw	a2,0(a0)
    3fcc:	00f52023          	sw	a5,0(a0)
    3fd0:	00e52023          	sw	a4,0(a0)
    3fd4:	00100073          	ebreak

00003fd8 <pass>:
    3fd8:	10000537          	lui	a0,0x10000
    3fdc:	04f00593          	li	a1,79
    3fe0:	04b00613          	li	a2,75
    3fe4:	00a00693          	li	a3,10
    3fe8:	00b52023          	sw	a1,0(a0) # 10000000 <end+0xfff6780>
    3fec:	00c52023          	sw	a2,0(a0)
    3ff0:	00d52023          	sw	a3,0(a0)
    3ff4:	9b0fc06f          	j	1a4 <mul_ret>

00003ff8 <mulh>:
    3ff8:	00004537          	lui	a0,0x4
    3ffc:	01850513          	addi	a0,a0,24 # 4018 <.test_name>
    4000:	10000637          	lui	a2,0x10000

00004004 <.prname_next>:
    4004:	00050583          	lb	a1,0(a0)
    4008:	00058c63          	beqz	a1,4020 <.prname_done>
    400c:	00b62023          	sw	a1,0(a2) # 10000000 <end+0xfff6780>
    4010:	00150513          	addi	a0,a0,1
    4014:	ff1ff06f          	j	4004 <.prname_next>

00004018 <.test_name>:
    4018:	756d                	lui	a0,0xffffb
    401a:	686c                	flw	fa1,84(s0)
    401c:	0000                	unimp
	...

00004020 <.prname_done>:
    4020:	02e00593          	li	a1,46
    4024:	00b62023          	sw	a1,0(a2)
    4028:	00b62023          	sw	a1,0(a2)

0000402c <test_2>:
    402c:	00000093          	li	ra,0
    4030:	00000113          	li	sp,0
    4034:	022091b3          	mulh	gp,ra,sp
    4038:	00000e93          	li	t4,0
    403c:	00200e13          	li	t3,2
    4040:	4bd19a63          	bne	gp,t4,44f4 <fail>

00004044 <test_3>:
    4044:	00100093          	li	ra,1
    4048:	00100113          	li	sp,1
    404c:	022091b3          	mulh	gp,ra,sp
    4050:	00000e93          	li	t4,0
    4054:	00300e13          	li	t3,3
    4058:	49d19e63          	bne	gp,t4,44f4 <fail>

0000405c <test_4>:
    405c:	00300093          	li	ra,3
    4060:	00700113          	li	sp,7
    4064:	022091b3          	mulh	gp,ra,sp
    4068:	00000e93          	li	t4,0
    406c:	00400e13          	li	t3,4
    4070:	49d19263          	bne	gp,t4,44f4 <fail>

00004074 <test_5>:
    4074:	00000093          	li	ra,0
    4078:	ffff8137          	lui	sp,0xffff8
    407c:	022091b3          	mulh	gp,ra,sp
    4080:	00000e93          	li	t4,0
    4084:	00500e13          	li	t3,5
    4088:	47d19663          	bne	gp,t4,44f4 <fail>

0000408c <test_6>:
    408c:	800000b7          	lui	ra,0x80000
    4090:	00000113          	li	sp,0
    4094:	022091b3          	mulh	gp,ra,sp
    4098:	00000e93          	li	t4,0
    409c:	00600e13          	li	t3,6
    40a0:	45d19a63          	bne	gp,t4,44f4 <fail>

000040a4 <test_7>:
    40a4:	800000b7          	lui	ra,0x80000
    40a8:	00000113          	li	sp,0
    40ac:	022091b3          	mulh	gp,ra,sp
    40b0:	00000e93          	li	t4,0
    40b4:	00700e13          	li	t3,7
    40b8:	43d19e63          	bne	gp,t4,44f4 <fail>

000040bc <test_30>:
    40bc:	aaaab0b7          	lui	ra,0xaaaab
    40c0:	aab08093          	addi	ra,ra,-1365 # aaaaaaab <pulp__FC+0xaaaaaaac>
    40c4:	00030137          	lui	sp,0x30
    40c8:	e7d10113          	addi	sp,sp,-387 # 2fe7d <end+0x265fd>
    40cc:	022091b3          	mulh	gp,ra,sp
    40d0:	ffff0eb7          	lui	t4,0xffff0
    40d4:	081e8e93          	addi	t4,t4,129 # ffff0081 <pulp__FC+0xffff0082>
    40d8:	01e00e13          	li	t3,30
    40dc:	41d19c63          	bne	gp,t4,44f4 <fail>

000040e0 <test_31>:
    40e0:	000300b7          	lui	ra,0x30
    40e4:	e7d08093          	addi	ra,ra,-387 # 2fe7d <end+0x265fd>
    40e8:	aaaab137          	lui	sp,0xaaaab
    40ec:	aab10113          	addi	sp,sp,-1365 # aaaaaaab <pulp__FC+0xaaaaaaac>
    40f0:	022091b3          	mulh	gp,ra,sp
    40f4:	ffff0eb7          	lui	t4,0xffff0
    40f8:	081e8e93          	addi	t4,t4,129 # ffff0081 <pulp__FC+0xffff0082>
    40fc:	01f00e13          	li	t3,31
    4100:	3fd19a63          	bne	gp,t4,44f4 <fail>

00004104 <test_32>:
    4104:	ff0000b7          	lui	ra,0xff000
    4108:	ff000137          	lui	sp,0xff000
    410c:	022091b3          	mulh	gp,ra,sp
    4110:	00010eb7          	lui	t4,0x10
    4114:	02000e13          	li	t3,32
    4118:	3dd19e63          	bne	gp,t4,44f4 <fail>

0000411c <test_33>:
    411c:	fff00093          	li	ra,-1
    4120:	fff00113          	li	sp,-1
    4124:	022091b3          	mulh	gp,ra,sp
    4128:	00000e93          	li	t4,0
    412c:	02100e13          	li	t3,33
    4130:	3dd19263          	bne	gp,t4,44f4 <fail>

00004134 <test_34>:
    4134:	fff00093          	li	ra,-1
    4138:	00100113          	li	sp,1
    413c:	022091b3          	mulh	gp,ra,sp
    4140:	fff00e93          	li	t4,-1
    4144:	02200e13          	li	t3,34
    4148:	3bd19663          	bne	gp,t4,44f4 <fail>

0000414c <test_35>:
    414c:	00100093          	li	ra,1
    4150:	fff00113          	li	sp,-1
    4154:	022091b3          	mulh	gp,ra,sp
    4158:	fff00e93          	li	t4,-1
    415c:	02300e13          	li	t3,35
    4160:	39d19a63          	bne	gp,t4,44f4 <fail>

00004164 <test_8>:
    4164:	00d000b7          	lui	ra,0xd00
    4168:	00b00137          	lui	sp,0xb00
    416c:	022090b3          	mulh	ra,ra,sp
    4170:	00009eb7          	lui	t4,0x9
    4174:	f00e8e93          	addi	t4,t4,-256 # 8f00 <test_21+0x10>
    4178:	00800e13          	li	t3,8
    417c:	37d09c63          	bne	ra,t4,44f4 <fail>

00004180 <test_9>:
    4180:	00e000b7          	lui	ra,0xe00
    4184:	00b00137          	lui	sp,0xb00
    4188:	02209133          	mulh	sp,ra,sp
    418c:	0000aeb7          	lui	t4,0xa
    4190:	a00e8e93          	addi	t4,t4,-1536 # 9a00 <end+0x180>
    4194:	00900e13          	li	t3,9
    4198:	35d11e63          	bne	sp,t4,44f4 <fail>

0000419c <test_10>:
    419c:	00d000b7          	lui	ra,0xd00
    41a0:	021090b3          	mulh	ra,ra,ra
    41a4:	0000beb7          	lui	t4,0xb
    41a8:	900e8e93          	addi	t4,t4,-1792 # a900 <end+0x1080>
    41ac:	00a00e13          	li	t3,10
    41b0:	35d09263          	bne	ra,t4,44f4 <fail>

000041b4 <test_11>:
    41b4:	00000213          	li	tp,0
    41b8:	00d000b7          	lui	ra,0xd00
    41bc:	00b00137          	lui	sp,0xb00
    41c0:	022091b3          	mulh	gp,ra,sp
    41c4:	00018313          	mv	t1,gp
    41c8:	00120213          	addi	tp,tp,1 # 1 <reset_vec+0x1>
    41cc:	00200293          	li	t0,2
    41d0:	fe5214e3          	bne	tp,t0,41b8 <test_11+0x4>
    41d4:	00009eb7          	lui	t4,0x9
    41d8:	f00e8e93          	addi	t4,t4,-256 # 8f00 <test_21+0x10>
    41dc:	00b00e13          	li	t3,11
    41e0:	31d31a63          	bne	t1,t4,44f4 <fail>

000041e4 <test_12>:
    41e4:	00000213          	li	tp,0
    41e8:	00e000b7          	lui	ra,0xe00
    41ec:	00b00137          	lui	sp,0xb00
    41f0:	022091b3          	mulh	gp,ra,sp
    41f4:	00000013          	nop
    41f8:	00018313          	mv	t1,gp
    41fc:	00120213          	addi	tp,tp,1 # 1 <reset_vec+0x1>
    4200:	00200293          	li	t0,2
    4204:	fe5212e3          	bne	tp,t0,41e8 <test_12+0x4>
    4208:	0000aeb7          	lui	t4,0xa
    420c:	a00e8e93          	addi	t4,t4,-1536 # 9a00 <end+0x180>
    4210:	00c00e13          	li	t3,12
    4214:	2fd31063          	bne	t1,t4,44f4 <fail>

00004218 <test_13>:
    4218:	00000213          	li	tp,0
    421c:	00f000b7          	lui	ra,0xf00
    4220:	00b00137          	lui	sp,0xb00
    4224:	022091b3          	mulh	gp,ra,sp
    4228:	00000013          	nop
    422c:	00000013          	nop
    4230:	00018313          	mv	t1,gp
    4234:	00120213          	addi	tp,tp,1 # 1 <reset_vec+0x1>
    4238:	00200293          	li	t0,2
    423c:	fe5210e3          	bne	tp,t0,421c <test_13+0x4>
    4240:	0000aeb7          	lui	t4,0xa
    4244:	500e8e93          	addi	t4,t4,1280 # a500 <end+0xc80>
    4248:	00d00e13          	li	t3,13
    424c:	2bd31463          	bne	t1,t4,44f4 <fail>

00004250 <test_14>:
    4250:	00000213          	li	tp,0
    4254:	00d000b7          	lui	ra,0xd00
    4258:	00b00137          	lui	sp,0xb00
    425c:	022091b3          	mulh	gp,ra,sp
    4260:	00120213          	addi	tp,tp,1 # 1 <reset_vec+0x1>
    4264:	00200293          	li	t0,2
    4268:	fe5216e3          	bne	tp,t0,4254 <test_14+0x4>
    426c:	00009eb7          	lui	t4,0x9
    4270:	f00e8e93          	addi	t4,t4,-256 # 8f00 <test_21+0x10>
    4274:	00e00e13          	li	t3,14
    4278:	27d19e63          	bne	gp,t4,44f4 <fail>

0000427c <test_15>:
    427c:	00000213          	li	tp,0
    4280:	00e000b7          	lui	ra,0xe00
    4284:	00b00137          	lui	sp,0xb00
    4288:	00000013          	nop
    428c:	022091b3          	mulh	gp,ra,sp
    4290:	00120213          	addi	tp,tp,1 # 1 <reset_vec+0x1>
    4294:	00200293          	li	t0,2
    4298:	fe5214e3          	bne	tp,t0,4280 <test_15+0x4>
    429c:	0000aeb7          	lui	t4,0xa
    42a0:	a00e8e93          	addi	t4,t4,-1536 # 9a00 <end+0x180>
    42a4:	00f00e13          	li	t3,15
    42a8:	25d19663          	bne	gp,t4,44f4 <fail>

000042ac <test_16>:
    42ac:	00000213          	li	tp,0
    42b0:	00f000b7          	lui	ra,0xf00
    42b4:	00b00137          	lui	sp,0xb00
    42b8:	00000013          	nop
    42bc:	00000013          	nop
    42c0:	022091b3          	mulh	gp,ra,sp
    42c4:	00120213          	addi	tp,tp,1 # 1 <reset_vec+0x1>
    42c8:	00200293          	li	t0,2
    42cc:	fe5212e3          	bne	tp,t0,42b0 <test_16+0x4>
    42d0:	0000aeb7          	lui	t4,0xa
    42d4:	500e8e93          	addi	t4,t4,1280 # a500 <end+0xc80>
    42d8:	01000e13          	li	t3,16
    42dc:	21d19c63          	bne	gp,t4,44f4 <fail>

000042e0 <test_17>:
    42e0:	00000213          	li	tp,0
    42e4:	00d000b7          	lui	ra,0xd00
    42e8:	00000013          	nop
    42ec:	00b00137          	lui	sp,0xb00
    42f0:	022091b3          	mulh	gp,ra,sp
    42f4:	00120213          	addi	tp,tp,1 # 1 <reset_vec+0x1>
    42f8:	00200293          	li	t0,2
    42fc:	fe5214e3          	bne	tp,t0,42e4 <test_17+0x4>
    4300:	00009eb7          	lui	t4,0x9
    4304:	f00e8e93          	addi	t4,t4,-256 # 8f00 <test_21+0x10>
    4308:	01100e13          	li	t3,17
    430c:	1fd19463          	bne	gp,t4,44f4 <fail>

00004310 <test_18>:
    4310:	00000213          	li	tp,0
    4314:	00e000b7          	lui	ra,0xe00
    4318:	00000013          	nop
    431c:	00b00137          	lui	sp,0xb00
    4320:	00000013          	nop
    4324:	022091b3          	mulh	gp,ra,sp
    4328:	00120213          	addi	tp,tp,1 # 1 <reset_vec+0x1>
    432c:	00200293          	li	t0,2
    4330:	fe5212e3          	bne	tp,t0,4314 <test_18+0x4>
    4334:	0000aeb7          	lui	t4,0xa
    4338:	a00e8e93          	addi	t4,t4,-1536 # 9a00 <end+0x180>
    433c:	01200e13          	li	t3,18
    4340:	1bd19a63          	bne	gp,t4,44f4 <fail>

00004344 <test_19>:
    4344:	00000213          	li	tp,0
    4348:	00f000b7          	lui	ra,0xf00
    434c:	00000013          	nop
    4350:	00000013          	nop
    4354:	00b00137          	lui	sp,0xb00
    4358:	022091b3          	mulh	gp,ra,sp
    435c:	00120213          	addi	tp,tp,1 # 1 <reset_vec+0x1>
    4360:	00200293          	li	t0,2
    4364:	fe5212e3          	bne	tp,t0,4348 <test_19+0x4>
    4368:	0000aeb7          	lui	t4,0xa
    436c:	500e8e93          	addi	t4,t4,1280 # a500 <end+0xc80>
    4370:	01300e13          	li	t3,19
    4374:	19d19063          	bne	gp,t4,44f4 <fail>

00004378 <test_20>:
    4378:	00000213          	li	tp,0
    437c:	00b00137          	lui	sp,0xb00
    4380:	00d000b7          	lui	ra,0xd00
    4384:	022091b3          	mulh	gp,ra,sp
    4388:	00120213          	addi	tp,tp,1 # 1 <reset_vec+0x1>
    438c:	00200293          	li	t0,2
    4390:	fe5216e3          	bne	tp,t0,437c <test_20+0x4>
    4394:	00009eb7          	lui	t4,0x9
    4398:	f00e8e93          	addi	t4,t4,-256 # 8f00 <test_21+0x10>
    439c:	01400e13          	li	t3,20
    43a0:	15d19a63          	bne	gp,t4,44f4 <fail>

000043a4 <test_21>:
    43a4:	00000213          	li	tp,0
    43a8:	00b00137          	lui	sp,0xb00
    43ac:	00e000b7          	lui	ra,0xe00
    43b0:	00000013          	nop
    43b4:	022091b3          	mulh	gp,ra,sp
    43b8:	00120213          	addi	tp,tp,1 # 1 <reset_vec+0x1>
    43bc:	00200293          	li	t0,2
    43c0:	fe5214e3          	bne	tp,t0,43a8 <test_21+0x4>
    43c4:	0000aeb7          	lui	t4,0xa
    43c8:	a00e8e93          	addi	t4,t4,-1536 # 9a00 <end+0x180>
    43cc:	01500e13          	li	t3,21
    43d0:	13d19263          	bne	gp,t4,44f4 <fail>

000043d4 <test_22>:
    43d4:	00000213          	li	tp,0
    43d8:	00b00137          	lui	sp,0xb00
    43dc:	00f000b7          	lui	ra,0xf00
    43e0:	00000013          	nop
    43e4:	00000013          	nop
    43e8:	022091b3          	mulh	gp,ra,sp
    43ec:	00120213          	addi	tp,tp,1 # 1 <reset_vec+0x1>
    43f0:	00200293          	li	t0,2
    43f4:	fe5212e3          	bne	tp,t0,43d8 <test_22+0x4>
    43f8:	0000aeb7          	lui	t4,0xa
    43fc:	500e8e93          	addi	t4,t4,1280 # a500 <end+0xc80>
    4400:	01600e13          	li	t3,22
    4404:	0fd19863          	bne	gp,t4,44f4 <fail>

00004408 <test_23>:
    4408:	00000213          	li	tp,0
    440c:	00b00137          	lui	sp,0xb00
    4410:	00000013          	nop
    4414:	00d000b7          	lui	ra,0xd00
    4418:	022091b3          	mulh	gp,ra,sp
    441c:	00120213          	addi	tp,tp,1 # 1 <reset_vec+0x1>
    4420:	00200293          	li	t0,2
    4424:	fe5214e3          	bne	tp,t0,440c <test_23+0x4>
    4428:	00009eb7          	lui	t4,0x9
    442c:	f00e8e93          	addi	t4,t4,-256 # 8f00 <test_21+0x10>
    4430:	01700e13          	li	t3,23
    4434:	0dd19063          	bne	gp,t4,44f4 <fail>

00004438 <test_24>:
    4438:	00000213          	li	tp,0
    443c:	00b00137          	lui	sp,0xb00
    4440:	00000013          	nop
    4444:	00e000b7          	lui	ra,0xe00
    4448:	00000013          	nop
    444c:	022091b3          	mulh	gp,ra,sp
    4450:	00120213          	addi	tp,tp,1 # 1 <reset_vec+0x1>
    4454:	00200293          	li	t0,2
    4458:	fe5212e3          	bne	tp,t0,443c <test_24+0x4>
    445c:	0000aeb7          	lui	t4,0xa
    4460:	a00e8e93          	addi	t4,t4,-1536 # 9a00 <end+0x180>
    4464:	01800e13          	li	t3,24
    4468:	09d19663          	bne	gp,t4,44f4 <fail>

0000446c <test_25>:
    446c:	00000213          	li	tp,0
    4470:	00b00137          	lui	sp,0xb00
    4474:	00000013          	nop
    4478:	00000013          	nop
    447c:	00f000b7          	lui	ra,0xf00
    4480:	022091b3          	mulh	gp,ra,sp
    4484:	00120213          	addi	tp,tp,1 # 1 <reset_vec+0x1>
    4488:	00200293          	li	t0,2
    448c:	fe5212e3          	bne	tp,t0,4470 <test_25+0x4>
    4490:	0000aeb7          	lui	t4,0xa
    4494:	500e8e93          	addi	t4,t4,1280 # a500 <end+0xc80>
    4498:	01900e13          	li	t3,25
    449c:	05d19c63          	bne	gp,t4,44f4 <fail>

000044a0 <test_26>:
    44a0:	7c0000b7          	lui	ra,0x7c000
    44a4:	02101133          	mulh	sp,zero,ra
    44a8:	00000e93          	li	t4,0
    44ac:	01a00e13          	li	t3,26
    44b0:	05d11263          	bne	sp,t4,44f4 <fail>

000044b4 <test_27>:
    44b4:	800000b7          	lui	ra,0x80000
    44b8:	02009133          	mulh	sp,ra,zero
    44bc:	00000e93          	li	t4,0
    44c0:	01b00e13          	li	t3,27
    44c4:	03d11863          	bne	sp,t4,44f4 <fail>

000044c8 <test_28>:
    44c8:	020010b3          	mulh	ra,zero,zero
    44cc:	00000e93          	li	t4,0
    44d0:	01c00e13          	li	t3,28
    44d4:	03d09063          	bne	ra,t4,44f4 <fail>

000044d8 <test_29>:
    44d8:	021000b7          	lui	ra,0x2100
    44dc:	02200137          	lui	sp,0x2200
    44e0:	02209033          	mulh	zero,ra,sp
    44e4:	00000e93          	li	t4,0
    44e8:	01d00e13          	li	t3,29
    44ec:	01d01463          	bne	zero,t4,44f4 <fail>
    44f0:	03c01e63          	bne	zero,t3,452c <pass>

000044f4 <fail>:
    44f4:	10000537          	lui	a0,0x10000
    44f8:	04500593          	li	a1,69
    44fc:	05200613          	li	a2,82
    4500:	04f00693          	li	a3,79
    4504:	00a00713          	li	a4,10
    4508:	030e0793          	addi	a5,t3,48
    450c:	00b52023          	sw	a1,0(a0) # 10000000 <end+0xfff6780>
    4510:	00c52023          	sw	a2,0(a0)
    4514:	00c52023          	sw	a2,0(a0)
    4518:	00d52023          	sw	a3,0(a0)
    451c:	00c52023          	sw	a2,0(a0)
    4520:	00f52023          	sw	a5,0(a0)
    4524:	00e52023          	sw	a4,0(a0)
    4528:	00100073          	ebreak

0000452c <pass>:
    452c:	10000537          	lui	a0,0x10000
    4530:	04f00593          	li	a1,79
    4534:	04b00613          	li	a2,75
    4538:	00a00693          	li	a3,10
    453c:	00b52023          	sw	a1,0(a0) # 10000000 <end+0xfff6780>
    4540:	00c52023          	sw	a2,0(a0)
    4544:	00d52023          	sw	a3,0(a0)
    4548:	c6dfb06f          	j	1b4 <mulh_ret>

0000454c <mulhsu>:
    454c:	00004537          	lui	a0,0x4
    4550:	56c50513          	addi	a0,a0,1388 # 456c <.test_name>
    4554:	10000637          	lui	a2,0x10000

00004558 <.prname_next>:
    4558:	00050583          	lb	a1,0(a0)
    455c:	00058c63          	beqz	a1,4574 <.prname_done>
    4560:	00b62023          	sw	a1,0(a2) # 10000000 <end+0xfff6780>
    4564:	00150513          	addi	a0,a0,1
    4568:	ff1ff06f          	j	4558 <.prname_next>

0000456c <.test_name>:
    456c:	756d                	lui	a0,0xffffb
    456e:	686c                	flw	fa1,84(s0)
    4570:	00007573          	csrrci	a0,0x0,0

00004574 <.prname_done>:
    4574:	02e00593          	li	a1,46
    4578:	00b62023          	sw	a1,0(a2)
    457c:	00b62023          	sw	a1,0(a2)

00004580 <test_2>:
    4580:	00000093          	li	ra,0
    4584:	00000113          	li	sp,0
    4588:	0220a1b3          	mulhsu	gp,ra,sp
    458c:	00000e93          	li	t4,0
    4590:	00200e13          	li	t3,2
    4594:	4bd19a63          	bne	gp,t4,4a48 <fail>

00004598 <test_3>:
    4598:	00100093          	li	ra,1
    459c:	00100113          	li	sp,1
    45a0:	0220a1b3          	mulhsu	gp,ra,sp
    45a4:	00000e93          	li	t4,0
    45a8:	00300e13          	li	t3,3
    45ac:	49d19e63          	bne	gp,t4,4a48 <fail>

000045b0 <test_4>:
    45b0:	00300093          	li	ra,3
    45b4:	00700113          	li	sp,7
    45b8:	0220a1b3          	mulhsu	gp,ra,sp
    45bc:	00000e93          	li	t4,0
    45c0:	00400e13          	li	t3,4
    45c4:	49d19263          	bne	gp,t4,4a48 <fail>

000045c8 <test_5>:
    45c8:	00000093          	li	ra,0
    45cc:	ffff8137          	lui	sp,0xffff8
    45d0:	0220a1b3          	mulhsu	gp,ra,sp
    45d4:	00000e93          	li	t4,0
    45d8:	00500e13          	li	t3,5
    45dc:	47d19663          	bne	gp,t4,4a48 <fail>

000045e0 <test_6>:
    45e0:	800000b7          	lui	ra,0x80000
    45e4:	00000113          	li	sp,0
    45e8:	0220a1b3          	mulhsu	gp,ra,sp
    45ec:	00000e93          	li	t4,0
    45f0:	00600e13          	li	t3,6
    45f4:	45d19a63          	bne	gp,t4,4a48 <fail>

000045f8 <test_7>:
    45f8:	800000b7          	lui	ra,0x80000
    45fc:	ffff8137          	lui	sp,0xffff8
    4600:	0220a1b3          	mulhsu	gp,ra,sp
    4604:	80004eb7          	lui	t4,0x80004
    4608:	00700e13          	li	t3,7
    460c:	43d19e63          	bne	gp,t4,4a48 <fail>

00004610 <test_30>:
    4610:	aaaab0b7          	lui	ra,0xaaaab
    4614:	aab08093          	addi	ra,ra,-1365 # aaaaaaab <pulp__FC+0xaaaaaaac>
    4618:	00030137          	lui	sp,0x30
    461c:	e7d10113          	addi	sp,sp,-387 # 2fe7d <end+0x265fd>
    4620:	0220a1b3          	mulhsu	gp,ra,sp
    4624:	ffff0eb7          	lui	t4,0xffff0
    4628:	081e8e93          	addi	t4,t4,129 # ffff0081 <pulp__FC+0xffff0082>
    462c:	01e00e13          	li	t3,30
    4630:	41d19c63          	bne	gp,t4,4a48 <fail>

00004634 <test_31>:
    4634:	000300b7          	lui	ra,0x30
    4638:	e7d08093          	addi	ra,ra,-387 # 2fe7d <end+0x265fd>
    463c:	aaaab137          	lui	sp,0xaaaab
    4640:	aab10113          	addi	sp,sp,-1365 # aaaaaaab <pulp__FC+0xaaaaaaac>
    4644:	0220a1b3          	mulhsu	gp,ra,sp
    4648:	00020eb7          	lui	t4,0x20
    464c:	efee8e93          	addi	t4,t4,-258 # 1fefe <end+0x1667e>
    4650:	01f00e13          	li	t3,31
    4654:	3fd19a63          	bne	gp,t4,4a48 <fail>

00004658 <test_32>:
    4658:	ff0000b7          	lui	ra,0xff000
    465c:	ff000137          	lui	sp,0xff000
    4660:	0220a1b3          	mulhsu	gp,ra,sp
    4664:	ff010eb7          	lui	t4,0xff010
    4668:	02000e13          	li	t3,32
    466c:	3dd19e63          	bne	gp,t4,4a48 <fail>

00004670 <test_33>:
    4670:	fff00093          	li	ra,-1
    4674:	fff00113          	li	sp,-1
    4678:	0220a1b3          	mulhsu	gp,ra,sp
    467c:	fff00e93          	li	t4,-1
    4680:	02100e13          	li	t3,33
    4684:	3dd19263          	bne	gp,t4,4a48 <fail>

00004688 <test_34>:
    4688:	fff00093          	li	ra,-1
    468c:	00100113          	li	sp,1
    4690:	0220a1b3          	mulhsu	gp,ra,sp
    4694:	fff00e93          	li	t4,-1
    4698:	02200e13          	li	t3,34
    469c:	3bd19663          	bne	gp,t4,4a48 <fail>

000046a0 <test_35>:
    46a0:	00100093          	li	ra,1
    46a4:	fff00113          	li	sp,-1
    46a8:	0220a1b3          	mulhsu	gp,ra,sp
    46ac:	00000e93          	li	t4,0
    46b0:	02300e13          	li	t3,35
    46b4:	39d19a63          	bne	gp,t4,4a48 <fail>

000046b8 <test_8>:
    46b8:	00d000b7          	lui	ra,0xd00
    46bc:	00b00137          	lui	sp,0xb00
    46c0:	0220a0b3          	mulhsu	ra,ra,sp
    46c4:	00009eb7          	lui	t4,0x9
    46c8:	f00e8e93          	addi	t4,t4,-256 # 8f00 <test_21+0x10>
    46cc:	00800e13          	li	t3,8
    46d0:	37d09c63          	bne	ra,t4,4a48 <fail>

000046d4 <test_9>:
    46d4:	00e000b7          	lui	ra,0xe00
    46d8:	00b00137          	lui	sp,0xb00
    46dc:	0220a133          	mulhsu	sp,ra,sp
    46e0:	0000aeb7          	lui	t4,0xa
    46e4:	a00e8e93          	addi	t4,t4,-1536 # 9a00 <end+0x180>
    46e8:	00900e13          	li	t3,9
    46ec:	35d11e63          	bne	sp,t4,4a48 <fail>

000046f0 <test_10>:
    46f0:	00d000b7          	lui	ra,0xd00
    46f4:	0210a0b3          	mulhsu	ra,ra,ra
    46f8:	0000beb7          	lui	t4,0xb
    46fc:	900e8e93          	addi	t4,t4,-1792 # a900 <end+0x1080>
    4700:	00a00e13          	li	t3,10
    4704:	35d09263          	bne	ra,t4,4a48 <fail>

00004708 <test_11>:
    4708:	00000213          	li	tp,0
    470c:	00d000b7          	lui	ra,0xd00
    4710:	00b00137          	lui	sp,0xb00
    4714:	0220a1b3          	mulhsu	gp,ra,sp
    4718:	00018313          	mv	t1,gp
    471c:	00120213          	addi	tp,tp,1 # 1 <reset_vec+0x1>
    4720:	00200293          	li	t0,2
    4724:	fe5214e3          	bne	tp,t0,470c <test_11+0x4>
    4728:	00009eb7          	lui	t4,0x9
    472c:	f00e8e93          	addi	t4,t4,-256 # 8f00 <test_21+0x10>
    4730:	00b00e13          	li	t3,11
    4734:	31d31a63          	bne	t1,t4,4a48 <fail>

00004738 <test_12>:
    4738:	00000213          	li	tp,0
    473c:	00e000b7          	lui	ra,0xe00
    4740:	00b00137          	lui	sp,0xb00
    4744:	0220a1b3          	mulhsu	gp,ra,sp
    4748:	00000013          	nop
    474c:	00018313          	mv	t1,gp
    4750:	00120213          	addi	tp,tp,1 # 1 <reset_vec+0x1>
    4754:	00200293          	li	t0,2
    4758:	fe5212e3          	bne	tp,t0,473c <test_12+0x4>
    475c:	0000aeb7          	lui	t4,0xa
    4760:	a00e8e93          	addi	t4,t4,-1536 # 9a00 <end+0x180>
    4764:	00c00e13          	li	t3,12
    4768:	2fd31063          	bne	t1,t4,4a48 <fail>

0000476c <test_13>:
    476c:	00000213          	li	tp,0
    4770:	00f000b7          	lui	ra,0xf00
    4774:	00b00137          	lui	sp,0xb00
    4778:	0220a1b3          	mulhsu	gp,ra,sp
    477c:	00000013          	nop
    4780:	00000013          	nop
    4784:	00018313          	mv	t1,gp
    4788:	00120213          	addi	tp,tp,1 # 1 <reset_vec+0x1>
    478c:	00200293          	li	t0,2
    4790:	fe5210e3          	bne	tp,t0,4770 <test_13+0x4>
    4794:	0000aeb7          	lui	t4,0xa
    4798:	500e8e93          	addi	t4,t4,1280 # a500 <end+0xc80>
    479c:	00d00e13          	li	t3,13
    47a0:	2bd31463          	bne	t1,t4,4a48 <fail>

000047a4 <test_14>:
    47a4:	00000213          	li	tp,0
    47a8:	00d000b7          	lui	ra,0xd00
    47ac:	00b00137          	lui	sp,0xb00
    47b0:	0220a1b3          	mulhsu	gp,ra,sp
    47b4:	00120213          	addi	tp,tp,1 # 1 <reset_vec+0x1>
    47b8:	00200293          	li	t0,2
    47bc:	fe5216e3          	bne	tp,t0,47a8 <test_14+0x4>
    47c0:	00009eb7          	lui	t4,0x9
    47c4:	f00e8e93          	addi	t4,t4,-256 # 8f00 <test_21+0x10>
    47c8:	00e00e13          	li	t3,14
    47cc:	27d19e63          	bne	gp,t4,4a48 <fail>

000047d0 <test_15>:
    47d0:	00000213          	li	tp,0
    47d4:	00e000b7          	lui	ra,0xe00
    47d8:	00b00137          	lui	sp,0xb00
    47dc:	00000013          	nop
    47e0:	0220a1b3          	mulhsu	gp,ra,sp
    47e4:	00120213          	addi	tp,tp,1 # 1 <reset_vec+0x1>
    47e8:	00200293          	li	t0,2
    47ec:	fe5214e3          	bne	tp,t0,47d4 <test_15+0x4>
    47f0:	0000aeb7          	lui	t4,0xa
    47f4:	a00e8e93          	addi	t4,t4,-1536 # 9a00 <end+0x180>
    47f8:	00f00e13          	li	t3,15
    47fc:	25d19663          	bne	gp,t4,4a48 <fail>

00004800 <test_16>:
    4800:	00000213          	li	tp,0
    4804:	00f000b7          	lui	ra,0xf00
    4808:	00b00137          	lui	sp,0xb00
    480c:	00000013          	nop
    4810:	00000013          	nop
    4814:	0220a1b3          	mulhsu	gp,ra,sp
    4818:	00120213          	addi	tp,tp,1 # 1 <reset_vec+0x1>
    481c:	00200293          	li	t0,2
    4820:	fe5212e3          	bne	tp,t0,4804 <test_16+0x4>
    4824:	0000aeb7          	lui	t4,0xa
    4828:	500e8e93          	addi	t4,t4,1280 # a500 <end+0xc80>
    482c:	01000e13          	li	t3,16
    4830:	21d19c63          	bne	gp,t4,4a48 <fail>

00004834 <test_17>:
    4834:	00000213          	li	tp,0
    4838:	00d000b7          	lui	ra,0xd00
    483c:	00000013          	nop
    4840:	00b00137          	lui	sp,0xb00
    4844:	0220a1b3          	mulhsu	gp,ra,sp
    4848:	00120213          	addi	tp,tp,1 # 1 <reset_vec+0x1>
    484c:	00200293          	li	t0,2
    4850:	fe5214e3          	bne	tp,t0,4838 <test_17+0x4>
    4854:	00009eb7          	lui	t4,0x9
    4858:	f00e8e93          	addi	t4,t4,-256 # 8f00 <test_21+0x10>
    485c:	01100e13          	li	t3,17
    4860:	1fd19463          	bne	gp,t4,4a48 <fail>

00004864 <test_18>:
    4864:	00000213          	li	tp,0
    4868:	00e000b7          	lui	ra,0xe00
    486c:	00000013          	nop
    4870:	00b00137          	lui	sp,0xb00
    4874:	00000013          	nop
    4878:	0220a1b3          	mulhsu	gp,ra,sp
    487c:	00120213          	addi	tp,tp,1 # 1 <reset_vec+0x1>
    4880:	00200293          	li	t0,2
    4884:	fe5212e3          	bne	tp,t0,4868 <test_18+0x4>
    4888:	0000aeb7          	lui	t4,0xa
    488c:	a00e8e93          	addi	t4,t4,-1536 # 9a00 <end+0x180>
    4890:	01200e13          	li	t3,18
    4894:	1bd19a63          	bne	gp,t4,4a48 <fail>

00004898 <test_19>:
    4898:	00000213          	li	tp,0
    489c:	00f000b7          	lui	ra,0xf00
    48a0:	00000013          	nop
    48a4:	00000013          	nop
    48a8:	00b00137          	lui	sp,0xb00
    48ac:	0220a1b3          	mulhsu	gp,ra,sp
    48b0:	00120213          	addi	tp,tp,1 # 1 <reset_vec+0x1>
    48b4:	00200293          	li	t0,2
    48b8:	fe5212e3          	bne	tp,t0,489c <test_19+0x4>
    48bc:	0000aeb7          	lui	t4,0xa
    48c0:	500e8e93          	addi	t4,t4,1280 # a500 <end+0xc80>
    48c4:	01300e13          	li	t3,19
    48c8:	19d19063          	bne	gp,t4,4a48 <fail>

000048cc <test_20>:
    48cc:	00000213          	li	tp,0
    48d0:	00b00137          	lui	sp,0xb00
    48d4:	00d000b7          	lui	ra,0xd00
    48d8:	0220a1b3          	mulhsu	gp,ra,sp
    48dc:	00120213          	addi	tp,tp,1 # 1 <reset_vec+0x1>
    48e0:	00200293          	li	t0,2
    48e4:	fe5216e3          	bne	tp,t0,48d0 <test_20+0x4>
    48e8:	00009eb7          	lui	t4,0x9
    48ec:	f00e8e93          	addi	t4,t4,-256 # 8f00 <test_21+0x10>
    48f0:	01400e13          	li	t3,20
    48f4:	15d19a63          	bne	gp,t4,4a48 <fail>

000048f8 <test_21>:
    48f8:	00000213          	li	tp,0
    48fc:	00b00137          	lui	sp,0xb00
    4900:	00e000b7          	lui	ra,0xe00
    4904:	00000013          	nop
    4908:	0220a1b3          	mulhsu	gp,ra,sp
    490c:	00120213          	addi	tp,tp,1 # 1 <reset_vec+0x1>
    4910:	00200293          	li	t0,2
    4914:	fe5214e3          	bne	tp,t0,48fc <test_21+0x4>
    4918:	0000aeb7          	lui	t4,0xa
    491c:	a00e8e93          	addi	t4,t4,-1536 # 9a00 <end+0x180>
    4920:	01500e13          	li	t3,21
    4924:	13d19263          	bne	gp,t4,4a48 <fail>

00004928 <test_22>:
    4928:	00000213          	li	tp,0
    492c:	00b00137          	lui	sp,0xb00
    4930:	00f000b7          	lui	ra,0xf00
    4934:	00000013          	nop
    4938:	00000013          	nop
    493c:	0220a1b3          	mulhsu	gp,ra,sp
    4940:	00120213          	addi	tp,tp,1 # 1 <reset_vec+0x1>
    4944:	00200293          	li	t0,2
    4948:	fe5212e3          	bne	tp,t0,492c <test_22+0x4>
    494c:	0000aeb7          	lui	t4,0xa
    4950:	500e8e93          	addi	t4,t4,1280 # a500 <end+0xc80>
    4954:	01600e13          	li	t3,22
    4958:	0fd19863          	bne	gp,t4,4a48 <fail>

0000495c <test_23>:
    495c:	00000213          	li	tp,0
    4960:	00b00137          	lui	sp,0xb00
    4964:	00000013          	nop
    4968:	00d000b7          	lui	ra,0xd00
    496c:	0220a1b3          	mulhsu	gp,ra,sp
    4970:	00120213          	addi	tp,tp,1 # 1 <reset_vec+0x1>
    4974:	00200293          	li	t0,2
    4978:	fe5214e3          	bne	tp,t0,4960 <test_23+0x4>
    497c:	00009eb7          	lui	t4,0x9
    4980:	f00e8e93          	addi	t4,t4,-256 # 8f00 <test_21+0x10>
    4984:	01700e13          	li	t3,23
    4988:	0dd19063          	bne	gp,t4,4a48 <fail>

0000498c <test_24>:
    498c:	00000213          	li	tp,0
    4990:	00b00137          	lui	sp,0xb00
    4994:	00000013          	nop
    4998:	00e000b7          	lui	ra,0xe00
    499c:	00000013          	nop
    49a0:	0220a1b3          	mulhsu	gp,ra,sp
    49a4:	00120213          	addi	tp,tp,1 # 1 <reset_vec+0x1>
    49a8:	00200293          	li	t0,2
    49ac:	fe5212e3          	bne	tp,t0,4990 <test_24+0x4>
    49b0:	0000aeb7          	lui	t4,0xa
    49b4:	a00e8e93          	addi	t4,t4,-1536 # 9a00 <end+0x180>
    49b8:	01800e13          	li	t3,24
    49bc:	09d19663          	bne	gp,t4,4a48 <fail>

000049c0 <test_25>:
    49c0:	00000213          	li	tp,0
    49c4:	00b00137          	lui	sp,0xb00
    49c8:	00000013          	nop
    49cc:	00000013          	nop
    49d0:	00f000b7          	lui	ra,0xf00
    49d4:	0220a1b3          	mulhsu	gp,ra,sp
    49d8:	00120213          	addi	tp,tp,1 # 1 <reset_vec+0x1>
    49dc:	00200293          	li	t0,2
    49e0:	fe5212e3          	bne	tp,t0,49c4 <test_25+0x4>
    49e4:	0000aeb7          	lui	t4,0xa
    49e8:	500e8e93          	addi	t4,t4,1280 # a500 <end+0xc80>
    49ec:	01900e13          	li	t3,25
    49f0:	05d19c63          	bne	gp,t4,4a48 <fail>

000049f4 <test_26>:
    49f4:	7c0000b7          	lui	ra,0x7c000
    49f8:	02102133          	mulhsu	sp,zero,ra
    49fc:	00000e93          	li	t4,0
    4a00:	01a00e13          	li	t3,26
    4a04:	05d11263          	bne	sp,t4,4a48 <fail>

00004a08 <test_27>:
    4a08:	800000b7          	lui	ra,0x80000
    4a0c:	0200a133          	mulhsu	sp,ra,zero
    4a10:	00000e93          	li	t4,0
    4a14:	01b00e13          	li	t3,27
    4a18:	03d11863          	bne	sp,t4,4a48 <fail>

00004a1c <test_28>:
    4a1c:	020020b3          	mulhsu	ra,zero,zero
    4a20:	00000e93          	li	t4,0
    4a24:	01c00e13          	li	t3,28
    4a28:	03d09063          	bne	ra,t4,4a48 <fail>

00004a2c <test_29>:
    4a2c:	021000b7          	lui	ra,0x2100
    4a30:	02200137          	lui	sp,0x2200
    4a34:	0220a033          	mulhsu	zero,ra,sp
    4a38:	00000e93          	li	t4,0
    4a3c:	01d00e13          	li	t3,29
    4a40:	01d01463          	bne	zero,t4,4a48 <fail>
    4a44:	03c01e63          	bne	zero,t3,4a80 <pass>

00004a48 <fail>:
    4a48:	10000537          	lui	a0,0x10000
    4a4c:	04500593          	li	a1,69
    4a50:	05200613          	li	a2,82
    4a54:	04f00693          	li	a3,79
    4a58:	00a00713          	li	a4,10
    4a5c:	030e0793          	addi	a5,t3,48
    4a60:	00b52023          	sw	a1,0(a0) # 10000000 <end+0xfff6780>
    4a64:	00c52023          	sw	a2,0(a0)
    4a68:	00c52023          	sw	a2,0(a0)
    4a6c:	00d52023          	sw	a3,0(a0)
    4a70:	00c52023          	sw	a2,0(a0)
    4a74:	00f52023          	sw	a5,0(a0)
    4a78:	00e52023          	sw	a4,0(a0)
    4a7c:	00100073          	ebreak

00004a80 <pass>:
    4a80:	10000537          	lui	a0,0x10000
    4a84:	04f00593          	li	a1,79
    4a88:	04b00613          	li	a2,75
    4a8c:	00a00693          	li	a3,10
    4a90:	00b52023          	sw	a1,0(a0) # 10000000 <end+0xfff6780>
    4a94:	00c52023          	sw	a2,0(a0)
    4a98:	00d52023          	sw	a3,0(a0)
    4a9c:	f20fb06f          	j	1bc <mulhsu_ret>

00004aa0 <mulhu>:
    4aa0:	00005537          	lui	a0,0x5
    4aa4:	ac050513          	addi	a0,a0,-1344 # 4ac0 <.test_name>
    4aa8:	10000637          	lui	a2,0x10000

00004aac <.prname_next>:
    4aac:	00050583          	lb	a1,0(a0)
    4ab0:	00058c63          	beqz	a1,4ac8 <.prname_done>
    4ab4:	00b62023          	sw	a1,0(a2) # 10000000 <end+0xfff6780>
    4ab8:	00150513          	addi	a0,a0,1
    4abc:	ff1ff06f          	j	4aac <.prname_next>

00004ac0 <.test_name>:
    4ac0:	756d                	lui	a0,0xffffb
    4ac2:	686c                	flw	fa1,84(s0)
    4ac4:	0075                	c.addi	zero,29
	...

00004ac8 <.prname_done>:
    4ac8:	02e00593          	li	a1,46
    4acc:	00b62023          	sw	a1,0(a2)
    4ad0:	00b62023          	sw	a1,0(a2)

00004ad4 <test_2>:
    4ad4:	00000093          	li	ra,0
    4ad8:	00000113          	li	sp,0
    4adc:	0220b1b3          	mulhu	gp,ra,sp
    4ae0:	00000e93          	li	t4,0
    4ae4:	00200e13          	li	t3,2
    4ae8:	4bd19a63          	bne	gp,t4,4f9c <fail>

00004aec <test_3>:
    4aec:	00100093          	li	ra,1
    4af0:	00100113          	li	sp,1
    4af4:	0220b1b3          	mulhu	gp,ra,sp
    4af8:	00000e93          	li	t4,0
    4afc:	00300e13          	li	t3,3
    4b00:	49d19e63          	bne	gp,t4,4f9c <fail>

00004b04 <test_4>:
    4b04:	00300093          	li	ra,3
    4b08:	00700113          	li	sp,7
    4b0c:	0220b1b3          	mulhu	gp,ra,sp
    4b10:	00000e93          	li	t4,0
    4b14:	00400e13          	li	t3,4
    4b18:	49d19263          	bne	gp,t4,4f9c <fail>

00004b1c <test_5>:
    4b1c:	00000093          	li	ra,0
    4b20:	ffff8137          	lui	sp,0xffff8
    4b24:	0220b1b3          	mulhu	gp,ra,sp
    4b28:	00000e93          	li	t4,0
    4b2c:	00500e13          	li	t3,5
    4b30:	47d19663          	bne	gp,t4,4f9c <fail>

00004b34 <test_6>:
    4b34:	800000b7          	lui	ra,0x80000
    4b38:	00000113          	li	sp,0
    4b3c:	0220b1b3          	mulhu	gp,ra,sp
    4b40:	00000e93          	li	t4,0
    4b44:	00600e13          	li	t3,6
    4b48:	45d19a63          	bne	gp,t4,4f9c <fail>

00004b4c <test_7>:
    4b4c:	800000b7          	lui	ra,0x80000
    4b50:	ffff8137          	lui	sp,0xffff8
    4b54:	0220b1b3          	mulhu	gp,ra,sp
    4b58:	7fffceb7          	lui	t4,0x7fffc
    4b5c:	00700e13          	li	t3,7
    4b60:	43d19e63          	bne	gp,t4,4f9c <fail>

00004b64 <test_30>:
    4b64:	aaaab0b7          	lui	ra,0xaaaab
    4b68:	aab08093          	addi	ra,ra,-1365 # aaaaaaab <pulp__FC+0xaaaaaaac>
    4b6c:	00030137          	lui	sp,0x30
    4b70:	e7d10113          	addi	sp,sp,-387 # 2fe7d <end+0x265fd>
    4b74:	0220b1b3          	mulhu	gp,ra,sp
    4b78:	00020eb7          	lui	t4,0x20
    4b7c:	efee8e93          	addi	t4,t4,-258 # 1fefe <end+0x1667e>
    4b80:	01e00e13          	li	t3,30
    4b84:	41d19c63          	bne	gp,t4,4f9c <fail>

00004b88 <test_31>:
    4b88:	000300b7          	lui	ra,0x30
    4b8c:	e7d08093          	addi	ra,ra,-387 # 2fe7d <end+0x265fd>
    4b90:	aaaab137          	lui	sp,0xaaaab
    4b94:	aab10113          	addi	sp,sp,-1365 # aaaaaaab <pulp__FC+0xaaaaaaac>
    4b98:	0220b1b3          	mulhu	gp,ra,sp
    4b9c:	00020eb7          	lui	t4,0x20
    4ba0:	efee8e93          	addi	t4,t4,-258 # 1fefe <end+0x1667e>
    4ba4:	01f00e13          	li	t3,31
    4ba8:	3fd19a63          	bne	gp,t4,4f9c <fail>

00004bac <test_32>:
    4bac:	ff0000b7          	lui	ra,0xff000
    4bb0:	ff000137          	lui	sp,0xff000
    4bb4:	0220b1b3          	mulhu	gp,ra,sp
    4bb8:	fe010eb7          	lui	t4,0xfe010
    4bbc:	02000e13          	li	t3,32
    4bc0:	3dd19e63          	bne	gp,t4,4f9c <fail>

00004bc4 <test_33>:
    4bc4:	fff00093          	li	ra,-1
    4bc8:	fff00113          	li	sp,-1
    4bcc:	0220b1b3          	mulhu	gp,ra,sp
    4bd0:	ffe00e93          	li	t4,-2
    4bd4:	02100e13          	li	t3,33
    4bd8:	3dd19263          	bne	gp,t4,4f9c <fail>

00004bdc <test_34>:
    4bdc:	fff00093          	li	ra,-1
    4be0:	00100113          	li	sp,1
    4be4:	0220b1b3          	mulhu	gp,ra,sp
    4be8:	00000e93          	li	t4,0
    4bec:	02200e13          	li	t3,34
    4bf0:	3bd19663          	bne	gp,t4,4f9c <fail>

00004bf4 <test_35>:
    4bf4:	00100093          	li	ra,1
    4bf8:	fff00113          	li	sp,-1
    4bfc:	0220b1b3          	mulhu	gp,ra,sp
    4c00:	00000e93          	li	t4,0
    4c04:	02300e13          	li	t3,35
    4c08:	39d19a63          	bne	gp,t4,4f9c <fail>

00004c0c <test_8>:
    4c0c:	00d000b7          	lui	ra,0xd00
    4c10:	00b00137          	lui	sp,0xb00
    4c14:	0220b0b3          	mulhu	ra,ra,sp
    4c18:	00009eb7          	lui	t4,0x9
    4c1c:	f00e8e93          	addi	t4,t4,-256 # 8f00 <test_21+0x10>
    4c20:	00800e13          	li	t3,8
    4c24:	37d09c63          	bne	ra,t4,4f9c <fail>

00004c28 <test_9>:
    4c28:	00e000b7          	lui	ra,0xe00
    4c2c:	00b00137          	lui	sp,0xb00
    4c30:	0220b133          	mulhu	sp,ra,sp
    4c34:	0000aeb7          	lui	t4,0xa
    4c38:	a00e8e93          	addi	t4,t4,-1536 # 9a00 <end+0x180>
    4c3c:	00900e13          	li	t3,9
    4c40:	35d11e63          	bne	sp,t4,4f9c <fail>

00004c44 <test_10>:
    4c44:	00d000b7          	lui	ra,0xd00
    4c48:	0210b0b3          	mulhu	ra,ra,ra
    4c4c:	0000beb7          	lui	t4,0xb
    4c50:	900e8e93          	addi	t4,t4,-1792 # a900 <end+0x1080>
    4c54:	00a00e13          	li	t3,10
    4c58:	35d09263          	bne	ra,t4,4f9c <fail>

00004c5c <test_11>:
    4c5c:	00000213          	li	tp,0
    4c60:	00d000b7          	lui	ra,0xd00
    4c64:	00b00137          	lui	sp,0xb00
    4c68:	0220b1b3          	mulhu	gp,ra,sp
    4c6c:	00018313          	mv	t1,gp
    4c70:	00120213          	addi	tp,tp,1 # 1 <reset_vec+0x1>
    4c74:	00200293          	li	t0,2
    4c78:	fe5214e3          	bne	tp,t0,4c60 <test_11+0x4>
    4c7c:	00009eb7          	lui	t4,0x9
    4c80:	f00e8e93          	addi	t4,t4,-256 # 8f00 <test_21+0x10>
    4c84:	00b00e13          	li	t3,11
    4c88:	31d31a63          	bne	t1,t4,4f9c <fail>

00004c8c <test_12>:
    4c8c:	00000213          	li	tp,0
    4c90:	00e000b7          	lui	ra,0xe00
    4c94:	00b00137          	lui	sp,0xb00
    4c98:	0220b1b3          	mulhu	gp,ra,sp
    4c9c:	00000013          	nop
    4ca0:	00018313          	mv	t1,gp
    4ca4:	00120213          	addi	tp,tp,1 # 1 <reset_vec+0x1>
    4ca8:	00200293          	li	t0,2
    4cac:	fe5212e3          	bne	tp,t0,4c90 <test_12+0x4>
    4cb0:	0000aeb7          	lui	t4,0xa
    4cb4:	a00e8e93          	addi	t4,t4,-1536 # 9a00 <end+0x180>
    4cb8:	00c00e13          	li	t3,12
    4cbc:	2fd31063          	bne	t1,t4,4f9c <fail>

00004cc0 <test_13>:
    4cc0:	00000213          	li	tp,0
    4cc4:	00f000b7          	lui	ra,0xf00
    4cc8:	00b00137          	lui	sp,0xb00
    4ccc:	0220b1b3          	mulhu	gp,ra,sp
    4cd0:	00000013          	nop
    4cd4:	00000013          	nop
    4cd8:	00018313          	mv	t1,gp
    4cdc:	00120213          	addi	tp,tp,1 # 1 <reset_vec+0x1>
    4ce0:	00200293          	li	t0,2
    4ce4:	fe5210e3          	bne	tp,t0,4cc4 <test_13+0x4>
    4ce8:	0000aeb7          	lui	t4,0xa
    4cec:	500e8e93          	addi	t4,t4,1280 # a500 <end+0xc80>
    4cf0:	00d00e13          	li	t3,13
    4cf4:	2bd31463          	bne	t1,t4,4f9c <fail>

00004cf8 <test_14>:
    4cf8:	00000213          	li	tp,0
    4cfc:	00d000b7          	lui	ra,0xd00
    4d00:	00b00137          	lui	sp,0xb00
    4d04:	0220b1b3          	mulhu	gp,ra,sp
    4d08:	00120213          	addi	tp,tp,1 # 1 <reset_vec+0x1>
    4d0c:	00200293          	li	t0,2
    4d10:	fe5216e3          	bne	tp,t0,4cfc <test_14+0x4>
    4d14:	00009eb7          	lui	t4,0x9
    4d18:	f00e8e93          	addi	t4,t4,-256 # 8f00 <test_21+0x10>
    4d1c:	00e00e13          	li	t3,14
    4d20:	27d19e63          	bne	gp,t4,4f9c <fail>

00004d24 <test_15>:
    4d24:	00000213          	li	tp,0
    4d28:	00e000b7          	lui	ra,0xe00
    4d2c:	00b00137          	lui	sp,0xb00
    4d30:	00000013          	nop
    4d34:	0220b1b3          	mulhu	gp,ra,sp
    4d38:	00120213          	addi	tp,tp,1 # 1 <reset_vec+0x1>
    4d3c:	00200293          	li	t0,2
    4d40:	fe5214e3          	bne	tp,t0,4d28 <test_15+0x4>
    4d44:	0000aeb7          	lui	t4,0xa
    4d48:	a00e8e93          	addi	t4,t4,-1536 # 9a00 <end+0x180>
    4d4c:	00f00e13          	li	t3,15
    4d50:	25d19663          	bne	gp,t4,4f9c <fail>

00004d54 <test_16>:
    4d54:	00000213          	li	tp,0
    4d58:	00f000b7          	lui	ra,0xf00
    4d5c:	00b00137          	lui	sp,0xb00
    4d60:	00000013          	nop
    4d64:	00000013          	nop
    4d68:	0220b1b3          	mulhu	gp,ra,sp
    4d6c:	00120213          	addi	tp,tp,1 # 1 <reset_vec+0x1>
    4d70:	00200293          	li	t0,2
    4d74:	fe5212e3          	bne	tp,t0,4d58 <test_16+0x4>
    4d78:	0000aeb7          	lui	t4,0xa
    4d7c:	500e8e93          	addi	t4,t4,1280 # a500 <end+0xc80>
    4d80:	01000e13          	li	t3,16
    4d84:	21d19c63          	bne	gp,t4,4f9c <fail>

00004d88 <test_17>:
    4d88:	00000213          	li	tp,0
    4d8c:	00d000b7          	lui	ra,0xd00
    4d90:	00000013          	nop
    4d94:	00b00137          	lui	sp,0xb00
    4d98:	0220b1b3          	mulhu	gp,ra,sp
    4d9c:	00120213          	addi	tp,tp,1 # 1 <reset_vec+0x1>
    4da0:	00200293          	li	t0,2
    4da4:	fe5214e3          	bne	tp,t0,4d8c <test_17+0x4>
    4da8:	00009eb7          	lui	t4,0x9
    4dac:	f00e8e93          	addi	t4,t4,-256 # 8f00 <test_21+0x10>
    4db0:	01100e13          	li	t3,17
    4db4:	1fd19463          	bne	gp,t4,4f9c <fail>

00004db8 <test_18>:
    4db8:	00000213          	li	tp,0
    4dbc:	00e000b7          	lui	ra,0xe00
    4dc0:	00000013          	nop
    4dc4:	00b00137          	lui	sp,0xb00
    4dc8:	00000013          	nop
    4dcc:	0220b1b3          	mulhu	gp,ra,sp
    4dd0:	00120213          	addi	tp,tp,1 # 1 <reset_vec+0x1>
    4dd4:	00200293          	li	t0,2
    4dd8:	fe5212e3          	bne	tp,t0,4dbc <test_18+0x4>
    4ddc:	0000aeb7          	lui	t4,0xa
    4de0:	a00e8e93          	addi	t4,t4,-1536 # 9a00 <end+0x180>
    4de4:	01200e13          	li	t3,18
    4de8:	1bd19a63          	bne	gp,t4,4f9c <fail>

00004dec <test_19>:
    4dec:	00000213          	li	tp,0
    4df0:	00f000b7          	lui	ra,0xf00
    4df4:	00000013          	nop
    4df8:	00000013          	nop
    4dfc:	00b00137          	lui	sp,0xb00
    4e00:	0220b1b3          	mulhu	gp,ra,sp
    4e04:	00120213          	addi	tp,tp,1 # 1 <reset_vec+0x1>
    4e08:	00200293          	li	t0,2
    4e0c:	fe5212e3          	bne	tp,t0,4df0 <test_19+0x4>
    4e10:	0000aeb7          	lui	t4,0xa
    4e14:	500e8e93          	addi	t4,t4,1280 # a500 <end+0xc80>
    4e18:	01300e13          	li	t3,19
    4e1c:	19d19063          	bne	gp,t4,4f9c <fail>

00004e20 <test_20>:
    4e20:	00000213          	li	tp,0
    4e24:	00b00137          	lui	sp,0xb00
    4e28:	00d000b7          	lui	ra,0xd00
    4e2c:	0220b1b3          	mulhu	gp,ra,sp
    4e30:	00120213          	addi	tp,tp,1 # 1 <reset_vec+0x1>
    4e34:	00200293          	li	t0,2
    4e38:	fe5216e3          	bne	tp,t0,4e24 <test_20+0x4>
    4e3c:	00009eb7          	lui	t4,0x9
    4e40:	f00e8e93          	addi	t4,t4,-256 # 8f00 <test_21+0x10>
    4e44:	01400e13          	li	t3,20
    4e48:	15d19a63          	bne	gp,t4,4f9c <fail>

00004e4c <test_21>:
    4e4c:	00000213          	li	tp,0
    4e50:	00b00137          	lui	sp,0xb00
    4e54:	00e000b7          	lui	ra,0xe00
    4e58:	00000013          	nop
    4e5c:	0220b1b3          	mulhu	gp,ra,sp
    4e60:	00120213          	addi	tp,tp,1 # 1 <reset_vec+0x1>
    4e64:	00200293          	li	t0,2
    4e68:	fe5214e3          	bne	tp,t0,4e50 <test_21+0x4>
    4e6c:	0000aeb7          	lui	t4,0xa
    4e70:	a00e8e93          	addi	t4,t4,-1536 # 9a00 <end+0x180>
    4e74:	01500e13          	li	t3,21
    4e78:	13d19263          	bne	gp,t4,4f9c <fail>

00004e7c <test_22>:
    4e7c:	00000213          	li	tp,0
    4e80:	00b00137          	lui	sp,0xb00
    4e84:	00f000b7          	lui	ra,0xf00
    4e88:	00000013          	nop
    4e8c:	00000013          	nop
    4e90:	0220b1b3          	mulhu	gp,ra,sp
    4e94:	00120213          	addi	tp,tp,1 # 1 <reset_vec+0x1>
    4e98:	00200293          	li	t0,2
    4e9c:	fe5212e3          	bne	tp,t0,4e80 <test_22+0x4>
    4ea0:	0000aeb7          	lui	t4,0xa
    4ea4:	500e8e93          	addi	t4,t4,1280 # a500 <end+0xc80>
    4ea8:	01600e13          	li	t3,22
    4eac:	0fd19863          	bne	gp,t4,4f9c <fail>

00004eb0 <test_23>:
    4eb0:	00000213          	li	tp,0
    4eb4:	00b00137          	lui	sp,0xb00
    4eb8:	00000013          	nop
    4ebc:	00d000b7          	lui	ra,0xd00
    4ec0:	0220b1b3          	mulhu	gp,ra,sp
    4ec4:	00120213          	addi	tp,tp,1 # 1 <reset_vec+0x1>
    4ec8:	00200293          	li	t0,2
    4ecc:	fe5214e3          	bne	tp,t0,4eb4 <test_23+0x4>
    4ed0:	00009eb7          	lui	t4,0x9
    4ed4:	f00e8e93          	addi	t4,t4,-256 # 8f00 <test_21+0x10>
    4ed8:	01700e13          	li	t3,23
    4edc:	0dd19063          	bne	gp,t4,4f9c <fail>

00004ee0 <test_24>:
    4ee0:	00000213          	li	tp,0
    4ee4:	00b00137          	lui	sp,0xb00
    4ee8:	00000013          	nop
    4eec:	00e000b7          	lui	ra,0xe00
    4ef0:	00000013          	nop
    4ef4:	0220b1b3          	mulhu	gp,ra,sp
    4ef8:	00120213          	addi	tp,tp,1 # 1 <reset_vec+0x1>
    4efc:	00200293          	li	t0,2
    4f00:	fe5212e3          	bne	tp,t0,4ee4 <test_24+0x4>
    4f04:	0000aeb7          	lui	t4,0xa
    4f08:	a00e8e93          	addi	t4,t4,-1536 # 9a00 <end+0x180>
    4f0c:	01800e13          	li	t3,24
    4f10:	09d19663          	bne	gp,t4,4f9c <fail>

00004f14 <test_25>:
    4f14:	00000213          	li	tp,0
    4f18:	00b00137          	lui	sp,0xb00
    4f1c:	00000013          	nop
    4f20:	00000013          	nop
    4f24:	00f000b7          	lui	ra,0xf00
    4f28:	0220b1b3          	mulhu	gp,ra,sp
    4f2c:	00120213          	addi	tp,tp,1 # 1 <reset_vec+0x1>
    4f30:	00200293          	li	t0,2
    4f34:	fe5212e3          	bne	tp,t0,4f18 <test_25+0x4>
    4f38:	0000aeb7          	lui	t4,0xa
    4f3c:	500e8e93          	addi	t4,t4,1280 # a500 <end+0xc80>
    4f40:	01900e13          	li	t3,25
    4f44:	05d19c63          	bne	gp,t4,4f9c <fail>

00004f48 <test_26>:
    4f48:	7c0000b7          	lui	ra,0x7c000
    4f4c:	02103133          	mulhu	sp,zero,ra
    4f50:	00000e93          	li	t4,0
    4f54:	01a00e13          	li	t3,26
    4f58:	05d11263          	bne	sp,t4,4f9c <fail>

00004f5c <test_27>:
    4f5c:	800000b7          	lui	ra,0x80000
    4f60:	0200b133          	mulhu	sp,ra,zero
    4f64:	00000e93          	li	t4,0
    4f68:	01b00e13          	li	t3,27
    4f6c:	03d11863          	bne	sp,t4,4f9c <fail>

00004f70 <test_28>:
    4f70:	020030b3          	mulhu	ra,zero,zero
    4f74:	00000e93          	li	t4,0
    4f78:	01c00e13          	li	t3,28
    4f7c:	03d09063          	bne	ra,t4,4f9c <fail>

00004f80 <test_29>:
    4f80:	021000b7          	lui	ra,0x2100
    4f84:	02200137          	lui	sp,0x2200
    4f88:	0220b033          	mulhu	zero,ra,sp
    4f8c:	00000e93          	li	t4,0
    4f90:	01d00e13          	li	t3,29
    4f94:	01d01463          	bne	zero,t4,4f9c <fail>
    4f98:	03c01e63          	bne	zero,t3,4fd4 <pass>

00004f9c <fail>:
    4f9c:	10000537          	lui	a0,0x10000
    4fa0:	04500593          	li	a1,69
    4fa4:	05200613          	li	a2,82
    4fa8:	04f00693          	li	a3,79
    4fac:	00a00713          	li	a4,10
    4fb0:	030e0793          	addi	a5,t3,48
    4fb4:	00b52023          	sw	a1,0(a0) # 10000000 <end+0xfff6780>
    4fb8:	00c52023          	sw	a2,0(a0)
    4fbc:	00c52023          	sw	a2,0(a0)
    4fc0:	00d52023          	sw	a3,0(a0)
    4fc4:	00c52023          	sw	a2,0(a0)
    4fc8:	00f52023          	sw	a5,0(a0)
    4fcc:	00e52023          	sw	a4,0(a0)
    4fd0:	00100073          	ebreak

00004fd4 <pass>:
    4fd4:	10000537          	lui	a0,0x10000
    4fd8:	04f00593          	li	a1,79
    4fdc:	04b00613          	li	a2,75
    4fe0:	00a00693          	li	a3,10
    4fe4:	00b52023          	sw	a1,0(a0) # 10000000 <end+0xfff6780>
    4fe8:	00c52023          	sw	a2,0(a0)
    4fec:	00d52023          	sw	a3,0(a0)
    4ff0:	9bcfb06f          	j	1ac <mulhu_ret>

00004ff4 <or>:
    4ff4:	00005537          	lui	a0,0x5
    4ff8:	01450513          	addi	a0,a0,20 # 5014 <.test_name>
    4ffc:	10000637          	lui	a2,0x10000

00005000 <.prname_next>:
    5000:	00050583          	lb	a1,0(a0)
    5004:	00058a63          	beqz	a1,5018 <.prname_done>
    5008:	00b62023          	sw	a1,0(a2) # 10000000 <end+0xfff6780>
    500c:	00150513          	addi	a0,a0,1
    5010:	ff1ff06f          	j	5000 <.prname_next>

00005014 <.test_name>:
    5014:	0000726f          	jal	tp,c014 <end+0x2794>

00005018 <.prname_done>:
    5018:	02e00593          	li	a1,46
    501c:	00b62023          	sw	a1,0(a2)
    5020:	00b62023          	sw	a1,0(a2)

00005024 <test_2>:
    5024:	ff0100b7          	lui	ra,0xff010
    5028:	f0008093          	addi	ra,ra,-256 # ff00ff00 <pulp__FC+0xff00ff01>
    502c:	0f0f1137          	lui	sp,0xf0f1
    5030:	f0f10113          	addi	sp,sp,-241 # f0f0f0f <end+0xf0e768f>
    5034:	0020e1b3          	or	gp,ra,sp
    5038:	ff100eb7          	lui	t4,0xff100
    503c:	f0fe8e93          	addi	t4,t4,-241 # ff0fff0f <pulp__FC+0xff0fff10>
    5040:	00200e13          	li	t3,2
    5044:	4bd19263          	bne	gp,t4,54e8 <fail>

00005048 <test_3>:
    5048:	0ff010b7          	lui	ra,0xff01
    504c:	ff008093          	addi	ra,ra,-16 # ff00ff0 <end+0xfef7770>
    5050:	f0f0f137          	lui	sp,0xf0f0f
    5054:	0f010113          	addi	sp,sp,240 # f0f0f0f0 <pulp__FC+0xf0f0f0f1>
    5058:	0020e1b3          	or	gp,ra,sp
    505c:	fff10eb7          	lui	t4,0xfff10
    5060:	ff0e8e93          	addi	t4,t4,-16 # fff0fff0 <pulp__FC+0xfff0fff1>
    5064:	00300e13          	li	t3,3
    5068:	49d19063          	bne	gp,t4,54e8 <fail>

0000506c <test_4>:
    506c:	00ff00b7          	lui	ra,0xff0
    5070:	0ff08093          	addi	ra,ra,255 # ff00ff <end+0xfe687f>
    5074:	0f0f1137          	lui	sp,0xf0f1
    5078:	f0f10113          	addi	sp,sp,-241 # f0f0f0f <end+0xf0e768f>
    507c:	0020e1b3          	or	gp,ra,sp
    5080:	0fff1eb7          	lui	t4,0xfff1
    5084:	fffe8e93          	addi	t4,t4,-1 # fff0fff <end+0xffe777f>
    5088:	00400e13          	li	t3,4
    508c:	45d19e63          	bne	gp,t4,54e8 <fail>

00005090 <test_5>:
    5090:	f00ff0b7          	lui	ra,0xf00ff
    5094:	00f08093          	addi	ra,ra,15 # f00ff00f <pulp__FC+0xf00ff010>
    5098:	f0f0f137          	lui	sp,0xf0f0f
    509c:	0f010113          	addi	sp,sp,240 # f0f0f0f0 <pulp__FC+0xf0f0f0f1>
    50a0:	0020e1b3          	or	gp,ra,sp
    50a4:	f0fffeb7          	lui	t4,0xf0fff
    50a8:	0ffe8e93          	addi	t4,t4,255 # f0fff0ff <pulp__FC+0xf0fff100>
    50ac:	00500e13          	li	t3,5
    50b0:	43d19c63          	bne	gp,t4,54e8 <fail>

000050b4 <test_6>:
    50b4:	ff0100b7          	lui	ra,0xff010
    50b8:	f0008093          	addi	ra,ra,-256 # ff00ff00 <pulp__FC+0xff00ff01>
    50bc:	0f0f1137          	lui	sp,0xf0f1
    50c0:	f0f10113          	addi	sp,sp,-241 # f0f0f0f <end+0xf0e768f>
    50c4:	0020e0b3          	or	ra,ra,sp
    50c8:	ff100eb7          	lui	t4,0xff100
