
program.elf:     file format elf32-littleriscv


Disassembly of section .text:

00000000 <start>:
       0:	00000093          	li	ra,0
       4:	00000113          	li	sp,0
       8:	00000193          	li	gp,0
       c:	00000213          	li	tp,0
      10:	00000293          	li	t0,0
      14:	00000313          	li	t1,0
      18:	00000393          	li	t2,0
      1c:	00000413          	li	s0,0
      20:	00000493          	li	s1,0
      24:	00000513          	li	a0,0
      28:	00000593          	li	a1,0
      2c:	00000613          	li	a2,0
      30:	00000693          	li	a3,0
      34:	00000713          	li	a4,0
      38:	00000793          	li	a5,0
      3c:	00000813          	li	a6,0
      40:	00000893          	li	a7,0
      44:	00000913          	li	s2,0
      48:	00000993          	li	s3,0
      4c:	00000a13          	li	s4,0
      50:	00000a93          	li	s5,0
      54:	00000b13          	li	s6,0
      58:	00000b93          	li	s7,0
      5c:	00000c13          	li	s8,0
      60:	00000c93          	li	s9,0
      64:	00000d13          	li	s10,0
      68:	00000d93          	li	s11,0
      6c:	00000e13          	li	t3,0
      70:	00000e93          	li	t4,0
      74:	00000f13          	li	t5,0
      78:	00000f93          	li	t6,0
      7c:	10004117          	auipc	sp,0x10004
      80:	f8410113          	addi	sp,sp,-124 # 10004000 <_stack_top>
      84:	00c000ef          	jal	90 <ram_init>
      88:	7c8000ef          	jal	850 <__libc_init_array>
      8c:	66c000ef          	jal	6f8 <main>

00000090 <ram_init>:
      90:	fe010113          	addi	sp,sp,-32
      94:	00112e23          	sw	ra,28(sp)
      98:	00812c23          	sw	s0,24(sp)
      9c:	02010413          	addi	s0,sp,32
      a0:	000027b7          	lui	a5,0x2
      a4:	58078793          	addi	a5,a5,1408 # 2580 <_etext>
      a8:	fef42623          	sw	a5,-20(s0)
      ac:	100007b7          	lui	a5,0x10000
      b0:	00078793          	mv	a5,a5
      b4:	fef42423          	sw	a5,-24(s0)
      b8:	0240006f          	j	dc <ram_init+0x4c>
      bc:	fec42703          	lw	a4,-20(s0)
      c0:	00170793          	addi	a5,a4,1
      c4:	fef42623          	sw	a5,-20(s0)
      c8:	fe842783          	lw	a5,-24(s0)
      cc:	00178693          	addi	a3,a5,1 # 10000001 <_impure_data+0x1>
      d0:	fed42423          	sw	a3,-24(s0)
      d4:	00074703          	lbu	a4,0(a4)
      d8:	00e78023          	sb	a4,0(a5)
      dc:	fe842703          	lw	a4,-24(s0)
      e0:	100007b7          	lui	a5,0x10000
      e4:	54878793          	addi	a5,a5,1352 # 10000548 <__sf>
      e8:	fcf76ae3          	bltu	a4,a5,bc <ram_init+0x2c>
      ec:	100007b7          	lui	a5,0x10000
      f0:	54878793          	addi	a5,a5,1352 # 10000548 <__sf>
      f4:	fef42423          	sw	a5,-24(s0)
      f8:	0140006f          	j	10c <ram_init+0x7c>
      fc:	fe842783          	lw	a5,-24(s0)
     100:	00178713          	addi	a4,a5,1
     104:	fee42423          	sw	a4,-24(s0)
     108:	00078023          	sb	zero,0(a5)
     10c:	fe842703          	lw	a4,-24(s0)
     110:	000037b7          	lui	a5,0x3
     114:	b0078793          	addi	a5,a5,-1280 # 2b00 <_end>
     118:	fef762e3          	bltu	a4,a5,fc <ram_init+0x6c>
     11c:	00000013          	nop
     120:	01c12083          	lw	ra,28(sp)
     124:	01812403          	lw	s0,24(sp)
     128:	02010113          	addi	sp,sp,32
     12c:	00008067          	ret

00000130 <__io_putchar>:
     130:	fe010113          	addi	sp,sp,-32
     134:	00112e23          	sw	ra,28(sp)
     138:	00812c23          	sw	s0,24(sp)
     13c:	02010413          	addi	s0,sp,32
     140:	fea42623          	sw	a0,-20(s0)
     144:	fec42783          	lw	a5,-20(s0)
     148:	0ff7f793          	zext.b	a5,a5
     14c:	00078513          	mv	a0,a5
     150:	4a8000ef          	jal	5f8 <print_char>
     154:	00100793          	li	a5,1
     158:	00078513          	mv	a0,a5
     15c:	01c12083          	lw	ra,28(sp)
     160:	01812403          	lw	s0,24(sp)
     164:	02010113          	addi	sp,sp,32
     168:	00008067          	ret

0000016c <initialise_monitor_handles>:
     16c:	ff010113          	addi	sp,sp,-16
     170:	00112623          	sw	ra,12(sp)
     174:	00812423          	sw	s0,8(sp)
     178:	01010413          	addi	s0,sp,16
     17c:	00000013          	nop
     180:	00c12083          	lw	ra,12(sp)
     184:	00812403          	lw	s0,8(sp)
     188:	01010113          	addi	sp,sp,16
     18c:	00008067          	ret

00000190 <_getpid>:
     190:	ff010113          	addi	sp,sp,-16
     194:	00112623          	sw	ra,12(sp)
     198:	00812423          	sw	s0,8(sp)
     19c:	01010413          	addi	s0,sp,16
     1a0:	00100793          	li	a5,1
     1a4:	00078513          	mv	a0,a5
     1a8:	00c12083          	lw	ra,12(sp)
     1ac:	00812403          	lw	s0,8(sp)
     1b0:	01010113          	addi	sp,sp,16
     1b4:	00008067          	ret

000001b8 <_kill>:
     1b8:	fe010113          	addi	sp,sp,-32
     1bc:	00112e23          	sw	ra,28(sp)
     1c0:	00812c23          	sw	s0,24(sp)
     1c4:	02010413          	addi	s0,sp,32
     1c8:	fea42623          	sw	a0,-20(s0)
     1cc:	feb42423          	sw	a1,-24(s0)
     1d0:	674000ef          	jal	844 <__errno>
     1d4:	00050713          	mv	a4,a0
     1d8:	01600793          	li	a5,22
     1dc:	00f72023          	sw	a5,0(a4)
     1e0:	fff00793          	li	a5,-1
     1e4:	00078513          	mv	a0,a5
     1e8:	01c12083          	lw	ra,28(sp)
     1ec:	01812403          	lw	s0,24(sp)
     1f0:	02010113          	addi	sp,sp,32
     1f4:	00008067          	ret

000001f8 <_exit>:
     1f8:	fe010113          	addi	sp,sp,-32
     1fc:	00112e23          	sw	ra,28(sp)
     200:	00812c23          	sw	s0,24(sp)
     204:	02010413          	addi	s0,sp,32
     208:	fea42623          	sw	a0,-20(s0)
     20c:	fff00593          	li	a1,-1
     210:	fec42503          	lw	a0,-20(s0)
     214:	fa5ff0ef          	jal	1b8 <_kill>
     218:	00000013          	nop
     21c:	ffdff06f          	j	218 <_exit+0x20>

00000220 <_read>:
     220:	fe010113          	addi	sp,sp,-32
     224:	00112e23          	sw	ra,28(sp)
     228:	00812c23          	sw	s0,24(sp)
     22c:	02010413          	addi	s0,sp,32
     230:	fea42623          	sw	a0,-20(s0)
     234:	feb42423          	sw	a1,-24(s0)
     238:	fec42223          	sw	a2,-28(s0)
     23c:	fe442783          	lw	a5,-28(s0)
     240:	00078513          	mv	a0,a5
     244:	01c12083          	lw	ra,28(sp)
     248:	01812403          	lw	s0,24(sp)
     24c:	02010113          	addi	sp,sp,32
     250:	00008067          	ret

00000254 <_write>:
     254:	fd010113          	addi	sp,sp,-48
     258:	02112623          	sw	ra,44(sp)
     25c:	02812423          	sw	s0,40(sp)
     260:	03010413          	addi	s0,sp,48
     264:	fca42e23          	sw	a0,-36(s0)
     268:	fcb42c23          	sw	a1,-40(s0)
     26c:	fcc42a23          	sw	a2,-44(s0)
     270:	fe042623          	sw	zero,-20(s0)
     274:	0280006f          	j	29c <_write+0x48>
     278:	fd842783          	lw	a5,-40(s0)
     27c:	00178713          	addi	a4,a5,1
     280:	fce42c23          	sw	a4,-40(s0)
     284:	0007c783          	lbu	a5,0(a5)
     288:	00078513          	mv	a0,a5
     28c:	ea5ff0ef          	jal	130 <__io_putchar>
     290:	fec42783          	lw	a5,-20(s0)
     294:	00178793          	addi	a5,a5,1
     298:	fef42623          	sw	a5,-20(s0)
     29c:	fec42703          	lw	a4,-20(s0)
     2a0:	fd442783          	lw	a5,-44(s0)
     2a4:	fcf74ae3          	blt	a4,a5,278 <_write+0x24>
     2a8:	fd442783          	lw	a5,-44(s0)
     2ac:	00078513          	mv	a0,a5
     2b0:	02c12083          	lw	ra,44(sp)
     2b4:	02812403          	lw	s0,40(sp)
     2b8:	03010113          	addi	sp,sp,48
     2bc:	00008067          	ret

000002c0 <_close>:
     2c0:	fe010113          	addi	sp,sp,-32
     2c4:	00112e23          	sw	ra,28(sp)
     2c8:	00812c23          	sw	s0,24(sp)
     2cc:	02010413          	addi	s0,sp,32
     2d0:	fea42623          	sw	a0,-20(s0)
     2d4:	fff00793          	li	a5,-1
     2d8:	00078513          	mv	a0,a5
     2dc:	01c12083          	lw	ra,28(sp)
     2e0:	01812403          	lw	s0,24(sp)
     2e4:	02010113          	addi	sp,sp,32
     2e8:	00008067          	ret

000002ec <_fstat>:
     2ec:	fe010113          	addi	sp,sp,-32
     2f0:	00112e23          	sw	ra,28(sp)
     2f4:	00812c23          	sw	s0,24(sp)
     2f8:	02010413          	addi	s0,sp,32
     2fc:	fea42623          	sw	a0,-20(s0)
     300:	feb42423          	sw	a1,-24(s0)
     304:	fe842783          	lw	a5,-24(s0)
     308:	00002737          	lui	a4,0x2
     30c:	00e7a223          	sw	a4,4(a5)
     310:	00000793          	li	a5,0
     314:	00078513          	mv	a0,a5
     318:	01c12083          	lw	ra,28(sp)
     31c:	01812403          	lw	s0,24(sp)
     320:	02010113          	addi	sp,sp,32
     324:	00008067          	ret

00000328 <_isatty>:
     328:	fe010113          	addi	sp,sp,-32
     32c:	00112e23          	sw	ra,28(sp)
     330:	00812c23          	sw	s0,24(sp)
     334:	02010413          	addi	s0,sp,32
     338:	fea42623          	sw	a0,-20(s0)
     33c:	00100793          	li	a5,1
     340:	00078513          	mv	a0,a5
     344:	01c12083          	lw	ra,28(sp)
     348:	01812403          	lw	s0,24(sp)
     34c:	02010113          	addi	sp,sp,32
     350:	00008067          	ret

00000354 <_lseek>:
     354:	fe010113          	addi	sp,sp,-32
     358:	00112e23          	sw	ra,28(sp)
     35c:	00812c23          	sw	s0,24(sp)
     360:	02010413          	addi	s0,sp,32
     364:	fea42623          	sw	a0,-20(s0)
     368:	feb42423          	sw	a1,-24(s0)
     36c:	fec42223          	sw	a2,-28(s0)
     370:	00000793          	li	a5,0
     374:	00078513          	mv	a0,a5
     378:	01c12083          	lw	ra,28(sp)
     37c:	01812403          	lw	s0,24(sp)
     380:	02010113          	addi	sp,sp,32
     384:	00008067          	ret

00000388 <_open>:
     388:	fc010113          	addi	sp,sp,-64
     38c:	00112e23          	sw	ra,28(sp)
     390:	00812c23          	sw	s0,24(sp)
     394:	02010413          	addi	s0,sp,32
     398:	fea42623          	sw	a0,-20(s0)
     39c:	feb42423          	sw	a1,-24(s0)
     3a0:	00c42423          	sw	a2,8(s0)
     3a4:	00d42623          	sw	a3,12(s0)
     3a8:	00e42823          	sw	a4,16(s0)
     3ac:	00f42a23          	sw	a5,20(s0)
     3b0:	01042c23          	sw	a6,24(s0)
     3b4:	01142e23          	sw	a7,28(s0)
     3b8:	fff00793          	li	a5,-1
     3bc:	00078513          	mv	a0,a5
     3c0:	01c12083          	lw	ra,28(sp)
     3c4:	01812403          	lw	s0,24(sp)
     3c8:	04010113          	addi	sp,sp,64
     3cc:	00008067          	ret

000003d0 <_wait>:
     3d0:	fe010113          	addi	sp,sp,-32
     3d4:	00112e23          	sw	ra,28(sp)
     3d8:	00812c23          	sw	s0,24(sp)
     3dc:	02010413          	addi	s0,sp,32
     3e0:	fea42623          	sw	a0,-20(s0)
     3e4:	460000ef          	jal	844 <__errno>
     3e8:	00050713          	mv	a4,a0
     3ec:	00a00793          	li	a5,10
     3f0:	00f72023          	sw	a5,0(a4) # 2000 <_stack_size>
     3f4:	fff00793          	li	a5,-1
     3f8:	00078513          	mv	a0,a5
     3fc:	01c12083          	lw	ra,28(sp)
     400:	01812403          	lw	s0,24(sp)
     404:	02010113          	addi	sp,sp,32
     408:	00008067          	ret

0000040c <_unlink>:
     40c:	fe010113          	addi	sp,sp,-32
     410:	00112e23          	sw	ra,28(sp)
     414:	00812c23          	sw	s0,24(sp)
     418:	02010413          	addi	s0,sp,32
     41c:	fea42623          	sw	a0,-20(s0)
     420:	424000ef          	jal	844 <__errno>
     424:	00050713          	mv	a4,a0
     428:	00200793          	li	a5,2
     42c:	00f72023          	sw	a5,0(a4)
     430:	fff00793          	li	a5,-1
     434:	00078513          	mv	a0,a5
     438:	01c12083          	lw	ra,28(sp)
     43c:	01812403          	lw	s0,24(sp)
     440:	02010113          	addi	sp,sp,32
     444:	00008067          	ret

00000448 <_times>:
     448:	fe010113          	addi	sp,sp,-32
     44c:	00112e23          	sw	ra,28(sp)
     450:	00812c23          	sw	s0,24(sp)
     454:	02010413          	addi	s0,sp,32
     458:	fea42623          	sw	a0,-20(s0)
     45c:	fff00793          	li	a5,-1
     460:	00078513          	mv	a0,a5
     464:	01c12083          	lw	ra,28(sp)
     468:	01812403          	lw	s0,24(sp)
     46c:	02010113          	addi	sp,sp,32
     470:	00008067          	ret

00000474 <_stat>:
     474:	fe010113          	addi	sp,sp,-32
     478:	00112e23          	sw	ra,28(sp)
     47c:	00812c23          	sw	s0,24(sp)
     480:	02010413          	addi	s0,sp,32
     484:	fea42623          	sw	a0,-20(s0)
     488:	feb42423          	sw	a1,-24(s0)
     48c:	fe842783          	lw	a5,-24(s0)
     490:	00002737          	lui	a4,0x2
     494:	00e7a223          	sw	a4,4(a5)
     498:	00000793          	li	a5,0
     49c:	00078513          	mv	a0,a5
     4a0:	01c12083          	lw	ra,28(sp)
     4a4:	01812403          	lw	s0,24(sp)
     4a8:	02010113          	addi	sp,sp,32
     4ac:	00008067          	ret

000004b0 <_link>:
     4b0:	fe010113          	addi	sp,sp,-32
     4b4:	00112e23          	sw	ra,28(sp)
     4b8:	00812c23          	sw	s0,24(sp)
     4bc:	02010413          	addi	s0,sp,32
     4c0:	fea42623          	sw	a0,-20(s0)
     4c4:	feb42423          	sw	a1,-24(s0)
     4c8:	37c000ef          	jal	844 <__errno>
     4cc:	00050713          	mv	a4,a0
     4d0:	01f00793          	li	a5,31
     4d4:	00f72023          	sw	a5,0(a4) # 2000 <_stack_size>
     4d8:	fff00793          	li	a5,-1
     4dc:	00078513          	mv	a0,a5
     4e0:	01c12083          	lw	ra,28(sp)
     4e4:	01812403          	lw	s0,24(sp)
     4e8:	02010113          	addi	sp,sp,32
     4ec:	00008067          	ret

000004f0 <_fork>:
     4f0:	ff010113          	addi	sp,sp,-16
     4f4:	00112623          	sw	ra,12(sp)
     4f8:	00812423          	sw	s0,8(sp)
     4fc:	01010413          	addi	s0,sp,16
     500:	344000ef          	jal	844 <__errno>
     504:	00050713          	mv	a4,a0
     508:	00b00793          	li	a5,11
     50c:	00f72023          	sw	a5,0(a4)
     510:	fff00793          	li	a5,-1
     514:	00078513          	mv	a0,a5
     518:	00c12083          	lw	ra,12(sp)
     51c:	00812403          	lw	s0,8(sp)
     520:	01010113          	addi	sp,sp,16
     524:	00008067          	ret

00000528 <_execve>:
     528:	fe010113          	addi	sp,sp,-32
     52c:	00112e23          	sw	ra,28(sp)
     530:	00812c23          	sw	s0,24(sp)
     534:	02010413          	addi	s0,sp,32
     538:	fea42623          	sw	a0,-20(s0)
     53c:	feb42423          	sw	a1,-24(s0)
     540:	fec42223          	sw	a2,-28(s0)
     544:	300000ef          	jal	844 <__errno>
     548:	00050713          	mv	a4,a0
     54c:	00c00793          	li	a5,12
     550:	00f72023          	sw	a5,0(a4)
     554:	fff00793          	li	a5,-1
     558:	00078513          	mv	a0,a5
     55c:	01c12083          	lw	ra,28(sp)
     560:	01812403          	lw	s0,24(sp)
     564:	02010113          	addi	sp,sp,32
     568:	00008067          	ret

0000056c <_sbrk>:
     56c:	fd010113          	addi	sp,sp,-48
     570:	02112623          	sw	ra,44(sp)
     574:	02812423          	sw	s0,40(sp)
     578:	03010413          	addi	s0,sp,48
     57c:	fca42e23          	sw	a0,-36(s0)
     580:	100007b7          	lui	a5,0x10000
     584:	5387a783          	lw	a5,1336(a5) # 10000538 <heap_end.0>
     588:	fef42623          	sw	a5,-20(s0)
     58c:	100027b7          	lui	a5,0x10002
     590:	00078793          	mv	a5,a5
     594:	fef42423          	sw	a5,-24(s0)
     598:	100007b7          	lui	a5,0x10000
     59c:	5387a703          	lw	a4,1336(a5) # 10000538 <heap_end.0>
     5a0:	fdc42783          	lw	a5,-36(s0)
     5a4:	00f707b3          	add	a5,a4,a5
     5a8:	fe842703          	lw	a4,-24(s0)
     5ac:	00f77e63          	bgeu	a4,a5,5c8 <_sbrk+0x5c>
     5b0:	294000ef          	jal	844 <__errno>
     5b4:	00050713          	mv	a4,a0
     5b8:	00c00793          	li	a5,12
     5bc:	00f72023          	sw	a5,0(a4)
     5c0:	fff00793          	li	a5,-1
     5c4:	0200006f          	j	5e4 <_sbrk+0x78>
     5c8:	100007b7          	lui	a5,0x10000
     5cc:	5387a703          	lw	a4,1336(a5) # 10000538 <heap_end.0>
     5d0:	fdc42783          	lw	a5,-36(s0)
     5d4:	00f70733          	add	a4,a4,a5
     5d8:	100007b7          	lui	a5,0x10000
     5dc:	52e7ac23          	sw	a4,1336(a5) # 10000538 <heap_end.0>
     5e0:	fec42783          	lw	a5,-20(s0)
     5e4:	00078513          	mv	a0,a5
     5e8:	02c12083          	lw	ra,44(sp)
     5ec:	02812403          	lw	s0,40(sp)
     5f0:	03010113          	addi	sp,sp,48
     5f4:	00008067          	ret

000005f8 <print_char>:
     5f8:	fe010113          	addi	sp,sp,-32
     5fc:	00112e23          	sw	ra,28(sp)
     600:	00812c23          	sw	s0,24(sp)
     604:	02010413          	addi	s0,sp,32
     608:	00050793          	mv	a5,a0
     60c:	fef407a3          	sb	a5,-17(s0)
     610:	00000013          	nop
     614:	406007b7          	lui	a5,0x40600
     618:	00878793          	addi	a5,a5,8 # 40600008 <_stack_top+0x305fc008>
     61c:	0007a783          	lw	a5,0(a5)
     620:	0087f793          	andi	a5,a5,8
     624:	fe0798e3          	bnez	a5,614 <print_char+0x1c>
     628:	406007b7          	lui	a5,0x40600
     62c:	00478793          	addi	a5,a5,4 # 40600004 <_stack_top+0x305fc004>
     630:	fef44703          	lbu	a4,-17(s0)
     634:	00e7a023          	sw	a4,0(a5)
     638:	00000013          	nop
     63c:	01c12083          	lw	ra,28(sp)
     640:	01812403          	lw	s0,24(sp)
     644:	02010113          	addi	sp,sp,32
     648:	00008067          	ret

0000064c <print_length>:
     64c:	fe010113          	addi	sp,sp,-32
     650:	00112e23          	sw	ra,28(sp)
     654:	00812c23          	sw	s0,24(sp)
     658:	02010413          	addi	s0,sp,32
     65c:	fea42623          	sw	a0,-20(s0)
     660:	00058793          	mv	a5,a1
     664:	fef41523          	sh	a5,-22(s0)
     668:	01c0006f          	j	684 <print_length+0x38>
     66c:	fec42783          	lw	a5,-20(s0)
     670:	00178713          	addi	a4,a5,1
     674:	fee42623          	sw	a4,-20(s0)
     678:	0007c783          	lbu	a5,0(a5)
     67c:	00078513          	mv	a0,a5
     680:	f79ff0ef          	jal	5f8 <print_char>
     684:	fea45783          	lhu	a5,-22(s0)
     688:	fff78713          	addi	a4,a5,-1
     68c:	fee41523          	sh	a4,-22(s0)
     690:	fc079ee3          	bnez	a5,66c <print_length+0x20>
     694:	00000013          	nop
     698:	01c12083          	lw	ra,28(sp)
     69c:	01812403          	lw	s0,24(sp)
     6a0:	02010113          	addi	sp,sp,32
     6a4:	00008067          	ret

000006a8 <print_string>:
     6a8:	fe010113          	addi	sp,sp,-32
     6ac:	00112e23          	sw	ra,28(sp)
     6b0:	00812c23          	sw	s0,24(sp)
     6b4:	02010413          	addi	s0,sp,32
     6b8:	fea42623          	sw	a0,-20(s0)
     6bc:	01c0006f          	j	6d8 <print_string+0x30>
     6c0:	fec42783          	lw	a5,-20(s0)
     6c4:	00178713          	addi	a4,a5,1
     6c8:	fee42623          	sw	a4,-20(s0)
     6cc:	0007c783          	lbu	a5,0(a5)
     6d0:	00078513          	mv	a0,a5
     6d4:	f25ff0ef          	jal	5f8 <print_char>
     6d8:	fec42783          	lw	a5,-20(s0)
     6dc:	0007c783          	lbu	a5,0(a5)
     6e0:	fe0790e3          	bnez	a5,6c0 <print_string+0x18>
     6e4:	00000013          	nop
     6e8:	01c12083          	lw	ra,28(sp)
     6ec:	01812403          	lw	s0,24(sp)
     6f0:	02010113          	addi	sp,sp,32
     6f4:	00008067          	ret

000006f8 <main>:
     6f8:	fe010113          	addi	sp,sp,-32
     6fc:	00112e23          	sw	ra,28(sp)
     700:	00812c23          	sw	s0,24(sp)
     704:	02010413          	addi	s0,sp,32
     708:	000027b7          	lui	a5,0x2
     70c:	56078513          	addi	a0,a5,1376 # 2560 <_sbrk_r+0x78>
     710:	f99ff0ef          	jal	6a8 <print_string>
     714:	fe0407a3          	sb	zero,-17(s0)
     718:	fef44783          	lbu	a5,-17(s0)
     71c:	00178713          	addi	a4,a5,1
     720:	fee407a3          	sb	a4,-17(s0)
     724:	00078713          	mv	a4,a5
     728:	400007b7          	lui	a5,0x40000
     72c:	00f77713          	andi	a4,a4,15
     730:	00e7a023          	sw	a4,0(a5) # 40000000 <_stack_top+0x2fffc000>
     734:	fe042423          	sw	zero,-24(s0)
     738:	0140006f          	j	74c <main+0x54>
     73c:	00000013          	nop
     740:	fe842783          	lw	a5,-24(s0)
     744:	00178793          	addi	a5,a5,1
     748:	fef42423          	sw	a5,-24(s0)
     74c:	fe842703          	lw	a4,-24(s0)
     750:	000017b7          	lui	a5,0x1
     754:	fef764e3          	bltu	a4,a5,73c <main+0x44>
     758:	000027b7          	lui	a5,0x2
     75c:	57478513          	addi	a0,a5,1396 # 2574 <_sbrk_r+0x8c>
     760:	f49ff0ef          	jal	6a8 <print_string>
     764:	fb5ff06f          	j	718 <main+0x20>

00000768 <memset>:
     768:	00f00313          	li	t1,15
     76c:	00050713          	mv	a4,a0
     770:	02c37e63          	bgeu	t1,a2,7ac <memset+0x44>
     774:	00f77793          	andi	a5,a4,15
     778:	0a079063          	bnez	a5,818 <memset+0xb0>
     77c:	08059263          	bnez	a1,800 <memset+0x98>
     780:	ff067693          	andi	a3,a2,-16
     784:	00f67613          	andi	a2,a2,15
     788:	00e686b3          	add	a3,a3,a4
     78c:	00b72023          	sw	a1,0(a4)
     790:	00b72223          	sw	a1,4(a4)
     794:	00b72423          	sw	a1,8(a4)
     798:	00b72623          	sw	a1,12(a4)
     79c:	01070713          	addi	a4,a4,16
     7a0:	fed766e3          	bltu	a4,a3,78c <memset+0x24>
     7a4:	00061463          	bnez	a2,7ac <memset+0x44>
     7a8:	00008067          	ret
     7ac:	40c306b3          	sub	a3,t1,a2
     7b0:	00269693          	slli	a3,a3,0x2
     7b4:	00000297          	auipc	t0,0x0
     7b8:	005686b3          	add	a3,a3,t0
     7bc:	00c68067          	jr	12(a3)
     7c0:	00b70723          	sb	a1,14(a4)
     7c4:	00b706a3          	sb	a1,13(a4)
     7c8:	00b70623          	sb	a1,12(a4)
     7cc:	00b705a3          	sb	a1,11(a4)
     7d0:	00b70523          	sb	a1,10(a4)
     7d4:	00b704a3          	sb	a1,9(a4)
     7d8:	00b70423          	sb	a1,8(a4)
     7dc:	00b703a3          	sb	a1,7(a4)
     7e0:	00b70323          	sb	a1,6(a4)
     7e4:	00b702a3          	sb	a1,5(a4)
     7e8:	00b70223          	sb	a1,4(a4)
     7ec:	00b701a3          	sb	a1,3(a4)
     7f0:	00b70123          	sb	a1,2(a4)
     7f4:	00b700a3          	sb	a1,1(a4)
     7f8:	00b70023          	sb	a1,0(a4)
     7fc:	00008067          	ret
     800:	0ff5f593          	zext.b	a1,a1
     804:	00859693          	slli	a3,a1,0x8
     808:	00d5e5b3          	or	a1,a1,a3
     80c:	01059693          	slli	a3,a1,0x10
     810:	00d5e5b3          	or	a1,a1,a3
     814:	f6dff06f          	j	780 <memset+0x18>
     818:	00279693          	slli	a3,a5,0x2
     81c:	00000297          	auipc	t0,0x0
     820:	005686b3          	add	a3,a3,t0
     824:	00008293          	mv	t0,ra
     828:	fa0680e7          	jalr	-96(a3)
     82c:	00028093          	mv	ra,t0
     830:	ff078793          	addi	a5,a5,-16
     834:	40f70733          	sub	a4,a4,a5
     838:	00f60633          	add	a2,a2,a5
     83c:	f6c378e3          	bgeu	t1,a2,7ac <memset+0x44>
     840:	f3dff06f          	j	77c <memset+0x14>

00000844 <__errno>:
     844:	10000517          	auipc	a0,0x10000
     848:	cf852503          	lw	a0,-776(a0) # 1000053c <_impure_ptr>
     84c:	00008067          	ret

00000850 <__libc_init_array>:
     850:	ff010113          	addi	sp,sp,-16
     854:	00812423          	sw	s0,8(sp)
     858:	01212023          	sw	s2,0(sp)
     85c:	00000793          	li	a5,0
     860:	00000413          	li	s0,0
     864:	00112623          	sw	ra,12(sp)
     868:	00912223          	sw	s1,4(sp)
     86c:	40878933          	sub	s2,a5,s0
     870:	02878063          	beq	a5,s0,890 <__libc_init_array+0x40>
     874:	40295913          	srai	s2,s2,0x2
     878:	00000493          	li	s1,0
     87c:	00042783          	lw	a5,0(s0)
     880:	00148493          	addi	s1,s1,1
     884:	00440413          	addi	s0,s0,4
     888:	000780e7          	jalr	a5
     88c:	ff24e8e3          	bltu	s1,s2,87c <__libc_init_array+0x2c>
     890:	00000793          	li	a5,0
     894:	00000413          	li	s0,0
     898:	40878933          	sub	s2,a5,s0
     89c:	40295913          	srai	s2,s2,0x2
     8a0:	00878e63          	beq	a5,s0,8bc <__libc_init_array+0x6c>
     8a4:	00000493          	li	s1,0
     8a8:	00042783          	lw	a5,0(s0)
     8ac:	00148493          	addi	s1,s1,1
     8b0:	00440413          	addi	s0,s0,4
     8b4:	000780e7          	jalr	a5
     8b8:	ff24e8e3          	bltu	s1,s2,8a8 <__libc_init_array+0x58>
     8bc:	00c12083          	lw	ra,12(sp)
     8c0:	00812403          	lw	s0,8(sp)
     8c4:	00412483          	lw	s1,4(sp)
     8c8:	00012903          	lw	s2,0(sp)
     8cc:	01010113          	addi	sp,sp,16
     8d0:	00008067          	ret

000008d4 <stdio_exit_handler>:
     8d4:	10000617          	auipc	a2,0x10000
     8d8:	84c60613          	addi	a2,a2,-1972 # 10000120 <__sglue>
     8dc:	00001597          	auipc	a1,0x1
     8e0:	68458593          	addi	a1,a1,1668 # 1f60 <_fclose_r>
     8e4:	0ffff517          	auipc	a0,0xffff
     8e8:	71c50513          	addi	a0,a0,1820 # 10000000 <_impure_data>
     8ec:	4cc0006f          	j	db8 <_fwalk_sglue>

000008f0 <cleanup_stdio>:
     8f0:	00452583          	lw	a1,4(a0)
     8f4:	ff010113          	addi	sp,sp,-16
     8f8:	00812423          	sw	s0,8(sp)
     8fc:	00112623          	sw	ra,12(sp)
     900:	10000797          	auipc	a5,0x10000
     904:	c4878793          	addi	a5,a5,-952 # 10000548 <__sf>
     908:	00050413          	mv	s0,a0
     90c:	00f58463          	beq	a1,a5,914 <cleanup_stdio+0x24>
     910:	650010ef          	jal	1f60 <_fclose_r>
     914:	00842583          	lw	a1,8(s0)
     918:	10000797          	auipc	a5,0x10000
     91c:	c9878793          	addi	a5,a5,-872 # 100005b0 <__sf+0x68>
     920:	00f58663          	beq	a1,a5,92c <cleanup_stdio+0x3c>
     924:	00040513          	mv	a0,s0
     928:	638010ef          	jal	1f60 <_fclose_r>
     92c:	00c42583          	lw	a1,12(s0)
     930:	10000797          	auipc	a5,0x10000
     934:	ce878793          	addi	a5,a5,-792 # 10000618 <__sf+0xd0>
     938:	00f58c63          	beq	a1,a5,950 <cleanup_stdio+0x60>
     93c:	00040513          	mv	a0,s0
     940:	00812403          	lw	s0,8(sp)
     944:	00c12083          	lw	ra,12(sp)
     948:	01010113          	addi	sp,sp,16
     94c:	6140106f          	j	1f60 <_fclose_r>
     950:	00c12083          	lw	ra,12(sp)
     954:	00812403          	lw	s0,8(sp)
     958:	01010113          	addi	sp,sp,16
     95c:	00008067          	ret

00000960 <__fp_lock>:
     960:	0645a783          	lw	a5,100(a1)
     964:	0017f793          	andi	a5,a5,1
     968:	00079863          	bnez	a5,978 <__fp_lock+0x18>
     96c:	00c5d783          	lhu	a5,12(a1)
     970:	2007f793          	andi	a5,a5,512
     974:	00078663          	beqz	a5,980 <__fp_lock+0x20>
     978:	00000513          	li	a0,0
     97c:	00008067          	ret
     980:	0585a503          	lw	a0,88(a1)
     984:	ff010113          	addi	sp,sp,-16
     988:	00112623          	sw	ra,12(sp)
     98c:	139000ef          	jal	12c4 <__retarget_lock_acquire_recursive>
     990:	00c12083          	lw	ra,12(sp)
     994:	00000513          	li	a0,0
     998:	01010113          	addi	sp,sp,16
     99c:	00008067          	ret

000009a0 <__fp_unlock>:
     9a0:	0645a783          	lw	a5,100(a1)
     9a4:	0017f793          	andi	a5,a5,1
     9a8:	00079863          	bnez	a5,9b8 <__fp_unlock+0x18>
     9ac:	00c5d783          	lhu	a5,12(a1)
     9b0:	2007f793          	andi	a5,a5,512
     9b4:	00078663          	beqz	a5,9c0 <__fp_unlock+0x20>
     9b8:	00000513          	li	a0,0
     9bc:	00008067          	ret
     9c0:	0585a503          	lw	a0,88(a1)
     9c4:	ff010113          	addi	sp,sp,-16
     9c8:	00112623          	sw	ra,12(sp)
     9cc:	111000ef          	jal	12dc <__retarget_lock_release_recursive>
     9d0:	00c12083          	lw	ra,12(sp)
     9d4:	00000513          	li	a0,0
     9d8:	01010113          	addi	sp,sp,16
     9dc:	00008067          	ret

000009e0 <global_stdio_init.part.0>:
     9e0:	fe010113          	addi	sp,sp,-32
     9e4:	00112e23          	sw	ra,28(sp)
     9e8:	00812c23          	sw	s0,24(sp)
     9ec:	00912a23          	sw	s1,20(sp)
     9f0:	10000417          	auipc	s0,0x10000
     9f4:	b5840413          	addi	s0,s0,-1192 # 10000548 <__sf>
     9f8:	01212823          	sw	s2,16(sp)
     9fc:	01312623          	sw	s3,12(sp)
     a00:	01412423          	sw	s4,8(sp)
     a04:	00000717          	auipc	a4,0x0
     a08:	ed070713          	addi	a4,a4,-304 # 8d4 <stdio_exit_handler>
     a0c:	00400793          	li	a5,4
     a10:	00800613          	li	a2,8
     a14:	00000593          	li	a1,0
     a18:	10000517          	auipc	a0,0x10000
     a1c:	b8c50513          	addi	a0,a0,-1140 # 100005a4 <__sf+0x5c>
     a20:	00002697          	auipc	a3,0x2
     a24:	0ae6a623          	sw	a4,172(a3) # 2acc <__stdio_exit_handler>
     a28:	00f42623          	sw	a5,12(s0)
     a2c:	00042023          	sw	zero,0(s0)
     a30:	00042223          	sw	zero,4(s0)
     a34:	00042423          	sw	zero,8(s0)
     a38:	06042223          	sw	zero,100(s0)
     a3c:	00042823          	sw	zero,16(s0)
     a40:	00042a23          	sw	zero,20(s0)
     a44:	00042c23          	sw	zero,24(s0)
     a48:	d21ff0ef          	jal	768 <memset>
     a4c:	00000a17          	auipc	s4,0x0
     a50:	420a0a13          	addi	s4,s4,1056 # e6c <__sread>
     a54:	00000997          	auipc	s3,0x0
     a58:	47c98993          	addi	s3,s3,1148 # ed0 <__swrite>
     a5c:	00000917          	auipc	s2,0x0
     a60:	4fc90913          	addi	s2,s2,1276 # f58 <__sseek>
     a64:	00000497          	auipc	s1,0x0
     a68:	55848493          	addi	s1,s1,1368 # fbc <__sclose>
     a6c:	10000517          	auipc	a0,0x10000
     a70:	b3450513          	addi	a0,a0,-1228 # 100005a0 <__sf+0x58>
     a74:	03442023          	sw	s4,32(s0)
     a78:	03342223          	sw	s3,36(s0)
     a7c:	03242423          	sw	s2,40(s0)
     a80:	02942623          	sw	s1,44(s0)
     a84:	00842e23          	sw	s0,28(s0)
     a88:	02d000ef          	jal	12b4 <__retarget_lock_init_recursive>
     a8c:	000107b7          	lui	a5,0x10
     a90:	00978793          	addi	a5,a5,9 # 10009 <_end+0xd509>
     a94:	00800613          	li	a2,8
     a98:	00000593          	li	a1,0
     a9c:	10000517          	auipc	a0,0x10000
     aa0:	b7050513          	addi	a0,a0,-1168 # 1000060c <__sf+0xc4>
     aa4:	06f42a23          	sw	a5,116(s0)
     aa8:	06042423          	sw	zero,104(s0)
     aac:	06042623          	sw	zero,108(s0)
     ab0:	06042823          	sw	zero,112(s0)
     ab4:	0c042623          	sw	zero,204(s0)
     ab8:	06042c23          	sw	zero,120(s0)
     abc:	06042e23          	sw	zero,124(s0)
     ac0:	08042023          	sw	zero,128(s0)
     ac4:	ca5ff0ef          	jal	768 <memset>
     ac8:	10000797          	auipc	a5,0x10000
     acc:	ae878793          	addi	a5,a5,-1304 # 100005b0 <__sf+0x68>
     ad0:	10000517          	auipc	a0,0x10000
     ad4:	b3850513          	addi	a0,a0,-1224 # 10000608 <__sf+0xc0>
     ad8:	09442423          	sw	s4,136(s0)
     adc:	09342623          	sw	s3,140(s0)
     ae0:	09242823          	sw	s2,144(s0)
     ae4:	08942a23          	sw	s1,148(s0)
     ae8:	08f42223          	sw	a5,132(s0)
     aec:	7c8000ef          	jal	12b4 <__retarget_lock_init_recursive>
     af0:	000207b7          	lui	a5,0x20
     af4:	01278793          	addi	a5,a5,18 # 20012 <_end+0x1d512>
     af8:	00800613          	li	a2,8
     afc:	00000593          	li	a1,0
     b00:	10000517          	auipc	a0,0x10000
     b04:	b7450513          	addi	a0,a0,-1164 # 10000674 <__sf+0x12c>
     b08:	0cf42e23          	sw	a5,220(s0)
     b0c:	0c042823          	sw	zero,208(s0)
     b10:	0c042a23          	sw	zero,212(s0)
     b14:	0c042c23          	sw	zero,216(s0)
     b18:	12042a23          	sw	zero,308(s0)
     b1c:	0e042023          	sw	zero,224(s0)
     b20:	0e042223          	sw	zero,228(s0)
     b24:	0e042423          	sw	zero,232(s0)
     b28:	c41ff0ef          	jal	768 <memset>
     b2c:	10000797          	auipc	a5,0x10000
     b30:	aec78793          	addi	a5,a5,-1300 # 10000618 <__sf+0xd0>
     b34:	0f442823          	sw	s4,240(s0)
     b38:	0f342a23          	sw	s3,244(s0)
     b3c:	0f242c23          	sw	s2,248(s0)
     b40:	0e942e23          	sw	s1,252(s0)
     b44:	0ef42623          	sw	a5,236(s0)
     b48:	01812403          	lw	s0,24(sp)
     b4c:	01c12083          	lw	ra,28(sp)
     b50:	01412483          	lw	s1,20(sp)
     b54:	01012903          	lw	s2,16(sp)
     b58:	00c12983          	lw	s3,12(sp)
     b5c:	00812a03          	lw	s4,8(sp)
     b60:	10000517          	auipc	a0,0x10000
     b64:	b1050513          	addi	a0,a0,-1264 # 10000670 <__sf+0x128>
     b68:	02010113          	addi	sp,sp,32
     b6c:	7480006f          	j	12b4 <__retarget_lock_init_recursive>

00000b70 <__sfp>:
     b70:	fe010113          	addi	sp,sp,-32
     b74:	01312623          	sw	s3,12(sp)
     b78:	00050993          	mv	s3,a0
     b7c:	00002517          	auipc	a0,0x2
     b80:	f7450513          	addi	a0,a0,-140 # 2af0 <__lock___sfp_recursive_mutex>
     b84:	00112e23          	sw	ra,28(sp)
     b88:	00812c23          	sw	s0,24(sp)
     b8c:	00912a23          	sw	s1,20(sp)
     b90:	01212823          	sw	s2,16(sp)
     b94:	730000ef          	jal	12c4 <__retarget_lock_acquire_recursive>
     b98:	00002797          	auipc	a5,0x2
     b9c:	f347a783          	lw	a5,-204(a5) # 2acc <__stdio_exit_handler>
     ba0:	10078263          	beqz	a5,ca4 <__sfp+0x134>
     ba4:	0ffff917          	auipc	s2,0xffff
     ba8:	57c90913          	addi	s2,s2,1404 # 10000120 <__sglue>
     bac:	fff00493          	li	s1,-1
     bb0:	00492783          	lw	a5,4(s2)
     bb4:	00892403          	lw	s0,8(s2)
     bb8:	fff78793          	addi	a5,a5,-1
     bbc:	0007d863          	bgez	a5,bcc <__sfp+0x5c>
     bc0:	0940006f          	j	c54 <__sfp+0xe4>
     bc4:	06840413          	addi	s0,s0,104
     bc8:	08978663          	beq	a5,s1,c54 <__sfp+0xe4>
     bcc:	00c41703          	lh	a4,12(s0)
     bd0:	fff78793          	addi	a5,a5,-1
     bd4:	fe0718e3          	bnez	a4,bc4 <__sfp+0x54>
     bd8:	ffff07b7          	lui	a5,0xffff0
     bdc:	00178793          	addi	a5,a5,1 # ffff0001 <_stack_top+0xeffec001>
     be0:	00f42623          	sw	a5,12(s0)
     be4:	05840513          	addi	a0,s0,88
     be8:	06042223          	sw	zero,100(s0)
     bec:	6c8000ef          	jal	12b4 <__retarget_lock_init_recursive>
     bf0:	00002517          	auipc	a0,0x2
     bf4:	f0050513          	addi	a0,a0,-256 # 2af0 <__lock___sfp_recursive_mutex>
     bf8:	6e4000ef          	jal	12dc <__retarget_lock_release_recursive>
     bfc:	05c40513          	addi	a0,s0,92
     c00:	00042023          	sw	zero,0(s0)
     c04:	00042423          	sw	zero,8(s0)
     c08:	00042223          	sw	zero,4(s0)
     c0c:	00042823          	sw	zero,16(s0)
     c10:	00042a23          	sw	zero,20(s0)
     c14:	00042c23          	sw	zero,24(s0)
     c18:	00800613          	li	a2,8
     c1c:	00000593          	li	a1,0
     c20:	b49ff0ef          	jal	768 <memset>
     c24:	02042823          	sw	zero,48(s0)
     c28:	02042a23          	sw	zero,52(s0)
     c2c:	04042223          	sw	zero,68(s0)
     c30:	04042423          	sw	zero,72(s0)
     c34:	01c12083          	lw	ra,28(sp)
     c38:	00040513          	mv	a0,s0
     c3c:	01812403          	lw	s0,24(sp)
     c40:	01412483          	lw	s1,20(sp)
     c44:	01012903          	lw	s2,16(sp)
     c48:	00c12983          	lw	s3,12(sp)
     c4c:	02010113          	addi	sp,sp,32
     c50:	00008067          	ret
     c54:	00092403          	lw	s0,0(s2)
     c58:	00040663          	beqz	s0,c64 <__sfp+0xf4>
     c5c:	00040913          	mv	s2,s0
     c60:	f51ff06f          	j	bb0 <__sfp+0x40>
     c64:	1ac00593          	li	a1,428
     c68:	00098513          	mv	a0,s3
     c6c:	2b1000ef          	jal	171c <_malloc_r>
     c70:	00050413          	mv	s0,a0
     c74:	02050c63          	beqz	a0,cac <__sfp+0x13c>
     c78:	00400793          	li	a5,4
     c7c:	00c50513          	addi	a0,a0,12
     c80:	00042023          	sw	zero,0(s0)
     c84:	00f42223          	sw	a5,4(s0)
     c88:	00a42423          	sw	a0,8(s0)
     c8c:	1a000613          	li	a2,416
     c90:	00000593          	li	a1,0
     c94:	ad5ff0ef          	jal	768 <memset>
     c98:	00892023          	sw	s0,0(s2)
     c9c:	00040913          	mv	s2,s0
     ca0:	f11ff06f          	j	bb0 <__sfp+0x40>
     ca4:	d3dff0ef          	jal	9e0 <global_stdio_init.part.0>
     ca8:	efdff06f          	j	ba4 <__sfp+0x34>
     cac:	00092023          	sw	zero,0(s2)
     cb0:	00002517          	auipc	a0,0x2
     cb4:	e4050513          	addi	a0,a0,-448 # 2af0 <__lock___sfp_recursive_mutex>
     cb8:	624000ef          	jal	12dc <__retarget_lock_release_recursive>
     cbc:	00c00793          	li	a5,12
     cc0:	00f9a023          	sw	a5,0(s3)
     cc4:	f71ff06f          	j	c34 <__sfp+0xc4>

00000cc8 <__sinit>:
     cc8:	ff010113          	addi	sp,sp,-16
     ccc:	00812423          	sw	s0,8(sp)
     cd0:	00050413          	mv	s0,a0
     cd4:	00002517          	auipc	a0,0x2
     cd8:	e1c50513          	addi	a0,a0,-484 # 2af0 <__lock___sfp_recursive_mutex>
     cdc:	00112623          	sw	ra,12(sp)
     ce0:	5e4000ef          	jal	12c4 <__retarget_lock_acquire_recursive>
     ce4:	03442783          	lw	a5,52(s0)
     ce8:	00079e63          	bnez	a5,d04 <__sinit+0x3c>
     cec:	00002797          	auipc	a5,0x2
     cf0:	de07a783          	lw	a5,-544(a5) # 2acc <__stdio_exit_handler>
     cf4:	00000717          	auipc	a4,0x0
     cf8:	bfc70713          	addi	a4,a4,-1028 # 8f0 <cleanup_stdio>
     cfc:	02e42a23          	sw	a4,52(s0)
     d00:	00078e63          	beqz	a5,d1c <__sinit+0x54>
     d04:	00812403          	lw	s0,8(sp)
     d08:	00c12083          	lw	ra,12(sp)
     d0c:	00002517          	auipc	a0,0x2
     d10:	de450513          	addi	a0,a0,-540 # 2af0 <__lock___sfp_recursive_mutex>
     d14:	01010113          	addi	sp,sp,16
     d18:	5c40006f          	j	12dc <__retarget_lock_release_recursive>
     d1c:	cc5ff0ef          	jal	9e0 <global_stdio_init.part.0>
     d20:	00812403          	lw	s0,8(sp)
     d24:	00c12083          	lw	ra,12(sp)
     d28:	00002517          	auipc	a0,0x2
     d2c:	dc850513          	addi	a0,a0,-568 # 2af0 <__lock___sfp_recursive_mutex>
     d30:	01010113          	addi	sp,sp,16
     d34:	5a80006f          	j	12dc <__retarget_lock_release_recursive>

00000d38 <__sfp_lock_acquire>:
     d38:	00002517          	auipc	a0,0x2
     d3c:	db850513          	addi	a0,a0,-584 # 2af0 <__lock___sfp_recursive_mutex>
     d40:	5840006f          	j	12c4 <__retarget_lock_acquire_recursive>

00000d44 <__sfp_lock_release>:
     d44:	00002517          	auipc	a0,0x2
     d48:	dac50513          	addi	a0,a0,-596 # 2af0 <__lock___sfp_recursive_mutex>
     d4c:	5900006f          	j	12dc <__retarget_lock_release_recursive>

00000d50 <__fp_lock_all>:
     d50:	ff010113          	addi	sp,sp,-16
     d54:	00002517          	auipc	a0,0x2
     d58:	d9c50513          	addi	a0,a0,-612 # 2af0 <__lock___sfp_recursive_mutex>
     d5c:	00112623          	sw	ra,12(sp)
     d60:	564000ef          	jal	12c4 <__retarget_lock_acquire_recursive>
     d64:	00c12083          	lw	ra,12(sp)
     d68:	0ffff617          	auipc	a2,0xffff
     d6c:	3b860613          	addi	a2,a2,952 # 10000120 <__sglue>
     d70:	00000597          	auipc	a1,0x0
     d74:	bf058593          	addi	a1,a1,-1040 # 960 <__fp_lock>
     d78:	00000513          	li	a0,0
     d7c:	01010113          	addi	sp,sp,16
     d80:	0380006f          	j	db8 <_fwalk_sglue>

00000d84 <__fp_unlock_all>:
     d84:	ff010113          	addi	sp,sp,-16
     d88:	0ffff617          	auipc	a2,0xffff
     d8c:	39860613          	addi	a2,a2,920 # 10000120 <__sglue>
     d90:	00000597          	auipc	a1,0x0
     d94:	c1058593          	addi	a1,a1,-1008 # 9a0 <__fp_unlock>
     d98:	00000513          	li	a0,0
     d9c:	00112623          	sw	ra,12(sp)
     da0:	018000ef          	jal	db8 <_fwalk_sglue>
     da4:	00c12083          	lw	ra,12(sp)
     da8:	00002517          	auipc	a0,0x2
     dac:	d4850513          	addi	a0,a0,-696 # 2af0 <__lock___sfp_recursive_mutex>
     db0:	01010113          	addi	sp,sp,16
     db4:	5280006f          	j	12dc <__retarget_lock_release_recursive>

00000db8 <_fwalk_sglue>:
     db8:	fd010113          	addi	sp,sp,-48
     dbc:	03212023          	sw	s2,32(sp)
     dc0:	01312e23          	sw	s3,28(sp)
     dc4:	01412c23          	sw	s4,24(sp)
     dc8:	01512a23          	sw	s5,20(sp)
     dcc:	01612823          	sw	s6,16(sp)
     dd0:	01712623          	sw	s7,12(sp)
     dd4:	02112623          	sw	ra,44(sp)
     dd8:	02812423          	sw	s0,40(sp)
     ddc:	02912223          	sw	s1,36(sp)
     de0:	00050b13          	mv	s6,a0
     de4:	00058b93          	mv	s7,a1
     de8:	00060a93          	mv	s5,a2
     dec:	00000a13          	li	s4,0
     df0:	00100993          	li	s3,1
     df4:	fff00913          	li	s2,-1
     df8:	004aa483          	lw	s1,4(s5)
     dfc:	008aa403          	lw	s0,8(s5)
     e00:	fff48493          	addi	s1,s1,-1
     e04:	0204c863          	bltz	s1,e34 <_fwalk_sglue+0x7c>
     e08:	00c45783          	lhu	a5,12(s0)
     e0c:	00f9fe63          	bgeu	s3,a5,e28 <_fwalk_sglue+0x70>
     e10:	00e41783          	lh	a5,14(s0)
     e14:	00040593          	mv	a1,s0
     e18:	000b0513          	mv	a0,s6
     e1c:	01278663          	beq	a5,s2,e28 <_fwalk_sglue+0x70>
     e20:	000b80e7          	jalr	s7
     e24:	00aa6a33          	or	s4,s4,a0
     e28:	fff48493          	addi	s1,s1,-1
     e2c:	06840413          	addi	s0,s0,104
     e30:	fd249ce3          	bne	s1,s2,e08 <_fwalk_sglue+0x50>
     e34:	000aaa83          	lw	s5,0(s5)
     e38:	fc0a90e3          	bnez	s5,df8 <_fwalk_sglue+0x40>
     e3c:	02c12083          	lw	ra,44(sp)
     e40:	02812403          	lw	s0,40(sp)
     e44:	02412483          	lw	s1,36(sp)
     e48:	02012903          	lw	s2,32(sp)
     e4c:	01c12983          	lw	s3,28(sp)
     e50:	01412a83          	lw	s5,20(sp)
     e54:	01012b03          	lw	s6,16(sp)
     e58:	00c12b83          	lw	s7,12(sp)
     e5c:	000a0513          	mv	a0,s4
     e60:	01812a03          	lw	s4,24(sp)
     e64:	03010113          	addi	sp,sp,48
     e68:	00008067          	ret

00000e6c <__sread>:
     e6c:	ff010113          	addi	sp,sp,-16
     e70:	00812423          	sw	s0,8(sp)
     e74:	00058413          	mv	s0,a1
     e78:	00e59583          	lh	a1,14(a1)
     e7c:	00112623          	sw	ra,12(sp)
     e80:	328000ef          	jal	11a8 <_read_r>
     e84:	02054063          	bltz	a0,ea4 <__sread+0x38>
     e88:	05042783          	lw	a5,80(s0)
     e8c:	00c12083          	lw	ra,12(sp)
     e90:	00a787b3          	add	a5,a5,a0
     e94:	04f42823          	sw	a5,80(s0)
     e98:	00812403          	lw	s0,8(sp)
     e9c:	01010113          	addi	sp,sp,16
     ea0:	00008067          	ret
     ea4:	00c45783          	lhu	a5,12(s0)
     ea8:	fffff737          	lui	a4,0xfffff
     eac:	fff70713          	addi	a4,a4,-1 # ffffefff <_stack_top+0xefffafff>
     eb0:	00e7f7b3          	and	a5,a5,a4
     eb4:	00c12083          	lw	ra,12(sp)
     eb8:	00f41623          	sh	a5,12(s0)
     ebc:	00812403          	lw	s0,8(sp)
     ec0:	01010113          	addi	sp,sp,16
     ec4:	00008067          	ret

00000ec8 <__seofread>:
     ec8:	00000513          	li	a0,0
     ecc:	00008067          	ret

00000ed0 <__swrite>:
     ed0:	00c59783          	lh	a5,12(a1)
     ed4:	fe010113          	addi	sp,sp,-32
     ed8:	00812c23          	sw	s0,24(sp)
     edc:	00912a23          	sw	s1,20(sp)
     ee0:	01212823          	sw	s2,16(sp)
     ee4:	01312623          	sw	s3,12(sp)
     ee8:	00112e23          	sw	ra,28(sp)
     eec:	1007f713          	andi	a4,a5,256
     ef0:	00058413          	mv	s0,a1
     ef4:	00060913          	mv	s2,a2
     ef8:	00068993          	mv	s3,a3
     efc:	00050493          	mv	s1,a0
     f00:	04071063          	bnez	a4,f40 <__swrite+0x70>
     f04:	fffff737          	lui	a4,0xfffff
     f08:	fff70713          	addi	a4,a4,-1 # ffffefff <_stack_top+0xefffafff>
     f0c:	00e7f7b3          	and	a5,a5,a4
     f10:	00e41583          	lh	a1,14(s0)
     f14:	00f41623          	sh	a5,12(s0)
     f18:	01812403          	lw	s0,24(sp)
     f1c:	01c12083          	lw	ra,28(sp)
     f20:	00098693          	mv	a3,s3
     f24:	00090613          	mv	a2,s2
     f28:	00c12983          	lw	s3,12(sp)
     f2c:	01012903          	lw	s2,16(sp)
     f30:	00048513          	mv	a0,s1
     f34:	01412483          	lw	s1,20(sp)
     f38:	02010113          	addi	sp,sp,32
     f3c:	2f00006f          	j	122c <_write_r>
     f40:	00e59583          	lh	a1,14(a1)
     f44:	00200693          	li	a3,2
     f48:	00000613          	li	a2,0
     f4c:	1d8000ef          	jal	1124 <_lseek_r>
     f50:	00c41783          	lh	a5,12(s0)
     f54:	fb1ff06f          	j	f04 <__swrite+0x34>

00000f58 <__sseek>:
     f58:	ff010113          	addi	sp,sp,-16
     f5c:	00812423          	sw	s0,8(sp)
     f60:	00058413          	mv	s0,a1
     f64:	00e59583          	lh	a1,14(a1)
     f68:	00112623          	sw	ra,12(sp)
     f6c:	1b8000ef          	jal	1124 <_lseek_r>
     f70:	fff00713          	li	a4,-1
     f74:	00c41783          	lh	a5,12(s0)
     f78:	02e50263          	beq	a0,a4,f9c <__sseek+0x44>
     f7c:	00001737          	lui	a4,0x1
     f80:	00e7e7b3          	or	a5,a5,a4
     f84:	00c12083          	lw	ra,12(sp)
     f88:	04a42823          	sw	a0,80(s0)
     f8c:	00f41623          	sh	a5,12(s0)
     f90:	00812403          	lw	s0,8(sp)
     f94:	01010113          	addi	sp,sp,16
     f98:	00008067          	ret
     f9c:	fffff737          	lui	a4,0xfffff
     fa0:	fff70713          	addi	a4,a4,-1 # ffffefff <_stack_top+0xefffafff>
     fa4:	00e7f7b3          	and	a5,a5,a4
     fa8:	00c12083          	lw	ra,12(sp)
     fac:	00f41623          	sh	a5,12(s0)
     fb0:	00812403          	lw	s0,8(sp)
     fb4:	01010113          	addi	sp,sp,16
     fb8:	00008067          	ret

00000fbc <__sclose>:
     fbc:	00e59583          	lh	a1,14(a1)
     fc0:	0040006f          	j	fc4 <_close_r>

00000fc4 <_close_r>:
     fc4:	ff010113          	addi	sp,sp,-16
     fc8:	00812423          	sw	s0,8(sp)
     fcc:	00050413          	mv	s0,a0
     fd0:	00058513          	mv	a0,a1
     fd4:	00002797          	auipc	a5,0x2
     fd8:	ae07ae23          	sw	zero,-1284(a5) # 2ad0 <errno>
     fdc:	00112623          	sw	ra,12(sp)
     fe0:	ae0ff0ef          	jal	2c0 <_close>
     fe4:	fff00793          	li	a5,-1
     fe8:	00f50a63          	beq	a0,a5,ffc <_close_r+0x38>
     fec:	00c12083          	lw	ra,12(sp)
     ff0:	00812403          	lw	s0,8(sp)
     ff4:	01010113          	addi	sp,sp,16
     ff8:	00008067          	ret
     ffc:	00912223          	sw	s1,4(sp)
    1000:	00002497          	auipc	s1,0x2
    1004:	ad048493          	addi	s1,s1,-1328 # 2ad0 <errno>
    1008:	0004a783          	lw	a5,0(s1)
    100c:	00078e63          	beqz	a5,1028 <_close_r+0x64>
    1010:	00c12083          	lw	ra,12(sp)
    1014:	00f42023          	sw	a5,0(s0)
    1018:	00812403          	lw	s0,8(sp)
    101c:	00412483          	lw	s1,4(sp)
    1020:	01010113          	addi	sp,sp,16
    1024:	00008067          	ret
    1028:	00c12083          	lw	ra,12(sp)
    102c:	00812403          	lw	s0,8(sp)
    1030:	00412483          	lw	s1,4(sp)
    1034:	01010113          	addi	sp,sp,16
    1038:	00008067          	ret

0000103c <_reclaim_reent>:
    103c:	0ffff797          	auipc	a5,0xffff
    1040:	5007a783          	lw	a5,1280(a5) # 1000053c <_impure_ptr>
    1044:	0ca78e63          	beq	a5,a0,1120 <_reclaim_reent+0xe4>
    1048:	04452583          	lw	a1,68(a0)
    104c:	fe010113          	addi	sp,sp,-32
    1050:	00912a23          	sw	s1,20(sp)
    1054:	00112e23          	sw	ra,28(sp)
    1058:	00812c23          	sw	s0,24(sp)
    105c:	00050493          	mv	s1,a0
    1060:	04058863          	beqz	a1,10b0 <_reclaim_reent+0x74>
    1064:	01212823          	sw	s2,16(sp)
    1068:	01312623          	sw	s3,12(sp)
    106c:	00000913          	li	s2,0
    1070:	08000993          	li	s3,128
    1074:	012587b3          	add	a5,a1,s2
    1078:	0007a403          	lw	s0,0(a5)
    107c:	00040e63          	beqz	s0,1098 <_reclaim_reent+0x5c>
    1080:	00040593          	mv	a1,s0
    1084:	00042403          	lw	s0,0(s0)
    1088:	00048513          	mv	a0,s1
    108c:	398000ef          	jal	1424 <_free_r>
    1090:	fe0418e3          	bnez	s0,1080 <_reclaim_reent+0x44>
    1094:	0444a583          	lw	a1,68(s1)
    1098:	00490913          	addi	s2,s2,4
    109c:	fd391ce3          	bne	s2,s3,1074 <_reclaim_reent+0x38>
    10a0:	00048513          	mv	a0,s1
    10a4:	380000ef          	jal	1424 <_free_r>
    10a8:	01012903          	lw	s2,16(sp)
    10ac:	00c12983          	lw	s3,12(sp)
    10b0:	0384a583          	lw	a1,56(s1)
    10b4:	00058663          	beqz	a1,10c0 <_reclaim_reent+0x84>
    10b8:	00048513          	mv	a0,s1
    10bc:	368000ef          	jal	1424 <_free_r>
    10c0:	0404a403          	lw	s0,64(s1)
    10c4:	00040c63          	beqz	s0,10dc <_reclaim_reent+0xa0>
    10c8:	00040593          	mv	a1,s0
    10cc:	00042403          	lw	s0,0(s0)
    10d0:	00048513          	mv	a0,s1
    10d4:	350000ef          	jal	1424 <_free_r>
    10d8:	fe0418e3          	bnez	s0,10c8 <_reclaim_reent+0x8c>
    10dc:	04c4a583          	lw	a1,76(s1)
    10e0:	00058663          	beqz	a1,10ec <_reclaim_reent+0xb0>
    10e4:	00048513          	mv	a0,s1
    10e8:	33c000ef          	jal	1424 <_free_r>
    10ec:	0344a783          	lw	a5,52(s1)
    10f0:	00078e63          	beqz	a5,110c <_reclaim_reent+0xd0>
    10f4:	01812403          	lw	s0,24(sp)
    10f8:	01c12083          	lw	ra,28(sp)
    10fc:	00048513          	mv	a0,s1
    1100:	01412483          	lw	s1,20(sp)
    1104:	02010113          	addi	sp,sp,32
    1108:	00078067          	jr	a5
    110c:	01c12083          	lw	ra,28(sp)
    1110:	01812403          	lw	s0,24(sp)
    1114:	01412483          	lw	s1,20(sp)
    1118:	02010113          	addi	sp,sp,32
    111c:	00008067          	ret
    1120:	00008067          	ret

00001124 <_lseek_r>:
    1124:	ff010113          	addi	sp,sp,-16
    1128:	00058713          	mv	a4,a1
    112c:	00812423          	sw	s0,8(sp)
    1130:	00060593          	mv	a1,a2
    1134:	00050413          	mv	s0,a0
    1138:	00068613          	mv	a2,a3
    113c:	00070513          	mv	a0,a4
    1140:	00002797          	auipc	a5,0x2
    1144:	9807a823          	sw	zero,-1648(a5) # 2ad0 <errno>
    1148:	00112623          	sw	ra,12(sp)
    114c:	a08ff0ef          	jal	354 <_lseek>
    1150:	fff00793          	li	a5,-1
    1154:	00f50a63          	beq	a0,a5,1168 <_lseek_r+0x44>
    1158:	00c12083          	lw	ra,12(sp)
    115c:	00812403          	lw	s0,8(sp)
    1160:	01010113          	addi	sp,sp,16
    1164:	00008067          	ret
    1168:	00912223          	sw	s1,4(sp)
    116c:	00002497          	auipc	s1,0x2
    1170:	96448493          	addi	s1,s1,-1692 # 2ad0 <errno>
    1174:	0004a783          	lw	a5,0(s1)
    1178:	00078e63          	beqz	a5,1194 <_lseek_r+0x70>
    117c:	00c12083          	lw	ra,12(sp)
    1180:	00f42023          	sw	a5,0(s0)
    1184:	00812403          	lw	s0,8(sp)
    1188:	00412483          	lw	s1,4(sp)
    118c:	01010113          	addi	sp,sp,16
    1190:	00008067          	ret
    1194:	00c12083          	lw	ra,12(sp)
    1198:	00812403          	lw	s0,8(sp)
    119c:	00412483          	lw	s1,4(sp)
    11a0:	01010113          	addi	sp,sp,16
    11a4:	00008067          	ret

000011a8 <_read_r>:
    11a8:	ff010113          	addi	sp,sp,-16
    11ac:	00058713          	mv	a4,a1
    11b0:	00812423          	sw	s0,8(sp)
    11b4:	00060593          	mv	a1,a2
    11b8:	00050413          	mv	s0,a0
    11bc:	00068613          	mv	a2,a3
    11c0:	00070513          	mv	a0,a4
    11c4:	00002797          	auipc	a5,0x2
    11c8:	9007a623          	sw	zero,-1780(a5) # 2ad0 <errno>
    11cc:	00112623          	sw	ra,12(sp)
    11d0:	850ff0ef          	jal	220 <_read>
    11d4:	fff00793          	li	a5,-1
    11d8:	00f50a63          	beq	a0,a5,11ec <_read_r+0x44>
    11dc:	00c12083          	lw	ra,12(sp)
    11e0:	00812403          	lw	s0,8(sp)
    11e4:	01010113          	addi	sp,sp,16
    11e8:	00008067          	ret
    11ec:	00912223          	sw	s1,4(sp)
    11f0:	00002497          	auipc	s1,0x2
    11f4:	8e048493          	addi	s1,s1,-1824 # 2ad0 <errno>
    11f8:	0004a783          	lw	a5,0(s1)
    11fc:	00078e63          	beqz	a5,1218 <_read_r+0x70>
    1200:	00c12083          	lw	ra,12(sp)
    1204:	00f42023          	sw	a5,0(s0)
    1208:	00812403          	lw	s0,8(sp)
    120c:	00412483          	lw	s1,4(sp)
    1210:	01010113          	addi	sp,sp,16
    1214:	00008067          	ret
    1218:	00c12083          	lw	ra,12(sp)
    121c:	00812403          	lw	s0,8(sp)
    1220:	00412483          	lw	s1,4(sp)
    1224:	01010113          	addi	sp,sp,16
    1228:	00008067          	ret

0000122c <_write_r>:
    122c:	ff010113          	addi	sp,sp,-16
    1230:	00058713          	mv	a4,a1
    1234:	00812423          	sw	s0,8(sp)
    1238:	00060593          	mv	a1,a2
    123c:	00050413          	mv	s0,a0
    1240:	00068613          	mv	a2,a3
    1244:	00070513          	mv	a0,a4
    1248:	00002797          	auipc	a5,0x2
    124c:	8807a423          	sw	zero,-1912(a5) # 2ad0 <errno>
    1250:	00112623          	sw	ra,12(sp)
    1254:	800ff0ef          	jal	254 <_write>
    1258:	fff00793          	li	a5,-1
    125c:	00f50a63          	beq	a0,a5,1270 <_write_r+0x44>
    1260:	00c12083          	lw	ra,12(sp)
    1264:	00812403          	lw	s0,8(sp)
    1268:	01010113          	addi	sp,sp,16
    126c:	00008067          	ret
    1270:	00912223          	sw	s1,4(sp)
    1274:	00002497          	auipc	s1,0x2
    1278:	85c48493          	addi	s1,s1,-1956 # 2ad0 <errno>
    127c:	0004a783          	lw	a5,0(s1)
    1280:	00078e63          	beqz	a5,129c <_write_r+0x70>
    1284:	00c12083          	lw	ra,12(sp)
    1288:	00f42023          	sw	a5,0(s0)
    128c:	00812403          	lw	s0,8(sp)
    1290:	00412483          	lw	s1,4(sp)
    1294:	01010113          	addi	sp,sp,16
    1298:	00008067          	ret
    129c:	00c12083          	lw	ra,12(sp)
    12a0:	00812403          	lw	s0,8(sp)
    12a4:	00412483          	lw	s1,4(sp)
    12a8:	01010113          	addi	sp,sp,16
    12ac:	00008067          	ret

000012b0 <__retarget_lock_init>:
    12b0:	00008067          	ret

000012b4 <__retarget_lock_init_recursive>:
    12b4:	00008067          	ret

000012b8 <__retarget_lock_close>:
    12b8:	00008067          	ret

000012bc <__retarget_lock_close_recursive>:
    12bc:	00008067          	ret

000012c0 <__retarget_lock_acquire>:
    12c0:	00008067          	ret

000012c4 <__retarget_lock_acquire_recursive>:
    12c4:	00008067          	ret

000012c8 <__retarget_lock_try_acquire>:
    12c8:	00100513          	li	a0,1
    12cc:	00008067          	ret

000012d0 <__retarget_lock_try_acquire_recursive>:
    12d0:	00100513          	li	a0,1
    12d4:	00008067          	ret

000012d8 <__retarget_lock_release>:
    12d8:	00008067          	ret

000012dc <__retarget_lock_release_recursive>:
    12dc:	00008067          	ret

000012e0 <_malloc_trim_r>:
    12e0:	fe010113          	addi	sp,sp,-32
    12e4:	00812c23          	sw	s0,24(sp)
    12e8:	00912a23          	sw	s1,20(sp)
    12ec:	01212823          	sw	s2,16(sp)
    12f0:	01312623          	sw	s3,12(sp)
    12f4:	01412423          	sw	s4,8(sp)
    12f8:	00058993          	mv	s3,a1
    12fc:	00112e23          	sw	ra,28(sp)
    1300:	00050913          	mv	s2,a0
    1304:	0ffffa17          	auipc	s4,0xffff
    1308:	e28a0a13          	addi	s4,s4,-472 # 1000012c <__malloc_av_>
    130c:	43d000ef          	jal	1f48 <__malloc_lock>
    1310:	008a2783          	lw	a5,8(s4)
    1314:	00001437          	lui	s0,0x1
    1318:	fef40413          	addi	s0,s0,-17 # fef <_close_r+0x2b>
    131c:	0047a483          	lw	s1,4(a5)
    1320:	000017b7          	lui	a5,0x1
    1324:	ffc4f493          	andi	s1,s1,-4
    1328:	00848433          	add	s0,s1,s0
    132c:	41340433          	sub	s0,s0,s3
    1330:	00c45413          	srli	s0,s0,0xc
    1334:	fff40413          	addi	s0,s0,-1
    1338:	00c41413          	slli	s0,s0,0xc
    133c:	00f44e63          	blt	s0,a5,1358 <_malloc_trim_r+0x78>
    1340:	00000593          	li	a1,0
    1344:	00090513          	mv	a0,s2
    1348:	1a0010ef          	jal	24e8 <_sbrk_r>
    134c:	008a2783          	lw	a5,8(s4)
    1350:	009787b3          	add	a5,a5,s1
    1354:	02f50863          	beq	a0,a5,1384 <_malloc_trim_r+0xa4>
    1358:	00090513          	mv	a0,s2
    135c:	3f9000ef          	jal	1f54 <__malloc_unlock>
    1360:	01c12083          	lw	ra,28(sp)
    1364:	01812403          	lw	s0,24(sp)
    1368:	01412483          	lw	s1,20(sp)
    136c:	01012903          	lw	s2,16(sp)
    1370:	00c12983          	lw	s3,12(sp)
    1374:	00812a03          	lw	s4,8(sp)
    1378:	00000513          	li	a0,0
    137c:	02010113          	addi	sp,sp,32
    1380:	00008067          	ret
    1384:	408005b3          	neg	a1,s0
    1388:	00090513          	mv	a0,s2
    138c:	15c010ef          	jal	24e8 <_sbrk_r>
    1390:	fff00793          	li	a5,-1
    1394:	04f50a63          	beq	a0,a5,13e8 <_malloc_trim_r+0x108>
    1398:	0ffff717          	auipc	a4,0xffff
    139c:	2e870713          	addi	a4,a4,744 # 10000680 <__malloc_current_mallinfo>
    13a0:	008a2683          	lw	a3,8(s4)
    13a4:	00072783          	lw	a5,0(a4)
    13a8:	408484b3          	sub	s1,s1,s0
    13ac:	0014e493          	ori	s1,s1,1
    13b0:	00090513          	mv	a0,s2
    13b4:	408787b3          	sub	a5,a5,s0
    13b8:	0096a223          	sw	s1,4(a3)
    13bc:	00f72023          	sw	a5,0(a4)
    13c0:	395000ef          	jal	1f54 <__malloc_unlock>
    13c4:	01c12083          	lw	ra,28(sp)
    13c8:	01812403          	lw	s0,24(sp)
    13cc:	01412483          	lw	s1,20(sp)
    13d0:	01012903          	lw	s2,16(sp)
    13d4:	00c12983          	lw	s3,12(sp)
    13d8:	00812a03          	lw	s4,8(sp)
    13dc:	00100513          	li	a0,1
    13e0:	02010113          	addi	sp,sp,32
    13e4:	00008067          	ret
    13e8:	00000593          	li	a1,0
    13ec:	00090513          	mv	a0,s2
    13f0:	0f8010ef          	jal	24e8 <_sbrk_r>
    13f4:	008a2703          	lw	a4,8(s4)
    13f8:	00f00693          	li	a3,15
    13fc:	40e507b3          	sub	a5,a0,a4
    1400:	f4f6dce3          	bge	a3,a5,1358 <_malloc_trim_r+0x78>
    1404:	0ffff697          	auipc	a3,0xffff
    1408:	13c6a683          	lw	a3,316(a3) # 10000540 <__malloc_sbrk_base>
    140c:	0017e793          	ori	a5,a5,1
    1410:	00f72223          	sw	a5,4(a4)
    1414:	40d50533          	sub	a0,a0,a3
    1418:	0ffff797          	auipc	a5,0xffff
    141c:	26a7a423          	sw	a0,616(a5) # 10000680 <__malloc_current_mallinfo>
    1420:	f39ff06f          	j	1358 <_malloc_trim_r+0x78>

00001424 <_free_r>:
    1424:	12058663          	beqz	a1,1550 <_free_r+0x12c>
    1428:	ff010113          	addi	sp,sp,-16
    142c:	00812423          	sw	s0,8(sp)
    1430:	00912223          	sw	s1,4(sp)
    1434:	00058413          	mv	s0,a1
    1438:	00050493          	mv	s1,a0
    143c:	00112623          	sw	ra,12(sp)
    1440:	309000ef          	jal	1f48 <__malloc_lock>
    1444:	ffc42583          	lw	a1,-4(s0)
    1448:	ff840713          	addi	a4,s0,-8
    144c:	0ffff817          	auipc	a6,0xffff
    1450:	ce080813          	addi	a6,a6,-800 # 1000012c <__malloc_av_>
    1454:	ffe5f793          	andi	a5,a1,-2
    1458:	00f70633          	add	a2,a4,a5
    145c:	00462683          	lw	a3,4(a2)
    1460:	00882503          	lw	a0,8(a6)
    1464:	0015f893          	andi	a7,a1,1
    1468:	ffc6f693          	andi	a3,a3,-4
    146c:	18c50c63          	beq	a0,a2,1604 <_free_r+0x1e0>
    1470:	00d62223          	sw	a3,4(a2)
    1474:	00d60533          	add	a0,a2,a3
    1478:	00452503          	lw	a0,4(a0)
    147c:	00157513          	andi	a0,a0,1
    1480:	08089c63          	bnez	a7,1518 <_free_r+0xf4>
    1484:	ff842303          	lw	t1,-8(s0)
    1488:	0ffff897          	auipc	a7,0xffff
    148c:	cac88893          	addi	a7,a7,-852 # 10000134 <__malloc_av_+0x8>
    1490:	40670733          	sub	a4,a4,t1
    1494:	00872583          	lw	a1,8(a4)
    1498:	006787b3          	add	a5,a5,t1
    149c:	13158e63          	beq	a1,a7,15d8 <_free_r+0x1b4>
    14a0:	00c72303          	lw	t1,12(a4)
    14a4:	0065a623          	sw	t1,12(a1)
    14a8:	00b32423          	sw	a1,8(t1)
    14ac:	1a050463          	beqz	a0,1654 <_free_r+0x230>
    14b0:	0017e693          	ori	a3,a5,1
    14b4:	00d72223          	sw	a3,4(a4)
    14b8:	00f62023          	sw	a5,0(a2)
    14bc:	1ff00693          	li	a3,511
    14c0:	0af6e463          	bltu	a3,a5,1568 <_free_r+0x144>
    14c4:	ff87f693          	andi	a3,a5,-8
    14c8:	00868693          	addi	a3,a3,8
    14cc:	00482583          	lw	a1,4(a6)
    14d0:	00d806b3          	add	a3,a6,a3
    14d4:	0006a603          	lw	a2,0(a3)
    14d8:	0057d513          	srli	a0,a5,0x5
    14dc:	00100793          	li	a5,1
    14e0:	00a797b3          	sll	a5,a5,a0
    14e4:	00b7e7b3          	or	a5,a5,a1
    14e8:	ff868593          	addi	a1,a3,-8
    14ec:	00c72423          	sw	a2,8(a4)
    14f0:	00b72623          	sw	a1,12(a4)
    14f4:	00f82223          	sw	a5,4(a6)
    14f8:	00e6a023          	sw	a4,0(a3)
    14fc:	00e62623          	sw	a4,12(a2)
    1500:	00812403          	lw	s0,8(sp)
    1504:	00c12083          	lw	ra,12(sp)
    1508:	00048513          	mv	a0,s1
    150c:	00412483          	lw	s1,4(sp)
    1510:	01010113          	addi	sp,sp,16
    1514:	2410006f          	j	1f54 <__malloc_unlock>
    1518:	02051e63          	bnez	a0,1554 <_free_r+0x130>
    151c:	00d787b3          	add	a5,a5,a3
    1520:	0ffff897          	auipc	a7,0xffff
    1524:	c1488893          	addi	a7,a7,-1004 # 10000134 <__malloc_av_+0x8>
    1528:	00862683          	lw	a3,8(a2)
    152c:	0017e513          	ori	a0,a5,1
    1530:	00f705b3          	add	a1,a4,a5
    1534:	17168663          	beq	a3,a7,16a0 <_free_r+0x27c>
    1538:	00c62603          	lw	a2,12(a2)
    153c:	00c6a623          	sw	a2,12(a3)
    1540:	00d62423          	sw	a3,8(a2)
    1544:	00a72223          	sw	a0,4(a4)
    1548:	00f5a023          	sw	a5,0(a1)
    154c:	f71ff06f          	j	14bc <_free_r+0x98>
    1550:	00008067          	ret
    1554:	0015e593          	ori	a1,a1,1
    1558:	feb42e23          	sw	a1,-4(s0)
    155c:	00f62023          	sw	a5,0(a2)
    1560:	1ff00693          	li	a3,511
    1564:	f6f6f0e3          	bgeu	a3,a5,14c4 <_free_r+0xa0>
    1568:	0097d693          	srli	a3,a5,0x9
    156c:	00400613          	li	a2,4
    1570:	0ed66663          	bltu	a2,a3,165c <_free_r+0x238>
    1574:	0067d693          	srli	a3,a5,0x6
    1578:	03968593          	addi	a1,a3,57
    157c:	00359593          	slli	a1,a1,0x3
    1580:	03868613          	addi	a2,a3,56
    1584:	00b805b3          	add	a1,a6,a1
    1588:	0005a683          	lw	a3,0(a1)
    158c:	ff858593          	addi	a1,a1,-8
    1590:	00d59863          	bne	a1,a3,15a0 <_free_r+0x17c>
    1594:	1280006f          	j	16bc <_free_r+0x298>
    1598:	0086a683          	lw	a3,8(a3)
    159c:	00d58863          	beq	a1,a3,15ac <_free_r+0x188>
    15a0:	0046a603          	lw	a2,4(a3)
    15a4:	ffc67613          	andi	a2,a2,-4
    15a8:	fec7e8e3          	bltu	a5,a2,1598 <_free_r+0x174>
    15ac:	00c6a583          	lw	a1,12(a3)
    15b0:	00b72623          	sw	a1,12(a4)
    15b4:	00d72423          	sw	a3,8(a4)
    15b8:	00812403          	lw	s0,8(sp)
    15bc:	00c12083          	lw	ra,12(sp)
    15c0:	00e5a423          	sw	a4,8(a1)
    15c4:	00048513          	mv	a0,s1
    15c8:	00412483          	lw	s1,4(sp)
    15cc:	00e6a623          	sw	a4,12(a3)
    15d0:	01010113          	addi	sp,sp,16
    15d4:	1810006f          	j	1f54 <__malloc_unlock>
    15d8:	0a051463          	bnez	a0,1680 <_free_r+0x25c>
    15dc:	00c62583          	lw	a1,12(a2)
    15e0:	00862603          	lw	a2,8(a2)
    15e4:	00f686b3          	add	a3,a3,a5
    15e8:	0016e793          	ori	a5,a3,1
    15ec:	00b62623          	sw	a1,12(a2)
    15f0:	00c5a423          	sw	a2,8(a1)
    15f4:	00f72223          	sw	a5,4(a4)
    15f8:	00d70733          	add	a4,a4,a3
    15fc:	00d72023          	sw	a3,0(a4)
    1600:	f01ff06f          	j	1500 <_free_r+0xdc>
    1604:	00d786b3          	add	a3,a5,a3
    1608:	02089063          	bnez	a7,1628 <_free_r+0x204>
    160c:	ff842583          	lw	a1,-8(s0)
    1610:	40b70733          	sub	a4,a4,a1
    1614:	00c72783          	lw	a5,12(a4)
    1618:	00872603          	lw	a2,8(a4)
    161c:	00b686b3          	add	a3,a3,a1
    1620:	00f62623          	sw	a5,12(a2)
    1624:	00c7a423          	sw	a2,8(a5)
    1628:	0016e613          	ori	a2,a3,1
    162c:	0ffff797          	auipc	a5,0xffff
    1630:	f187a783          	lw	a5,-232(a5) # 10000544 <__malloc_trim_threshold>
    1634:	00c72223          	sw	a2,4(a4)
    1638:	00e82423          	sw	a4,8(a6)
    163c:	ecf6e2e3          	bltu	a3,a5,1500 <_free_r+0xdc>
    1640:	00001597          	auipc	a1,0x1
    1644:	4bc5a583          	lw	a1,1212(a1) # 2afc <__malloc_top_pad>
    1648:	00048513          	mv	a0,s1
    164c:	c95ff0ef          	jal	12e0 <_malloc_trim_r>
    1650:	eb1ff06f          	j	1500 <_free_r+0xdc>
    1654:	00d787b3          	add	a5,a5,a3
    1658:	ed1ff06f          	j	1528 <_free_r+0x104>
    165c:	01400613          	li	a2,20
    1660:	02d67863          	bgeu	a2,a3,1690 <_free_r+0x26c>
    1664:	05400613          	li	a2,84
    1668:	06d66863          	bltu	a2,a3,16d8 <_free_r+0x2b4>
    166c:	00c7d693          	srli	a3,a5,0xc
    1670:	06f68593          	addi	a1,a3,111
    1674:	00359593          	slli	a1,a1,0x3
    1678:	06e68613          	addi	a2,a3,110
    167c:	f09ff06f          	j	1584 <_free_r+0x160>
    1680:	0017e693          	ori	a3,a5,1
    1684:	00d72223          	sw	a3,4(a4)
    1688:	00f62023          	sw	a5,0(a2)
    168c:	e75ff06f          	j	1500 <_free_r+0xdc>
    1690:	05c68593          	addi	a1,a3,92
    1694:	00359593          	slli	a1,a1,0x3
    1698:	05b68613          	addi	a2,a3,91
    169c:	ee9ff06f          	j	1584 <_free_r+0x160>
    16a0:	00e82a23          	sw	a4,20(a6)
    16a4:	00e82823          	sw	a4,16(a6)
    16a8:	01172623          	sw	a7,12(a4)
    16ac:	01172423          	sw	a7,8(a4)
    16b0:	00a72223          	sw	a0,4(a4)
    16b4:	00f5a023          	sw	a5,0(a1)
    16b8:	e49ff06f          	j	1500 <_free_r+0xdc>
    16bc:	00482503          	lw	a0,4(a6)
    16c0:	40265613          	srai	a2,a2,0x2
    16c4:	00100793          	li	a5,1
    16c8:	00c797b3          	sll	a5,a5,a2
    16cc:	00a7e7b3          	or	a5,a5,a0
    16d0:	00f82223          	sw	a5,4(a6)
    16d4:	eddff06f          	j	15b0 <_free_r+0x18c>
    16d8:	15400613          	li	a2,340
    16dc:	00d66c63          	bltu	a2,a3,16f4 <_free_r+0x2d0>
    16e0:	00f7d693          	srli	a3,a5,0xf
    16e4:	07868593          	addi	a1,a3,120
    16e8:	00359593          	slli	a1,a1,0x3
    16ec:	07768613          	addi	a2,a3,119
    16f0:	e95ff06f          	j	1584 <_free_r+0x160>
    16f4:	55400613          	li	a2,1364
    16f8:	00d66c63          	bltu	a2,a3,1710 <_free_r+0x2ec>
    16fc:	0127d693          	srli	a3,a5,0x12
    1700:	07d68593          	addi	a1,a3,125
    1704:	00359593          	slli	a1,a1,0x3
    1708:	07c68613          	addi	a2,a3,124
    170c:	e79ff06f          	j	1584 <_free_r+0x160>
    1710:	3f800593          	li	a1,1016
    1714:	07e00613          	li	a2,126
    1718:	e6dff06f          	j	1584 <_free_r+0x160>

0000171c <_malloc_r>:
    171c:	fd010113          	addi	sp,sp,-48
    1720:	03212023          	sw	s2,32(sp)
    1724:	02112623          	sw	ra,44(sp)
    1728:	02812423          	sw	s0,40(sp)
    172c:	02912223          	sw	s1,36(sp)
    1730:	01312e23          	sw	s3,28(sp)
    1734:	00b58793          	addi	a5,a1,11
    1738:	01600713          	li	a4,22
    173c:	00050913          	mv	s2,a0
    1740:	08f76063          	bltu	a4,a5,17c0 <_malloc_r+0xa4>
    1744:	01000493          	li	s1,16
    1748:	20b4e463          	bltu	s1,a1,1950 <_malloc_r+0x234>
    174c:	7fc000ef          	jal	1f48 <__malloc_lock>
    1750:	01800793          	li	a5,24
    1754:	00200593          	li	a1,2
    1758:	0ffff997          	auipc	s3,0xffff
    175c:	9d498993          	addi	s3,s3,-1580 # 1000012c <__malloc_av_>
    1760:	00f987b3          	add	a5,s3,a5
    1764:	0047a403          	lw	s0,4(a5)
    1768:	ff878713          	addi	a4,a5,-8
    176c:	46e40663          	beq	s0,a4,1bd8 <_malloc_r+0x4bc>
    1770:	00442783          	lw	a5,4(s0)
    1774:	00c42683          	lw	a3,12(s0)
    1778:	00842603          	lw	a2,8(s0)
    177c:	ffc7f793          	andi	a5,a5,-4
    1780:	00f407b3          	add	a5,s0,a5
    1784:	0047a703          	lw	a4,4(a5)
    1788:	00d62623          	sw	a3,12(a2)
    178c:	00c6a423          	sw	a2,8(a3)
    1790:	00176713          	ori	a4,a4,1
    1794:	00090513          	mv	a0,s2
    1798:	00e7a223          	sw	a4,4(a5)
    179c:	7b8000ef          	jal	1f54 <__malloc_unlock>
    17a0:	02c12083          	lw	ra,44(sp)
    17a4:	00840513          	addi	a0,s0,8
    17a8:	02812403          	lw	s0,40(sp)
    17ac:	02412483          	lw	s1,36(sp)
    17b0:	02012903          	lw	s2,32(sp)
    17b4:	01c12983          	lw	s3,28(sp)
    17b8:	03010113          	addi	sp,sp,48
    17bc:	00008067          	ret
    17c0:	ff87f493          	andi	s1,a5,-8
    17c4:	1807c663          	bltz	a5,1950 <_malloc_r+0x234>
    17c8:	18b4e463          	bltu	s1,a1,1950 <_malloc_r+0x234>
    17cc:	77c000ef          	jal	1f48 <__malloc_lock>
    17d0:	1f700793          	li	a5,503
    17d4:	5097fc63          	bgeu	a5,s1,1cec <_malloc_r+0x5d0>
    17d8:	0094d793          	srli	a5,s1,0x9
    17dc:	18078e63          	beqz	a5,1978 <_malloc_r+0x25c>
    17e0:	00400713          	li	a4,4
    17e4:	46f76263          	bltu	a4,a5,1c48 <_malloc_r+0x52c>
    17e8:	0064d793          	srli	a5,s1,0x6
    17ec:	03978593          	addi	a1,a5,57
    17f0:	03878813          	addi	a6,a5,56
    17f4:	00359613          	slli	a2,a1,0x3
    17f8:	0ffff997          	auipc	s3,0xffff
    17fc:	93498993          	addi	s3,s3,-1740 # 1000012c <__malloc_av_>
    1800:	00c98633          	add	a2,s3,a2
    1804:	00462403          	lw	s0,4(a2)
    1808:	ff860613          	addi	a2,a2,-8
    180c:	02860863          	beq	a2,s0,183c <_malloc_r+0x120>
    1810:	00f00513          	li	a0,15
    1814:	0140006f          	j	1828 <_malloc_r+0x10c>
    1818:	00c42683          	lw	a3,12(s0)
    181c:	36075c63          	bgez	a4,1b94 <_malloc_r+0x478>
    1820:	00d60e63          	beq	a2,a3,183c <_malloc_r+0x120>
    1824:	00068413          	mv	s0,a3
    1828:	00442783          	lw	a5,4(s0)
    182c:	ffc7f793          	andi	a5,a5,-4
    1830:	40978733          	sub	a4,a5,s1
    1834:	fee552e3          	bge	a0,a4,1818 <_malloc_r+0xfc>
    1838:	00080593          	mv	a1,a6
    183c:	0109a403          	lw	s0,16(s3)
    1840:	0ffff897          	auipc	a7,0xffff
    1844:	8f488893          	addi	a7,a7,-1804 # 10000134 <__malloc_av_+0x8>
    1848:	2d140663          	beq	s0,a7,1b14 <_malloc_r+0x3f8>
    184c:	00442783          	lw	a5,4(s0)
    1850:	00f00693          	li	a3,15
    1854:	ffc7f793          	andi	a5,a5,-4
    1858:	40978733          	sub	a4,a5,s1
    185c:	48e6ce63          	blt	a3,a4,1cf8 <_malloc_r+0x5dc>
    1860:	0119aa23          	sw	a7,20(s3)
    1864:	0119a823          	sw	a7,16(s3)
    1868:	46075263          	bgez	a4,1ccc <_malloc_r+0x5b0>
    186c:	1ff00713          	li	a4,511
    1870:	0049a503          	lw	a0,4(s3)
    1874:	36f76a63          	bltu	a4,a5,1be8 <_malloc_r+0x4cc>
    1878:	ff87f713          	andi	a4,a5,-8
    187c:	00870713          	addi	a4,a4,8
    1880:	00e98733          	add	a4,s3,a4
    1884:	00072683          	lw	a3,0(a4)
    1888:	0057d613          	srli	a2,a5,0x5
    188c:	00100793          	li	a5,1
    1890:	00c797b3          	sll	a5,a5,a2
    1894:	00f56533          	or	a0,a0,a5
    1898:	ff870793          	addi	a5,a4,-8
    189c:	00d42423          	sw	a3,8(s0)
    18a0:	00f42623          	sw	a5,12(s0)
    18a4:	00a9a223          	sw	a0,4(s3)
    18a8:	00872023          	sw	s0,0(a4)
    18ac:	0086a623          	sw	s0,12(a3)
    18b0:	4025d793          	srai	a5,a1,0x2
    18b4:	00100613          	li	a2,1
    18b8:	00f61633          	sll	a2,a2,a5
    18bc:	0cc56663          	bltu	a0,a2,1988 <_malloc_r+0x26c>
    18c0:	00a677b3          	and	a5,a2,a0
    18c4:	02079463          	bnez	a5,18ec <_malloc_r+0x1d0>
    18c8:	00161613          	slli	a2,a2,0x1
    18cc:	ffc5f593          	andi	a1,a1,-4
    18d0:	00a677b3          	and	a5,a2,a0
    18d4:	00458593          	addi	a1,a1,4
    18d8:	00079a63          	bnez	a5,18ec <_malloc_r+0x1d0>
    18dc:	00161613          	slli	a2,a2,0x1
    18e0:	00a677b3          	and	a5,a2,a0
    18e4:	00458593          	addi	a1,a1,4
    18e8:	fe078ae3          	beqz	a5,18dc <_malloc_r+0x1c0>
    18ec:	00f00813          	li	a6,15
    18f0:	00359313          	slli	t1,a1,0x3
    18f4:	00698333          	add	t1,s3,t1
    18f8:	00030513          	mv	a0,t1
    18fc:	00c52783          	lw	a5,12(a0)
    1900:	00058e13          	mv	t3,a1
    1904:	36f50463          	beq	a0,a5,1c6c <_malloc_r+0x550>
    1908:	0047a703          	lw	a4,4(a5)
    190c:	00078413          	mv	s0,a5
    1910:	00c7a783          	lw	a5,12(a5)
    1914:	ffc77713          	andi	a4,a4,-4
    1918:	409706b3          	sub	a3,a4,s1
    191c:	36d84463          	blt	a6,a3,1c84 <_malloc_r+0x568>
    1920:	fe06c2e3          	bltz	a3,1904 <_malloc_r+0x1e8>
    1924:	00e40733          	add	a4,s0,a4
    1928:	00472683          	lw	a3,4(a4)
    192c:	00842603          	lw	a2,8(s0)
    1930:	00090513          	mv	a0,s2
    1934:	0016e693          	ori	a3,a3,1
    1938:	00d72223          	sw	a3,4(a4)
    193c:	00f62623          	sw	a5,12(a2)
    1940:	00c7a423          	sw	a2,8(a5)
    1944:	610000ef          	jal	1f54 <__malloc_unlock>
    1948:	00840513          	addi	a0,s0,8
    194c:	0100006f          	j	195c <_malloc_r+0x240>
    1950:	00c00793          	li	a5,12
    1954:	00f92023          	sw	a5,0(s2)
    1958:	00000513          	li	a0,0
    195c:	02c12083          	lw	ra,44(sp)
    1960:	02812403          	lw	s0,40(sp)
    1964:	02412483          	lw	s1,36(sp)
    1968:	02012903          	lw	s2,32(sp)
    196c:	01c12983          	lw	s3,28(sp)
    1970:	03010113          	addi	sp,sp,48
    1974:	00008067          	ret
    1978:	20000613          	li	a2,512
    197c:	04000593          	li	a1,64
    1980:	03f00813          	li	a6,63
    1984:	e75ff06f          	j	17f8 <_malloc_r+0xdc>
    1988:	0089a403          	lw	s0,8(s3)
    198c:	01612823          	sw	s6,16(sp)
    1990:	00442783          	lw	a5,4(s0)
    1994:	ffc7fb13          	andi	s6,a5,-4
    1998:	009b6863          	bltu	s6,s1,19a8 <_malloc_r+0x28c>
    199c:	409b0733          	sub	a4,s6,s1
    19a0:	00f00793          	li	a5,15
    19a4:	1ae7c663          	blt	a5,a4,1b50 <_malloc_r+0x434>
    19a8:	01912223          	sw	s9,4(sp)
    19ac:	0ffffc97          	auipc	s9,0xffff
    19b0:	b94c8c93          	addi	s9,s9,-1132 # 10000540 <__malloc_sbrk_base>
    19b4:	01512a23          	sw	s5,20(sp)
    19b8:	000ca703          	lw	a4,0(s9)
    19bc:	00001a97          	auipc	s5,0x1
    19c0:	140aaa83          	lw	s5,320(s5) # 2afc <__malloc_top_pad>
    19c4:	01412c23          	sw	s4,24(sp)
    19c8:	01712623          	sw	s7,12(sp)
    19cc:	fff00793          	li	a5,-1
    19d0:	01640a33          	add	s4,s0,s6
    19d4:	01548ab3          	add	s5,s1,s5
    19d8:	3ef70663          	beq	a4,a5,1dc4 <_malloc_r+0x6a8>
    19dc:	000017b7          	lui	a5,0x1
    19e0:	00f78793          	addi	a5,a5,15 # 100f <_close_r+0x4b>
    19e4:	00fa8ab3          	add	s5,s5,a5
    19e8:	fffff7b7          	lui	a5,0xfffff
    19ec:	00fafab3          	and	s5,s5,a5
    19f0:	000a8593          	mv	a1,s5
    19f4:	00090513          	mv	a0,s2
    19f8:	2f1000ef          	jal	24e8 <_sbrk_r>
    19fc:	fff00793          	li	a5,-1
    1a00:	00050b93          	mv	s7,a0
    1a04:	48f50463          	beq	a0,a5,1e8c <_malloc_r+0x770>
    1a08:	01812423          	sw	s8,8(sp)
    1a0c:	11456863          	bltu	a0,s4,1b1c <_malloc_r+0x400>
    1a10:	0ffffc17          	auipc	s8,0xffff
    1a14:	c70c0c13          	addi	s8,s8,-912 # 10000680 <__malloc_current_mallinfo>
    1a18:	000c2583          	lw	a1,0(s8)
    1a1c:	00ba85b3          	add	a1,s5,a1
    1a20:	00bc2023          	sw	a1,0(s8)
    1a24:	00058713          	mv	a4,a1
    1a28:	46aa0863          	beq	s4,a0,1e98 <_malloc_r+0x77c>
    1a2c:	000ca683          	lw	a3,0(s9)
    1a30:	fff00793          	li	a5,-1
    1a34:	48f68063          	beq	a3,a5,1eb4 <_malloc_r+0x798>
    1a38:	414b87b3          	sub	a5,s7,s4
    1a3c:	00e787b3          	add	a5,a5,a4
    1a40:	00fc2023          	sw	a5,0(s8)
    1a44:	007bfc93          	andi	s9,s7,7
    1a48:	380c8e63          	beqz	s9,1de4 <_malloc_r+0x6c8>
    1a4c:	419b8bb3          	sub	s7,s7,s9
    1a50:	000015b7          	lui	a1,0x1
    1a54:	008b8b93          	addi	s7,s7,8
    1a58:	00858593          	addi	a1,a1,8 # 1008 <_close_r+0x44>
    1a5c:	015b8ab3          	add	s5,s7,s5
    1a60:	419585b3          	sub	a1,a1,s9
    1a64:	415585b3          	sub	a1,a1,s5
    1a68:	01459593          	slli	a1,a1,0x14
    1a6c:	0145da13          	srli	s4,a1,0x14
    1a70:	000a0593          	mv	a1,s4
    1a74:	00090513          	mv	a0,s2
    1a78:	271000ef          	jal	24e8 <_sbrk_r>
    1a7c:	fff00793          	li	a5,-1
    1a80:	46f50a63          	beq	a0,a5,1ef4 <_malloc_r+0x7d8>
    1a84:	41750533          	sub	a0,a0,s7
    1a88:	01450ab3          	add	s5,a0,s4
    1a8c:	000c2703          	lw	a4,0(s8)
    1a90:	0179a423          	sw	s7,8(s3)
    1a94:	001ae793          	ori	a5,s5,1
    1a98:	00ea05b3          	add	a1,s4,a4
    1a9c:	00fba223          	sw	a5,4(s7)
    1aa0:	00bc2023          	sw	a1,0(s8)
    1aa4:	03340e63          	beq	s0,s3,1ae0 <_malloc_r+0x3c4>
    1aa8:	00f00693          	li	a3,15
    1aac:	3766f263          	bgeu	a3,s6,1e10 <_malloc_r+0x6f4>
    1ab0:	00442703          	lw	a4,4(s0)
    1ab4:	ff4b0793          	addi	a5,s6,-12
    1ab8:	ff87f793          	andi	a5,a5,-8
    1abc:	00177713          	andi	a4,a4,1
    1ac0:	00f76733          	or	a4,a4,a5
    1ac4:	00e42223          	sw	a4,4(s0)
    1ac8:	00500613          	li	a2,5
    1acc:	00f40733          	add	a4,s0,a5
    1ad0:	00c72223          	sw	a2,4(a4)
    1ad4:	00c72423          	sw	a2,8(a4)
    1ad8:	2cf6ea63          	bltu	a3,a5,1dac <_malloc_r+0x690>
    1adc:	004ba783          	lw	a5,4(s7)
    1ae0:	00001717          	auipc	a4,0x1
    1ae4:	01870713          	addi	a4,a4,24 # 2af8 <__malloc_max_sbrked_mem>
    1ae8:	00072683          	lw	a3,0(a4)
    1aec:	00b6f463          	bgeu	a3,a1,1af4 <_malloc_r+0x3d8>
    1af0:	00b72023          	sw	a1,0(a4)
    1af4:	00001717          	auipc	a4,0x1
    1af8:	00070713          	mv	a4,a4
    1afc:	00072683          	lw	a3,0(a4) # 2af4 <__malloc_max_total_mem>
    1b00:	00b6f463          	bgeu	a3,a1,1b08 <_malloc_r+0x3ec>
    1b04:	00b72023          	sw	a1,0(a4)
    1b08:	00812c03          	lw	s8,8(sp)
    1b0c:	000b8413          	mv	s0,s7
    1b10:	01c0006f          	j	1b2c <_malloc_r+0x410>
    1b14:	0049a503          	lw	a0,4(s3)
    1b18:	d99ff06f          	j	18b0 <_malloc_r+0x194>
    1b1c:	35340c63          	beq	s0,s3,1e74 <_malloc_r+0x758>
    1b20:	0089a403          	lw	s0,8(s3)
    1b24:	00812c03          	lw	s8,8(sp)
    1b28:	00442783          	lw	a5,4(s0)
    1b2c:	ffc7f793          	andi	a5,a5,-4
    1b30:	40978733          	sub	a4,a5,s1
    1b34:	2e97e463          	bltu	a5,s1,1e1c <_malloc_r+0x700>
    1b38:	00f00793          	li	a5,15
    1b3c:	2ee7d063          	bge	a5,a4,1e1c <_malloc_r+0x700>
    1b40:	01812a03          	lw	s4,24(sp)
    1b44:	01412a83          	lw	s5,20(sp)
    1b48:	00c12b83          	lw	s7,12(sp)
    1b4c:	00412c83          	lw	s9,4(sp)
    1b50:	0014e793          	ori	a5,s1,1
    1b54:	00f42223          	sw	a5,4(s0)
    1b58:	009404b3          	add	s1,s0,s1
    1b5c:	0099a423          	sw	s1,8(s3)
    1b60:	00176713          	ori	a4,a4,1
    1b64:	00090513          	mv	a0,s2
    1b68:	00e4a223          	sw	a4,4(s1)
    1b6c:	3e8000ef          	jal	1f54 <__malloc_unlock>
    1b70:	02c12083          	lw	ra,44(sp)
    1b74:	00840513          	addi	a0,s0,8
    1b78:	02812403          	lw	s0,40(sp)
    1b7c:	01012b03          	lw	s6,16(sp)
    1b80:	02412483          	lw	s1,36(sp)
    1b84:	02012903          	lw	s2,32(sp)
    1b88:	01c12983          	lw	s3,28(sp)
    1b8c:	03010113          	addi	sp,sp,48
    1b90:	00008067          	ret
    1b94:	00842603          	lw	a2,8(s0)
    1b98:	00f407b3          	add	a5,s0,a5
    1b9c:	0047a703          	lw	a4,4(a5) # fffff004 <_stack_top+0xefffb004>
    1ba0:	00d62623          	sw	a3,12(a2)
    1ba4:	00c6a423          	sw	a2,8(a3)
    1ba8:	00176713          	ori	a4,a4,1
    1bac:	00090513          	mv	a0,s2
    1bb0:	00e7a223          	sw	a4,4(a5)
    1bb4:	3a0000ef          	jal	1f54 <__malloc_unlock>
    1bb8:	02c12083          	lw	ra,44(sp)
    1bbc:	00840513          	addi	a0,s0,8
    1bc0:	02812403          	lw	s0,40(sp)
    1bc4:	02412483          	lw	s1,36(sp)
    1bc8:	02012903          	lw	s2,32(sp)
    1bcc:	01c12983          	lw	s3,28(sp)
    1bd0:	03010113          	addi	sp,sp,48
    1bd4:	00008067          	ret
    1bd8:	00c7a403          	lw	s0,12(a5)
    1bdc:	00258593          	addi	a1,a1,2
    1be0:	c4878ee3          	beq	a5,s0,183c <_malloc_r+0x120>
    1be4:	b8dff06f          	j	1770 <_malloc_r+0x54>
    1be8:	0097d713          	srli	a4,a5,0x9
    1bec:	00400693          	li	a3,4
    1bf0:	14e6f263          	bgeu	a3,a4,1d34 <_malloc_r+0x618>
    1bf4:	01400693          	li	a3,20
    1bf8:	24e6e263          	bltu	a3,a4,1e3c <_malloc_r+0x720>
    1bfc:	05c70613          	addi	a2,a4,92
    1c00:	00361613          	slli	a2,a2,0x3
    1c04:	05b70693          	addi	a3,a4,91
    1c08:	00c98633          	add	a2,s3,a2
    1c0c:	00062703          	lw	a4,0(a2)
    1c10:	ff860613          	addi	a2,a2,-8
    1c14:	00e61863          	bne	a2,a4,1c24 <_malloc_r+0x508>
    1c18:	1b40006f          	j	1dcc <_malloc_r+0x6b0>
    1c1c:	00872703          	lw	a4,8(a4)
    1c20:	00e60863          	beq	a2,a4,1c30 <_malloc_r+0x514>
    1c24:	00472683          	lw	a3,4(a4)
    1c28:	ffc6f693          	andi	a3,a3,-4
    1c2c:	fed7e8e3          	bltu	a5,a3,1c1c <_malloc_r+0x500>
    1c30:	00c72603          	lw	a2,12(a4)
    1c34:	00c42623          	sw	a2,12(s0)
    1c38:	00e42423          	sw	a4,8(s0)
    1c3c:	00862423          	sw	s0,8(a2)
    1c40:	00872623          	sw	s0,12(a4)
    1c44:	c6dff06f          	j	18b0 <_malloc_r+0x194>
    1c48:	01400713          	li	a4,20
    1c4c:	0ef77e63          	bgeu	a4,a5,1d48 <_malloc_r+0x62c>
    1c50:	05400713          	li	a4,84
    1c54:	20f76263          	bltu	a4,a5,1e58 <_malloc_r+0x73c>
    1c58:	00c4d793          	srli	a5,s1,0xc
    1c5c:	06f78593          	addi	a1,a5,111
    1c60:	06e78813          	addi	a6,a5,110
    1c64:	00359613          	slli	a2,a1,0x3
    1c68:	b91ff06f          	j	17f8 <_malloc_r+0xdc>
    1c6c:	001e0e13          	addi	t3,t3,1
    1c70:	003e7793          	andi	a5,t3,3
    1c74:	00850513          	addi	a0,a0,8
    1c78:	0e078663          	beqz	a5,1d64 <_malloc_r+0x648>
    1c7c:	00c52783          	lw	a5,12(a0)
    1c80:	c85ff06f          	j	1904 <_malloc_r+0x1e8>
    1c84:	00842603          	lw	a2,8(s0)
    1c88:	0014e593          	ori	a1,s1,1
    1c8c:	00b42223          	sw	a1,4(s0)
    1c90:	00f62623          	sw	a5,12(a2)
    1c94:	00c7a423          	sw	a2,8(a5)
    1c98:	009404b3          	add	s1,s0,s1
    1c9c:	0099aa23          	sw	s1,20(s3)
    1ca0:	0099a823          	sw	s1,16(s3)
    1ca4:	0016e793          	ori	a5,a3,1
    1ca8:	00e40733          	add	a4,s0,a4
    1cac:	0114a623          	sw	a7,12(s1)
    1cb0:	0114a423          	sw	a7,8(s1)
    1cb4:	00f4a223          	sw	a5,4(s1)
    1cb8:	00090513          	mv	a0,s2
    1cbc:	00d72023          	sw	a3,0(a4)
    1cc0:	294000ef          	jal	1f54 <__malloc_unlock>
    1cc4:	00840513          	addi	a0,s0,8
    1cc8:	c95ff06f          	j	195c <_malloc_r+0x240>
    1ccc:	00f407b3          	add	a5,s0,a5
    1cd0:	0047a703          	lw	a4,4(a5)
    1cd4:	00090513          	mv	a0,s2
    1cd8:	00176713          	ori	a4,a4,1
    1cdc:	00e7a223          	sw	a4,4(a5)
    1ce0:	274000ef          	jal	1f54 <__malloc_unlock>
    1ce4:	00840513          	addi	a0,s0,8
    1ce8:	c75ff06f          	j	195c <_malloc_r+0x240>
    1cec:	0034d593          	srli	a1,s1,0x3
    1cf0:	00848793          	addi	a5,s1,8
    1cf4:	a65ff06f          	j	1758 <_malloc_r+0x3c>
    1cf8:	0014e693          	ori	a3,s1,1
    1cfc:	00d42223          	sw	a3,4(s0)
    1d00:	009404b3          	add	s1,s0,s1
    1d04:	0099aa23          	sw	s1,20(s3)
    1d08:	0099a823          	sw	s1,16(s3)
    1d0c:	00176693          	ori	a3,a4,1
    1d10:	00f407b3          	add	a5,s0,a5
    1d14:	0114a623          	sw	a7,12(s1)
    1d18:	0114a423          	sw	a7,8(s1)
    1d1c:	00d4a223          	sw	a3,4(s1)
    1d20:	00090513          	mv	a0,s2
    1d24:	00e7a023          	sw	a4,0(a5)
    1d28:	22c000ef          	jal	1f54 <__malloc_unlock>
    1d2c:	00840513          	addi	a0,s0,8
    1d30:	c2dff06f          	j	195c <_malloc_r+0x240>
    1d34:	0067d713          	srli	a4,a5,0x6
    1d38:	03970613          	addi	a2,a4,57
    1d3c:	00361613          	slli	a2,a2,0x3
    1d40:	03870693          	addi	a3,a4,56
    1d44:	ec5ff06f          	j	1c08 <_malloc_r+0x4ec>
    1d48:	05c78593          	addi	a1,a5,92
    1d4c:	05b78813          	addi	a6,a5,91
    1d50:	00359613          	slli	a2,a1,0x3
    1d54:	aa5ff06f          	j	17f8 <_malloc_r+0xdc>
    1d58:	00832783          	lw	a5,8(t1)
    1d5c:	fff58593          	addi	a1,a1,-1
    1d60:	1e679063          	bne	a5,t1,1f40 <_malloc_r+0x824>
    1d64:	0035f793          	andi	a5,a1,3
    1d68:	ff830313          	addi	t1,t1,-8
    1d6c:	fe0796e3          	bnez	a5,1d58 <_malloc_r+0x63c>
    1d70:	0049a703          	lw	a4,4(s3)
    1d74:	fff64793          	not	a5,a2
    1d78:	00e7f7b3          	and	a5,a5,a4
    1d7c:	00f9a223          	sw	a5,4(s3)
    1d80:	00161613          	slli	a2,a2,0x1
    1d84:	c0c7e2e3          	bltu	a5,a2,1988 <_malloc_r+0x26c>
    1d88:	c00600e3          	beqz	a2,1988 <_malloc_r+0x26c>
    1d8c:	00f67733          	and	a4,a2,a5
    1d90:	00071a63          	bnez	a4,1da4 <_malloc_r+0x688>
    1d94:	00161613          	slli	a2,a2,0x1
    1d98:	00f67733          	and	a4,a2,a5
    1d9c:	004e0e13          	addi	t3,t3,4
    1da0:	fe070ae3          	beqz	a4,1d94 <_malloc_r+0x678>
    1da4:	000e0593          	mv	a1,t3
    1da8:	b49ff06f          	j	18f0 <_malloc_r+0x1d4>
    1dac:	00840593          	addi	a1,s0,8
    1db0:	00090513          	mv	a0,s2
    1db4:	e70ff0ef          	jal	1424 <_free_r>
    1db8:	000c2583          	lw	a1,0(s8)
    1dbc:	0089ab83          	lw	s7,8(s3)
    1dc0:	d1dff06f          	j	1adc <_malloc_r+0x3c0>
    1dc4:	010a8a93          	addi	s5,s5,16
    1dc8:	c29ff06f          	j	19f0 <_malloc_r+0x2d4>
    1dcc:	4026d693          	srai	a3,a3,0x2
    1dd0:	00100793          	li	a5,1
    1dd4:	00d797b3          	sll	a5,a5,a3
    1dd8:	00f56533          	or	a0,a0,a5
    1ddc:	00a9a223          	sw	a0,4(s3)
    1de0:	e55ff06f          	j	1c34 <_malloc_r+0x518>
    1de4:	015b85b3          	add	a1,s7,s5
    1de8:	40b005b3          	neg	a1,a1
    1dec:	01459593          	slli	a1,a1,0x14
    1df0:	0145da13          	srli	s4,a1,0x14
    1df4:	000a0593          	mv	a1,s4
    1df8:	00090513          	mv	a0,s2
    1dfc:	6ec000ef          	jal	24e8 <_sbrk_r>
    1e00:	fff00793          	li	a5,-1
    1e04:	c8f510e3          	bne	a0,a5,1a84 <_malloc_r+0x368>
    1e08:	00000a13          	li	s4,0
    1e0c:	c81ff06f          	j	1a8c <_malloc_r+0x370>
    1e10:	00812c03          	lw	s8,8(sp)
    1e14:	00100793          	li	a5,1
    1e18:	00fba223          	sw	a5,4(s7)
    1e1c:	00090513          	mv	a0,s2
    1e20:	134000ef          	jal	1f54 <__malloc_unlock>
    1e24:	01812a03          	lw	s4,24(sp)
    1e28:	01412a83          	lw	s5,20(sp)
    1e2c:	01012b03          	lw	s6,16(sp)
    1e30:	00c12b83          	lw	s7,12(sp)
    1e34:	00412c83          	lw	s9,4(sp)
    1e38:	b21ff06f          	j	1958 <_malloc_r+0x23c>
    1e3c:	05400693          	li	a3,84
    1e40:	06e6ee63          	bltu	a3,a4,1ebc <_malloc_r+0x7a0>
    1e44:	00c7d713          	srli	a4,a5,0xc
    1e48:	06f70613          	addi	a2,a4,111
    1e4c:	00361613          	slli	a2,a2,0x3
    1e50:	06e70693          	addi	a3,a4,110
    1e54:	db5ff06f          	j	1c08 <_malloc_r+0x4ec>
    1e58:	15400713          	li	a4,340
    1e5c:	06f76e63          	bltu	a4,a5,1ed8 <_malloc_r+0x7bc>
    1e60:	00f4d793          	srli	a5,s1,0xf
    1e64:	07878593          	addi	a1,a5,120
    1e68:	07778813          	addi	a6,a5,119
    1e6c:	00359613          	slli	a2,a1,0x3
    1e70:	989ff06f          	j	17f8 <_malloc_r+0xdc>
    1e74:	0ffffc17          	auipc	s8,0xffff
    1e78:	80cc0c13          	addi	s8,s8,-2036 # 10000680 <__malloc_current_mallinfo>
    1e7c:	000c2703          	lw	a4,0(s8)
    1e80:	00ea8733          	add	a4,s5,a4
    1e84:	00ec2023          	sw	a4,0(s8)
    1e88:	ba5ff06f          	j	1a2c <_malloc_r+0x310>
    1e8c:	0089a403          	lw	s0,8(s3)
    1e90:	00442783          	lw	a5,4(s0)
    1e94:	c99ff06f          	j	1b2c <_malloc_r+0x410>
    1e98:	01451793          	slli	a5,a0,0x14
    1e9c:	b80798e3          	bnez	a5,1a2c <_malloc_r+0x310>
    1ea0:	0089ab83          	lw	s7,8(s3)
    1ea4:	015b07b3          	add	a5,s6,s5
    1ea8:	0017e793          	ori	a5,a5,1
    1eac:	00fba223          	sw	a5,4(s7)
    1eb0:	c31ff06f          	j	1ae0 <_malloc_r+0x3c4>
    1eb4:	017ca023          	sw	s7,0(s9)
    1eb8:	b8dff06f          	j	1a44 <_malloc_r+0x328>
    1ebc:	15400693          	li	a3,340
    1ec0:	04e6e463          	bltu	a3,a4,1f08 <_malloc_r+0x7ec>
    1ec4:	00f7d713          	srli	a4,a5,0xf
    1ec8:	07870613          	addi	a2,a4,120
    1ecc:	00361613          	slli	a2,a2,0x3
    1ed0:	07770693          	addi	a3,a4,119
    1ed4:	d35ff06f          	j	1c08 <_malloc_r+0x4ec>
    1ed8:	55400713          	li	a4,1364
    1edc:	04f76463          	bltu	a4,a5,1f24 <_malloc_r+0x808>
    1ee0:	0124d793          	srli	a5,s1,0x12
    1ee4:	07d78593          	addi	a1,a5,125
    1ee8:	07c78813          	addi	a6,a5,124
    1eec:	00359613          	slli	a2,a1,0x3
    1ef0:	909ff06f          	j	17f8 <_malloc_r+0xdc>
    1ef4:	ff8c8c93          	addi	s9,s9,-8
    1ef8:	019a8ab3          	add	s5,s5,s9
    1efc:	417a8ab3          	sub	s5,s5,s7
    1f00:	00000a13          	li	s4,0
    1f04:	b89ff06f          	j	1a8c <_malloc_r+0x370>
    1f08:	55400693          	li	a3,1364
    1f0c:	02e6e463          	bltu	a3,a4,1f34 <_malloc_r+0x818>
    1f10:	0127d713          	srli	a4,a5,0x12
    1f14:	07d70613          	addi	a2,a4,125
    1f18:	00361613          	slli	a2,a2,0x3
    1f1c:	07c70693          	addi	a3,a4,124
    1f20:	ce9ff06f          	j	1c08 <_malloc_r+0x4ec>
    1f24:	3f800613          	li	a2,1016
    1f28:	07f00593          	li	a1,127
    1f2c:	07e00813          	li	a6,126
    1f30:	8c9ff06f          	j	17f8 <_malloc_r+0xdc>
    1f34:	3f800613          	li	a2,1016
    1f38:	07e00693          	li	a3,126
    1f3c:	ccdff06f          	j	1c08 <_malloc_r+0x4ec>
    1f40:	0049a783          	lw	a5,4(s3)
    1f44:	e3dff06f          	j	1d80 <_malloc_r+0x664>

00001f48 <__malloc_lock>:
    1f48:	00001517          	auipc	a0,0x1
    1f4c:	b9c50513          	addi	a0,a0,-1124 # 2ae4 <__lock___malloc_recursive_mutex>
    1f50:	b74ff06f          	j	12c4 <__retarget_lock_acquire_recursive>

00001f54 <__malloc_unlock>:
    1f54:	00001517          	auipc	a0,0x1
    1f58:	b9050513          	addi	a0,a0,-1136 # 2ae4 <__lock___malloc_recursive_mutex>
    1f5c:	b80ff06f          	j	12dc <__retarget_lock_release_recursive>

00001f60 <_fclose_r>:
    1f60:	ff010113          	addi	sp,sp,-16
    1f64:	00112623          	sw	ra,12(sp)
    1f68:	01212023          	sw	s2,0(sp)
    1f6c:	0e058263          	beqz	a1,2050 <_stack_size+0x50>
    1f70:	00812423          	sw	s0,8(sp)
    1f74:	00912223          	sw	s1,4(sp)
    1f78:	00058413          	mv	s0,a1
    1f7c:	00050493          	mv	s1,a0
    1f80:	00050663          	beqz	a0,1f8c <_fclose_r+0x2c>
    1f84:	03452783          	lw	a5,52(a0)
    1f88:	10078063          	beqz	a5,2088 <_stack_size+0x88>
    1f8c:	06442783          	lw	a5,100(s0)
    1f90:	00c41703          	lh	a4,12(s0)
    1f94:	0017f793          	andi	a5,a5,1
    1f98:	0a079663          	bnez	a5,2044 <_stack_size+0x44>
    1f9c:	20077713          	andi	a4,a4,512
    1fa0:	0e070863          	beqz	a4,2090 <_stack_size+0x90>
    1fa4:	00040593          	mv	a1,s0
    1fa8:	00048513          	mv	a0,s1
    1fac:	130000ef          	jal	20dc <__sflush_r>
    1fb0:	02c42783          	lw	a5,44(s0)
    1fb4:	00050913          	mv	s2,a0
    1fb8:	00078a63          	beqz	a5,1fcc <_fclose_r+0x6c>
    1fbc:	01c42583          	lw	a1,28(s0)
    1fc0:	00048513          	mv	a0,s1
    1fc4:	000780e7          	jalr	a5
    1fc8:	0a054063          	bltz	a0,2068 <_stack_size+0x68>
    1fcc:	00c45783          	lhu	a5,12(s0)
    1fd0:	0807f793          	andi	a5,a5,128
    1fd4:	0a079263          	bnez	a5,2078 <_stack_size+0x78>
    1fd8:	03042583          	lw	a1,48(s0)
    1fdc:	00058c63          	beqz	a1,1ff4 <_fclose_r+0x94>
    1fe0:	04040793          	addi	a5,s0,64
    1fe4:	00f58663          	beq	a1,a5,1ff0 <_fclose_r+0x90>
    1fe8:	00048513          	mv	a0,s1
    1fec:	c38ff0ef          	jal	1424 <_free_r>
    1ff0:	02042823          	sw	zero,48(s0)
    1ff4:	04442583          	lw	a1,68(s0)
    1ff8:	00058863          	beqz	a1,2008 <_stack_size+0x8>
    1ffc:	00048513          	mv	a0,s1
    2000:	c24ff0ef          	jal	1424 <_free_r>
    2004:	04042223          	sw	zero,68(s0)
    2008:	d31fe0ef          	jal	d38 <__sfp_lock_acquire>
    200c:	06442783          	lw	a5,100(s0)
    2010:	00041623          	sh	zero,12(s0)
    2014:	0017f793          	andi	a5,a5,1
    2018:	0a078463          	beqz	a5,20c0 <_stack_size+0xc0>
    201c:	05842503          	lw	a0,88(s0)
    2020:	a9cff0ef          	jal	12bc <__retarget_lock_close_recursive>
    2024:	d21fe0ef          	jal	d44 <__sfp_lock_release>
    2028:	00c12083          	lw	ra,12(sp)
    202c:	00812403          	lw	s0,8(sp)
    2030:	00412483          	lw	s1,4(sp)
    2034:	00090513          	mv	a0,s2
    2038:	00012903          	lw	s2,0(sp)
    203c:	01010113          	addi	sp,sp,16
    2040:	00008067          	ret
    2044:	f60710e3          	bnez	a4,1fa4 <_fclose_r+0x44>
    2048:	00812403          	lw	s0,8(sp)
    204c:	00412483          	lw	s1,4(sp)
    2050:	00c12083          	lw	ra,12(sp)
    2054:	00000913          	li	s2,0
    2058:	00090513          	mv	a0,s2
    205c:	00012903          	lw	s2,0(sp)
    2060:	01010113          	addi	sp,sp,16
    2064:	00008067          	ret
    2068:	00c45783          	lhu	a5,12(s0)
    206c:	fff00913          	li	s2,-1
    2070:	0807f793          	andi	a5,a5,128
    2074:	f60782e3          	beqz	a5,1fd8 <_fclose_r+0x78>
    2078:	01042583          	lw	a1,16(s0)
    207c:	00048513          	mv	a0,s1
    2080:	ba4ff0ef          	jal	1424 <_free_r>
    2084:	f55ff06f          	j	1fd8 <_fclose_r+0x78>
    2088:	c41fe0ef          	jal	cc8 <__sinit>
    208c:	f01ff06f          	j	1f8c <_fclose_r+0x2c>
    2090:	05842503          	lw	a0,88(s0)
    2094:	a30ff0ef          	jal	12c4 <__retarget_lock_acquire_recursive>
    2098:	00c41783          	lh	a5,12(s0)
    209c:	f00794e3          	bnez	a5,1fa4 <_fclose_r+0x44>
    20a0:	06442783          	lw	a5,100(s0)
    20a4:	0017f793          	andi	a5,a5,1
    20a8:	fa0790e3          	bnez	a5,2048 <_stack_size+0x48>
    20ac:	05842503          	lw	a0,88(s0)
    20b0:	a2cff0ef          	jal	12dc <__retarget_lock_release_recursive>
    20b4:	00812403          	lw	s0,8(sp)
    20b8:	00412483          	lw	s1,4(sp)
    20bc:	f95ff06f          	j	2050 <_stack_size+0x50>
    20c0:	05842503          	lw	a0,88(s0)
    20c4:	a18ff0ef          	jal	12dc <__retarget_lock_release_recursive>
    20c8:	f55ff06f          	j	201c <_stack_size+0x1c>

000020cc <fclose>:
    20cc:	00050593          	mv	a1,a0
    20d0:	0fffe517          	auipc	a0,0xfffe
    20d4:	46c52503          	lw	a0,1132(a0) # 1000053c <_impure_ptr>
    20d8:	e89ff06f          	j	1f60 <_fclose_r>

000020dc <__sflush_r>:
    20dc:	00c59703          	lh	a4,12(a1)
    20e0:	fe010113          	addi	sp,sp,-32
    20e4:	00812c23          	sw	s0,24(sp)
    20e8:	01312623          	sw	s3,12(sp)
    20ec:	00112e23          	sw	ra,28(sp)
    20f0:	00877793          	andi	a5,a4,8
    20f4:	00058413          	mv	s0,a1
    20f8:	00050993          	mv	s3,a0
    20fc:	12079063          	bnez	a5,221c <__sflush_r+0x140>
    2100:	000017b7          	lui	a5,0x1
    2104:	80078793          	addi	a5,a5,-2048 # 800 <memset+0x98>
    2108:	0045a683          	lw	a3,4(a1)
    210c:	00f767b3          	or	a5,a4,a5
    2110:	00f59623          	sh	a5,12(a1)
    2114:	18d05a63          	blez	a3,22a8 <__sflush_r+0x1cc>
    2118:	02842803          	lw	a6,40(s0)
    211c:	0e080463          	beqz	a6,2204 <__sflush_r+0x128>
    2120:	00912a23          	sw	s1,20(sp)
    2124:	01371693          	slli	a3,a4,0x13
    2128:	0009a483          	lw	s1,0(s3)
    212c:	0009a023          	sw	zero,0(s3)
    2130:	1806c863          	bltz	a3,22c0 <__sflush_r+0x1e4>
    2134:	01c42583          	lw	a1,28(s0)
    2138:	00000613          	li	a2,0
    213c:	00100693          	li	a3,1
    2140:	00098513          	mv	a0,s3
    2144:	000800e7          	jalr	a6
    2148:	fff00793          	li	a5,-1
    214c:	00050613          	mv	a2,a0
    2150:	1af50a63          	beq	a0,a5,2304 <__sflush_r+0x228>
    2154:	00c41783          	lh	a5,12(s0)
    2158:	02842803          	lw	a6,40(s0)
    215c:	0047f793          	andi	a5,a5,4
    2160:	00078e63          	beqz	a5,217c <__sflush_r+0xa0>
    2164:	00442703          	lw	a4,4(s0)
    2168:	03042783          	lw	a5,48(s0)
    216c:	40e60633          	sub	a2,a2,a4
    2170:	00078663          	beqz	a5,217c <__sflush_r+0xa0>
    2174:	03c42783          	lw	a5,60(s0)
    2178:	40f60633          	sub	a2,a2,a5
    217c:	01c42583          	lw	a1,28(s0)
    2180:	00000693          	li	a3,0
    2184:	00098513          	mv	a0,s3
    2188:	000800e7          	jalr	a6
    218c:	fff00713          	li	a4,-1
    2190:	00c41783          	lh	a5,12(s0)
    2194:	12e51a63          	bne	a0,a4,22c8 <__sflush_r+0x1ec>
    2198:	0009a683          	lw	a3,0(s3)
    219c:	01d00713          	li	a4,29
    21a0:	18d76063          	bltu	a4,a3,2320 <__sflush_r+0x244>
    21a4:	20400737          	lui	a4,0x20400
    21a8:	00170713          	addi	a4,a4,1 # 20400001 <_stack_top+0x103fc001>
    21ac:	00d75733          	srl	a4,a4,a3
    21b0:	00177713          	andi	a4,a4,1
    21b4:	16070663          	beqz	a4,2320 <__sflush_r+0x244>
    21b8:	01042603          	lw	a2,16(s0)
    21bc:	fffff737          	lui	a4,0xfffff
    21c0:	7ff70713          	addi	a4,a4,2047 # fffff7ff <_stack_top+0xefffb7ff>
    21c4:	00e7f733          	and	a4,a5,a4
    21c8:	00e41623          	sh	a4,12(s0)
    21cc:	00042223          	sw	zero,4(s0)
    21d0:	00c42023          	sw	a2,0(s0)
    21d4:	01379713          	slli	a4,a5,0x13
    21d8:	00075463          	bgez	a4,21e0 <__sflush_r+0x104>
    21dc:	10068863          	beqz	a3,22ec <__sflush_r+0x210>
    21e0:	03042583          	lw	a1,48(s0)
    21e4:	0099a023          	sw	s1,0(s3)
    21e8:	10058a63          	beqz	a1,22fc <__sflush_r+0x220>
    21ec:	04040793          	addi	a5,s0,64
    21f0:	00f58663          	beq	a1,a5,21fc <__sflush_r+0x120>
    21f4:	00098513          	mv	a0,s3
    21f8:	a2cff0ef          	jal	1424 <_free_r>
    21fc:	01412483          	lw	s1,20(sp)
    2200:	02042823          	sw	zero,48(s0)
    2204:	01c12083          	lw	ra,28(sp)
    2208:	01812403          	lw	s0,24(sp)
    220c:	00c12983          	lw	s3,12(sp)
    2210:	00000513          	li	a0,0
    2214:	02010113          	addi	sp,sp,32
    2218:	00008067          	ret
    221c:	01212823          	sw	s2,16(sp)
    2220:	0105a903          	lw	s2,16(a1)
    2224:	08090a63          	beqz	s2,22b8 <__sflush_r+0x1dc>
    2228:	00912a23          	sw	s1,20(sp)
    222c:	0005a483          	lw	s1,0(a1)
    2230:	00377713          	andi	a4,a4,3
    2234:	0125a023          	sw	s2,0(a1)
    2238:	412484b3          	sub	s1,s1,s2
    223c:	00000793          	li	a5,0
    2240:	00071463          	bnez	a4,2248 <__sflush_r+0x16c>
    2244:	0145a783          	lw	a5,20(a1)
    2248:	00f42423          	sw	a5,8(s0)
    224c:	00904863          	bgtz	s1,225c <__sflush_r+0x180>
    2250:	0640006f          	j	22b4 <__sflush_r+0x1d8>
    2254:	00a90933          	add	s2,s2,a0
    2258:	04905e63          	blez	s1,22b4 <__sflush_r+0x1d8>
    225c:	02442783          	lw	a5,36(s0)
    2260:	01c42583          	lw	a1,28(s0)
    2264:	00048693          	mv	a3,s1
    2268:	00090613          	mv	a2,s2
    226c:	00098513          	mv	a0,s3
    2270:	000780e7          	jalr	a5
    2274:	40a484b3          	sub	s1,s1,a0
    2278:	fca04ee3          	bgtz	a0,2254 <__sflush_r+0x178>
    227c:	00c41783          	lh	a5,12(s0)
    2280:	01012903          	lw	s2,16(sp)
    2284:	0407e793          	ori	a5,a5,64
    2288:	01c12083          	lw	ra,28(sp)
    228c:	00f41623          	sh	a5,12(s0)
    2290:	01812403          	lw	s0,24(sp)
    2294:	01412483          	lw	s1,20(sp)
    2298:	00c12983          	lw	s3,12(sp)
    229c:	fff00513          	li	a0,-1
    22a0:	02010113          	addi	sp,sp,32
    22a4:	00008067          	ret
    22a8:	03c5a683          	lw	a3,60(a1)
    22ac:	e6d046e3          	bgtz	a3,2118 <__sflush_r+0x3c>
    22b0:	f55ff06f          	j	2204 <__sflush_r+0x128>
    22b4:	01412483          	lw	s1,20(sp)
    22b8:	01012903          	lw	s2,16(sp)
    22bc:	f49ff06f          	j	2204 <__sflush_r+0x128>
    22c0:	05042603          	lw	a2,80(s0)
    22c4:	e99ff06f          	j	215c <__sflush_r+0x80>
    22c8:	01042683          	lw	a3,16(s0)
    22cc:	fffff737          	lui	a4,0xfffff
    22d0:	7ff70713          	addi	a4,a4,2047 # fffff7ff <_stack_top+0xefffb7ff>
    22d4:	00e7f733          	and	a4,a5,a4
    22d8:	00e41623          	sh	a4,12(s0)
    22dc:	00042223          	sw	zero,4(s0)
    22e0:	00d42023          	sw	a3,0(s0)
    22e4:	01379713          	slli	a4,a5,0x13
    22e8:	ee075ce3          	bgez	a4,21e0 <__sflush_r+0x104>
    22ec:	03042583          	lw	a1,48(s0)
    22f0:	04a42823          	sw	a0,80(s0)
    22f4:	0099a023          	sw	s1,0(s3)
    22f8:	ee059ae3          	bnez	a1,21ec <__sflush_r+0x110>
    22fc:	01412483          	lw	s1,20(sp)
    2300:	f05ff06f          	j	2204 <__sflush_r+0x128>
    2304:	0009a783          	lw	a5,0(s3)
    2308:	e40786e3          	beqz	a5,2154 <__sflush_r+0x78>
    230c:	01d00713          	li	a4,29
    2310:	00e78c63          	beq	a5,a4,2328 <__sflush_r+0x24c>
    2314:	01600713          	li	a4,22
    2318:	00e78863          	beq	a5,a4,2328 <__sflush_r+0x24c>
    231c:	00c41783          	lh	a5,12(s0)
    2320:	0407e793          	ori	a5,a5,64
    2324:	f65ff06f          	j	2288 <__sflush_r+0x1ac>
    2328:	0099a023          	sw	s1,0(s3)
    232c:	01412483          	lw	s1,20(sp)
    2330:	ed5ff06f          	j	2204 <__sflush_r+0x128>

00002334 <_fflush_r>:
    2334:	ff010113          	addi	sp,sp,-16
    2338:	00812423          	sw	s0,8(sp)
    233c:	00912223          	sw	s1,4(sp)
    2340:	00112623          	sw	ra,12(sp)
    2344:	01212023          	sw	s2,0(sp)
    2348:	00050493          	mv	s1,a0
    234c:	00058413          	mv	s0,a1
    2350:	00050663          	beqz	a0,235c <_fflush_r+0x28>
    2354:	03452783          	lw	a5,52(a0)
    2358:	0a078a63          	beqz	a5,240c <_fflush_r+0xd8>
    235c:	00c41783          	lh	a5,12(s0)
    2360:	00000913          	li	s2,0
    2364:	04078063          	beqz	a5,23a4 <_fflush_r+0x70>
    2368:	06442703          	lw	a4,100(s0)
    236c:	00177713          	andi	a4,a4,1
    2370:	00071663          	bnez	a4,237c <_fflush_r+0x48>
    2374:	2007f793          	andi	a5,a5,512
    2378:	04078463          	beqz	a5,23c0 <_fflush_r+0x8c>
    237c:	00048513          	mv	a0,s1
    2380:	00040593          	mv	a1,s0
    2384:	d59ff0ef          	jal	20dc <__sflush_r>
    2388:	06442783          	lw	a5,100(s0)
    238c:	00050913          	mv	s2,a0
    2390:	0017f793          	andi	a5,a5,1
    2394:	00079863          	bnez	a5,23a4 <_fflush_r+0x70>
    2398:	00c45783          	lhu	a5,12(s0)
    239c:	2007f793          	andi	a5,a5,512
    23a0:	04078463          	beqz	a5,23e8 <_fflush_r+0xb4>
    23a4:	00c12083          	lw	ra,12(sp)
    23a8:	00812403          	lw	s0,8(sp)
    23ac:	00412483          	lw	s1,4(sp)
    23b0:	00090513          	mv	a0,s2
    23b4:	00012903          	lw	s2,0(sp)
    23b8:	01010113          	addi	sp,sp,16
    23bc:	00008067          	ret
    23c0:	05842503          	lw	a0,88(s0)
    23c4:	f01fe0ef          	jal	12c4 <__retarget_lock_acquire_recursive>
    23c8:	00048513          	mv	a0,s1
    23cc:	00040593          	mv	a1,s0
    23d0:	d0dff0ef          	jal	20dc <__sflush_r>
    23d4:	06442783          	lw	a5,100(s0)
    23d8:	00050913          	mv	s2,a0
    23dc:	0017f793          	andi	a5,a5,1
    23e0:	fc0792e3          	bnez	a5,23a4 <_fflush_r+0x70>
    23e4:	fb5ff06f          	j	2398 <_fflush_r+0x64>
    23e8:	05842503          	lw	a0,88(s0)
    23ec:	ef1fe0ef          	jal	12dc <__retarget_lock_release_recursive>
    23f0:	00c12083          	lw	ra,12(sp)
    23f4:	00812403          	lw	s0,8(sp)
    23f8:	00412483          	lw	s1,4(sp)
    23fc:	00090513          	mv	a0,s2
    2400:	00012903          	lw	s2,0(sp)
    2404:	01010113          	addi	sp,sp,16
    2408:	00008067          	ret
    240c:	8bdfe0ef          	jal	cc8 <__sinit>
    2410:	f4dff06f          	j	235c <_fflush_r+0x28>

00002414 <fflush>:
    2414:	0a050c63          	beqz	a0,24cc <fflush+0xb8>
    2418:	ff010113          	addi	sp,sp,-16
    241c:	01212023          	sw	s2,0(sp)
    2420:	0fffe917          	auipc	s2,0xfffe
    2424:	11c92903          	lw	s2,284(s2) # 1000053c <_impure_ptr>
    2428:	00812423          	sw	s0,8(sp)
    242c:	00112623          	sw	ra,12(sp)
    2430:	00912223          	sw	s1,4(sp)
    2434:	00050413          	mv	s0,a0
    2438:	00090663          	beqz	s2,2444 <fflush+0x30>
    243c:	03492783          	lw	a5,52(s2)
    2440:	06078463          	beqz	a5,24a8 <fflush+0x94>
    2444:	00c41783          	lh	a5,12(s0)
    2448:	00000493          	li	s1,0
    244c:	04078063          	beqz	a5,248c <fflush+0x78>
    2450:	06442703          	lw	a4,100(s0)
    2454:	00177713          	andi	a4,a4,1
    2458:	00071663          	bnez	a4,2464 <fflush+0x50>
    245c:	2007f793          	andi	a5,a5,512
    2460:	04078a63          	beqz	a5,24b4 <fflush+0xa0>
    2464:	00090513          	mv	a0,s2
    2468:	00040593          	mv	a1,s0
    246c:	c71ff0ef          	jal	20dc <__sflush_r>
    2470:	06442783          	lw	a5,100(s0)
    2474:	00050493          	mv	s1,a0
    2478:	0017f793          	andi	a5,a5,1
    247c:	00079863          	bnez	a5,248c <fflush+0x78>
    2480:	00c45783          	lhu	a5,12(s0)
    2484:	2007f793          	andi	a5,a5,512
    2488:	02078c63          	beqz	a5,24c0 <fflush+0xac>
    248c:	00c12083          	lw	ra,12(sp)
    2490:	00812403          	lw	s0,8(sp)
    2494:	00012903          	lw	s2,0(sp)
    2498:	00048513          	mv	a0,s1
    249c:	00412483          	lw	s1,4(sp)
    24a0:	01010113          	addi	sp,sp,16
    24a4:	00008067          	ret
    24a8:	00090513          	mv	a0,s2
    24ac:	81dfe0ef          	jal	cc8 <__sinit>
    24b0:	f95ff06f          	j	2444 <fflush+0x30>
    24b4:	05842503          	lw	a0,88(s0)
    24b8:	e0dfe0ef          	jal	12c4 <__retarget_lock_acquire_recursive>
    24bc:	fa9ff06f          	j	2464 <fflush+0x50>
    24c0:	05842503          	lw	a0,88(s0)
    24c4:	e19fe0ef          	jal	12dc <__retarget_lock_release_recursive>
    24c8:	fc5ff06f          	j	248c <fflush+0x78>
    24cc:	0fffe617          	auipc	a2,0xfffe
    24d0:	c5460613          	addi	a2,a2,-940 # 10000120 <__sglue>
    24d4:	00000597          	auipc	a1,0x0
    24d8:	e6058593          	addi	a1,a1,-416 # 2334 <_fflush_r>
    24dc:	0fffe517          	auipc	a0,0xfffe
    24e0:	b2450513          	addi	a0,a0,-1244 # 10000000 <_impure_data>
    24e4:	8d5fe06f          	j	db8 <_fwalk_sglue>

000024e8 <_sbrk_r>:
    24e8:	ff010113          	addi	sp,sp,-16
    24ec:	00812423          	sw	s0,8(sp)
    24f0:	00050413          	mv	s0,a0
    24f4:	00058513          	mv	a0,a1
    24f8:	00000797          	auipc	a5,0x0
    24fc:	5c07ac23          	sw	zero,1496(a5) # 2ad0 <errno>
    2500:	00112623          	sw	ra,12(sp)
    2504:	868fe0ef          	jal	56c <_sbrk>
    2508:	fff00793          	li	a5,-1
    250c:	00f50a63          	beq	a0,a5,2520 <_sbrk_r+0x38>
    2510:	00c12083          	lw	ra,12(sp)
    2514:	00812403          	lw	s0,8(sp)
    2518:	01010113          	addi	sp,sp,16
    251c:	00008067          	ret
    2520:	00912223          	sw	s1,4(sp)
    2524:	00000497          	auipc	s1,0x0
    2528:	5ac48493          	addi	s1,s1,1452 # 2ad0 <errno>
    252c:	0004a783          	lw	a5,0(s1)
    2530:	00078e63          	beqz	a5,254c <_sbrk_r+0x64>
    2534:	00c12083          	lw	ra,12(sp)
    2538:	00f42023          	sw	a5,0(s0)
    253c:	00812403          	lw	s0,8(sp)
    2540:	00412483          	lw	s1,4(sp)
    2544:	01010113          	addi	sp,sp,16
    2548:	00008067          	ret
    254c:	00c12083          	lw	ra,12(sp)
    2550:	00812403          	lw	s0,8(sp)
    2554:	00412483          	lw	s1,4(sp)
    2558:	01010113          	addi	sp,sp,16
    255c:	00008067          	ret
    2560:	7270                	.insn	2, 0x7270
    2562:	6172676f          	jal	a4,29378 <_end+0x26878>
    2566:	206d                	.insn	2, 0x206d
    2568:	72617473          	.insn	4, 0x72617473
    256c:	2174                	.insn	2, 0x2174
    256e:	0a0d                	.insn	2, 0x0a0d
    2570:	0000                	.insn	2, 0x
    2572:	0000                	.insn	2, 0x
    2574:	6574                	.insn	2, 0x6574
    2576:	31207473          	.insn	4, 0x31207473
    257a:	3332                	.insn	2, 0x3332
    257c:	0a0d                	.insn	2, 0x0a0d
	...

Disassembly of section .data:

10000000 <_impure_data>:
10000000:	0000                	.insn	2, 0x
10000002:	0000                	.insn	2, 0x
10000004:	0548                	.insn	2, 0x0548
10000006:	1000                	.insn	2, 0x1000
10000008:	05b0                	.insn	2, 0x05b0
1000000a:	1000                	.insn	2, 0x1000
1000000c:	0618                	.insn	2, 0x0618
1000000e:	1000                	.insn	2, 0x1000
	...
10000098:	0001                	.insn	2, 0x0001
1000009a:	0000                	.insn	2, 0x
1000009c:	0000                	.insn	2, 0x
1000009e:	0000                	.insn	2, 0x
100000a0:	330e                	.insn	2, 0x330e
100000a2:	abcd                	.insn	2, 0xabcd
100000a4:	1234                	.insn	2, 0x1234
100000a6:	e66d                	.insn	2, 0xe66d
100000a8:	deec                	.insn	2, 0xdeec
100000aa:	0005                	.insn	2, 0x0005
100000ac:	0000000b          	.insn	4, 0x000b
	...

10000120 <__sglue>:
10000120:	0000                	.insn	2, 0x
10000122:	0000                	.insn	2, 0x
10000124:	00000003          	lb	zero,0(zero) # 0 <start>
10000128:	0548                	.insn	2, 0x0548
1000012a:	1000                	.insn	2, 0x1000

1000012c <__malloc_av_>:
	...
10000134:	012c                	.insn	2, 0x012c
10000136:	1000                	.insn	2, 0x1000
10000138:	012c                	.insn	2, 0x012c
1000013a:	1000                	.insn	2, 0x1000
1000013c:	0134                	.insn	2, 0x0134
1000013e:	1000                	.insn	2, 0x1000
10000140:	0134                	.insn	2, 0x0134
10000142:	1000                	.insn	2, 0x1000
10000144:	013c                	.insn	2, 0x013c
10000146:	1000                	.insn	2, 0x1000
10000148:	013c                	.insn	2, 0x013c
1000014a:	1000                	.insn	2, 0x1000
1000014c:	0144                	.insn	2, 0x0144
1000014e:	1000                	.insn	2, 0x1000
10000150:	0144                	.insn	2, 0x0144
10000152:	1000                	.insn	2, 0x1000
10000154:	014c                	.insn	2, 0x014c
10000156:	1000                	.insn	2, 0x1000
10000158:	014c                	.insn	2, 0x014c
1000015a:	1000                	.insn	2, 0x1000
1000015c:	0154                	.insn	2, 0x0154
1000015e:	1000                	.insn	2, 0x1000
10000160:	0154                	.insn	2, 0x0154
10000162:	1000                	.insn	2, 0x1000
10000164:	015c                	.insn	2, 0x015c
10000166:	1000                	.insn	2, 0x1000
10000168:	015c                	.insn	2, 0x015c
1000016a:	1000                	.insn	2, 0x1000
1000016c:	0164                	.insn	2, 0x0164
1000016e:	1000                	.insn	2, 0x1000
10000170:	0164                	.insn	2, 0x0164
10000172:	1000                	.insn	2, 0x1000
10000174:	016c                	.insn	2, 0x016c
10000176:	1000                	.insn	2, 0x1000
10000178:	016c                	.insn	2, 0x016c
1000017a:	1000                	.insn	2, 0x1000
1000017c:	0174                	.insn	2, 0x0174
1000017e:	1000                	.insn	2, 0x1000
10000180:	0174                	.insn	2, 0x0174
10000182:	1000                	.insn	2, 0x1000
10000184:	017c                	.insn	2, 0x017c
10000186:	1000                	.insn	2, 0x1000
10000188:	017c                	.insn	2, 0x017c
1000018a:	1000                	.insn	2, 0x1000
1000018c:	0184                	.insn	2, 0x0184
1000018e:	1000                	.insn	2, 0x1000
10000190:	0184                	.insn	2, 0x0184
10000192:	1000                	.insn	2, 0x1000
10000194:	018c                	.insn	2, 0x018c
10000196:	1000                	.insn	2, 0x1000
10000198:	018c                	.insn	2, 0x018c
1000019a:	1000                	.insn	2, 0x1000
1000019c:	0194                	.insn	2, 0x0194
1000019e:	1000                	.insn	2, 0x1000
100001a0:	0194                	.insn	2, 0x0194
100001a2:	1000                	.insn	2, 0x1000
100001a4:	019c                	.insn	2, 0x019c
100001a6:	1000                	.insn	2, 0x1000
100001a8:	019c                	.insn	2, 0x019c
100001aa:	1000                	.insn	2, 0x1000
100001ac:	01a4                	.insn	2, 0x01a4
100001ae:	1000                	.insn	2, 0x1000
100001b0:	01a4                	.insn	2, 0x01a4
100001b2:	1000                	.insn	2, 0x1000
100001b4:	01ac                	.insn	2, 0x01ac
100001b6:	1000                	.insn	2, 0x1000
100001b8:	01ac                	.insn	2, 0x01ac
100001ba:	1000                	.insn	2, 0x1000
100001bc:	01b4                	.insn	2, 0x01b4
100001be:	1000                	.insn	2, 0x1000
100001c0:	01b4                	.insn	2, 0x01b4
100001c2:	1000                	.insn	2, 0x1000
100001c4:	01bc                	.insn	2, 0x01bc
100001c6:	1000                	.insn	2, 0x1000
100001c8:	01bc                	.insn	2, 0x01bc
100001ca:	1000                	.insn	2, 0x1000
100001cc:	01c4                	.insn	2, 0x01c4
100001ce:	1000                	.insn	2, 0x1000
100001d0:	01c4                	.insn	2, 0x01c4
100001d2:	1000                	.insn	2, 0x1000
100001d4:	01cc                	.insn	2, 0x01cc
100001d6:	1000                	.insn	2, 0x1000
100001d8:	01cc                	.insn	2, 0x01cc
100001da:	1000                	.insn	2, 0x1000
100001dc:	01d4                	.insn	2, 0x01d4
100001de:	1000                	.insn	2, 0x1000
100001e0:	01d4                	.insn	2, 0x01d4
100001e2:	1000                	.insn	2, 0x1000
100001e4:	01dc                	.insn	2, 0x01dc
100001e6:	1000                	.insn	2, 0x1000
100001e8:	01dc                	.insn	2, 0x01dc
100001ea:	1000                	.insn	2, 0x1000
100001ec:	01e4                	.insn	2, 0x01e4
100001ee:	1000                	.insn	2, 0x1000
100001f0:	01e4                	.insn	2, 0x01e4
100001f2:	1000                	.insn	2, 0x1000
100001f4:	01ec                	.insn	2, 0x01ec
100001f6:	1000                	.insn	2, 0x1000
100001f8:	01ec                	.insn	2, 0x01ec
100001fa:	1000                	.insn	2, 0x1000
100001fc:	01f4                	.insn	2, 0x01f4
100001fe:	1000                	.insn	2, 0x1000
10000200:	01f4                	.insn	2, 0x01f4
10000202:	1000                	.insn	2, 0x1000
10000204:	01fc                	.insn	2, 0x01fc
10000206:	1000                	.insn	2, 0x1000
10000208:	01fc                	.insn	2, 0x01fc
1000020a:	1000                	.insn	2, 0x1000
1000020c:	0204                	.insn	2, 0x0204
1000020e:	1000                	.insn	2, 0x1000
10000210:	0204                	.insn	2, 0x0204
10000212:	1000                	.insn	2, 0x1000
10000214:	020c                	.insn	2, 0x020c
10000216:	1000                	.insn	2, 0x1000
10000218:	020c                	.insn	2, 0x020c
1000021a:	1000                	.insn	2, 0x1000
1000021c:	0214                	.insn	2, 0x0214
1000021e:	1000                	.insn	2, 0x1000
10000220:	0214                	.insn	2, 0x0214
10000222:	1000                	.insn	2, 0x1000
10000224:	021c                	.insn	2, 0x021c
10000226:	1000                	.insn	2, 0x1000
10000228:	021c                	.insn	2, 0x021c
1000022a:	1000                	.insn	2, 0x1000
1000022c:	0224                	.insn	2, 0x0224
1000022e:	1000                	.insn	2, 0x1000
10000230:	0224                	.insn	2, 0x0224
10000232:	1000                	.insn	2, 0x1000
10000234:	022c                	.insn	2, 0x022c
10000236:	1000                	.insn	2, 0x1000
10000238:	022c                	.insn	2, 0x022c
1000023a:	1000                	.insn	2, 0x1000
1000023c:	0234                	.insn	2, 0x0234
1000023e:	1000                	.insn	2, 0x1000
10000240:	0234                	.insn	2, 0x0234
10000242:	1000                	.insn	2, 0x1000
10000244:	023c                	.insn	2, 0x023c
10000246:	1000                	.insn	2, 0x1000
10000248:	023c                	.insn	2, 0x023c
1000024a:	1000                	.insn	2, 0x1000
1000024c:	0244                	.insn	2, 0x0244
1000024e:	1000                	.insn	2, 0x1000
10000250:	0244                	.insn	2, 0x0244
10000252:	1000                	.insn	2, 0x1000
10000254:	024c                	.insn	2, 0x024c
10000256:	1000                	.insn	2, 0x1000
10000258:	024c                	.insn	2, 0x024c
1000025a:	1000                	.insn	2, 0x1000
1000025c:	0254                	.insn	2, 0x0254
1000025e:	1000                	.insn	2, 0x1000
10000260:	0254                	.insn	2, 0x0254
10000262:	1000                	.insn	2, 0x1000
10000264:	025c                	.insn	2, 0x025c
10000266:	1000                	.insn	2, 0x1000
10000268:	025c                	.insn	2, 0x025c
1000026a:	1000                	.insn	2, 0x1000
1000026c:	0264                	.insn	2, 0x0264
1000026e:	1000                	.insn	2, 0x1000
10000270:	0264                	.insn	2, 0x0264
10000272:	1000                	.insn	2, 0x1000
10000274:	026c                	.insn	2, 0x026c
10000276:	1000                	.insn	2, 0x1000
10000278:	026c                	.insn	2, 0x026c
1000027a:	1000                	.insn	2, 0x1000
1000027c:	0274                	.insn	2, 0x0274
1000027e:	1000                	.insn	2, 0x1000
10000280:	0274                	.insn	2, 0x0274
10000282:	1000                	.insn	2, 0x1000
10000284:	027c                	.insn	2, 0x027c
10000286:	1000                	.insn	2, 0x1000
10000288:	027c                	.insn	2, 0x027c
1000028a:	1000                	.insn	2, 0x1000
1000028c:	0284                	.insn	2, 0x0284
1000028e:	1000                	.insn	2, 0x1000
10000290:	0284                	.insn	2, 0x0284
10000292:	1000                	.insn	2, 0x1000
10000294:	028c                	.insn	2, 0x028c
10000296:	1000                	.insn	2, 0x1000
10000298:	028c                	.insn	2, 0x028c
1000029a:	1000                	.insn	2, 0x1000
1000029c:	0294                	.insn	2, 0x0294
1000029e:	1000                	.insn	2, 0x1000
100002a0:	0294                	.insn	2, 0x0294
100002a2:	1000                	.insn	2, 0x1000
100002a4:	029c                	.insn	2, 0x029c
100002a6:	1000                	.insn	2, 0x1000
100002a8:	029c                	.insn	2, 0x029c
100002aa:	1000                	.insn	2, 0x1000
100002ac:	02a4                	.insn	2, 0x02a4
100002ae:	1000                	.insn	2, 0x1000
100002b0:	02a4                	.insn	2, 0x02a4
100002b2:	1000                	.insn	2, 0x1000
100002b4:	02ac                	.insn	2, 0x02ac
100002b6:	1000                	.insn	2, 0x1000
100002b8:	02ac                	.insn	2, 0x02ac
100002ba:	1000                	.insn	2, 0x1000
100002bc:	02b4                	.insn	2, 0x02b4
100002be:	1000                	.insn	2, 0x1000
100002c0:	02b4                	.insn	2, 0x02b4
100002c2:	1000                	.insn	2, 0x1000
100002c4:	02bc                	.insn	2, 0x02bc
100002c6:	1000                	.insn	2, 0x1000
100002c8:	02bc                	.insn	2, 0x02bc
100002ca:	1000                	.insn	2, 0x1000
100002cc:	02c4                	.insn	2, 0x02c4
100002ce:	1000                	.insn	2, 0x1000
100002d0:	02c4                	.insn	2, 0x02c4
100002d2:	1000                	.insn	2, 0x1000
100002d4:	02cc                	.insn	2, 0x02cc
100002d6:	1000                	.insn	2, 0x1000
100002d8:	02cc                	.insn	2, 0x02cc
100002da:	1000                	.insn	2, 0x1000
100002dc:	02d4                	.insn	2, 0x02d4
100002de:	1000                	.insn	2, 0x1000
100002e0:	02d4                	.insn	2, 0x02d4
100002e2:	1000                	.insn	2, 0x1000
100002e4:	02dc                	.insn	2, 0x02dc
100002e6:	1000                	.insn	2, 0x1000
100002e8:	02dc                	.insn	2, 0x02dc
100002ea:	1000                	.insn	2, 0x1000
100002ec:	02e4                	.insn	2, 0x02e4
100002ee:	1000                	.insn	2, 0x1000
100002f0:	02e4                	.insn	2, 0x02e4
100002f2:	1000                	.insn	2, 0x1000
100002f4:	02ec                	.insn	2, 0x02ec
100002f6:	1000                	.insn	2, 0x1000
100002f8:	02ec                	.insn	2, 0x02ec
100002fa:	1000                	.insn	2, 0x1000
100002fc:	02f4                	.insn	2, 0x02f4
100002fe:	1000                	.insn	2, 0x1000
10000300:	02f4                	.insn	2, 0x02f4
10000302:	1000                	.insn	2, 0x1000
10000304:	02fc                	.insn	2, 0x02fc
10000306:	1000                	.insn	2, 0x1000
10000308:	02fc                	.insn	2, 0x02fc
1000030a:	1000                	.insn	2, 0x1000
1000030c:	0304                	.insn	2, 0x0304
1000030e:	1000                	.insn	2, 0x1000
10000310:	0304                	.insn	2, 0x0304
10000312:	1000                	.insn	2, 0x1000
10000314:	030c                	.insn	2, 0x030c
10000316:	1000                	.insn	2, 0x1000
10000318:	030c                	.insn	2, 0x030c
1000031a:	1000                	.insn	2, 0x1000
1000031c:	0314                	.insn	2, 0x0314
1000031e:	1000                	.insn	2, 0x1000
10000320:	0314                	.insn	2, 0x0314
10000322:	1000                	.insn	2, 0x1000
10000324:	031c                	.insn	2, 0x031c
10000326:	1000                	.insn	2, 0x1000
10000328:	031c                	.insn	2, 0x031c
1000032a:	1000                	.insn	2, 0x1000
1000032c:	0324                	.insn	2, 0x0324
1000032e:	1000                	.insn	2, 0x1000
10000330:	0324                	.insn	2, 0x0324
10000332:	1000                	.insn	2, 0x1000
10000334:	032c                	.insn	2, 0x032c
10000336:	1000                	.insn	2, 0x1000
10000338:	032c                	.insn	2, 0x032c
1000033a:	1000                	.insn	2, 0x1000
1000033c:	0334                	.insn	2, 0x0334
1000033e:	1000                	.insn	2, 0x1000
10000340:	0334                	.insn	2, 0x0334
10000342:	1000                	.insn	2, 0x1000
10000344:	033c                	.insn	2, 0x033c
10000346:	1000                	.insn	2, 0x1000
10000348:	033c                	.insn	2, 0x033c
1000034a:	1000                	.insn	2, 0x1000
1000034c:	0344                	.insn	2, 0x0344
1000034e:	1000                	.insn	2, 0x1000
10000350:	0344                	.insn	2, 0x0344
10000352:	1000                	.insn	2, 0x1000
10000354:	034c                	.insn	2, 0x034c
10000356:	1000                	.insn	2, 0x1000
10000358:	034c                	.insn	2, 0x034c
1000035a:	1000                	.insn	2, 0x1000
1000035c:	0354                	.insn	2, 0x0354
1000035e:	1000                	.insn	2, 0x1000
10000360:	0354                	.insn	2, 0x0354
10000362:	1000                	.insn	2, 0x1000
10000364:	035c                	.insn	2, 0x035c
10000366:	1000                	.insn	2, 0x1000
10000368:	035c                	.insn	2, 0x035c
1000036a:	1000                	.insn	2, 0x1000
1000036c:	0364                	.insn	2, 0x0364
1000036e:	1000                	.insn	2, 0x1000
10000370:	0364                	.insn	2, 0x0364
10000372:	1000                	.insn	2, 0x1000
10000374:	036c                	.insn	2, 0x036c
10000376:	1000                	.insn	2, 0x1000
10000378:	036c                	.insn	2, 0x036c
1000037a:	1000                	.insn	2, 0x1000
1000037c:	0374                	.insn	2, 0x0374
1000037e:	1000                	.insn	2, 0x1000
10000380:	0374                	.insn	2, 0x0374
10000382:	1000                	.insn	2, 0x1000
10000384:	037c                	.insn	2, 0x037c
10000386:	1000                	.insn	2, 0x1000
10000388:	037c                	.insn	2, 0x037c
1000038a:	1000                	.insn	2, 0x1000
1000038c:	0384                	.insn	2, 0x0384
1000038e:	1000                	.insn	2, 0x1000
10000390:	0384                	.insn	2, 0x0384
10000392:	1000                	.insn	2, 0x1000
10000394:	038c                	.insn	2, 0x038c
10000396:	1000                	.insn	2, 0x1000
10000398:	038c                	.insn	2, 0x038c
1000039a:	1000                	.insn	2, 0x1000
1000039c:	0394                	.insn	2, 0x0394
1000039e:	1000                	.insn	2, 0x1000
100003a0:	0394                	.insn	2, 0x0394
100003a2:	1000                	.insn	2, 0x1000
100003a4:	039c                	.insn	2, 0x039c
100003a6:	1000                	.insn	2, 0x1000
100003a8:	039c                	.insn	2, 0x039c
100003aa:	1000                	.insn	2, 0x1000
100003ac:	03a4                	.insn	2, 0x03a4
100003ae:	1000                	.insn	2, 0x1000
100003b0:	03a4                	.insn	2, 0x03a4
100003b2:	1000                	.insn	2, 0x1000
100003b4:	03ac                	.insn	2, 0x03ac
100003b6:	1000                	.insn	2, 0x1000
100003b8:	03ac                	.insn	2, 0x03ac
100003ba:	1000                	.insn	2, 0x1000
100003bc:	03b4                	.insn	2, 0x03b4
100003be:	1000                	.insn	2, 0x1000
100003c0:	03b4                	.insn	2, 0x03b4
100003c2:	1000                	.insn	2, 0x1000
100003c4:	03bc                	.insn	2, 0x03bc
100003c6:	1000                	.insn	2, 0x1000
100003c8:	03bc                	.insn	2, 0x03bc
100003ca:	1000                	.insn	2, 0x1000
100003cc:	03c4                	.insn	2, 0x03c4
100003ce:	1000                	.insn	2, 0x1000
100003d0:	03c4                	.insn	2, 0x03c4
100003d2:	1000                	.insn	2, 0x1000
100003d4:	03cc                	.insn	2, 0x03cc
100003d6:	1000                	.insn	2, 0x1000
100003d8:	03cc                	.insn	2, 0x03cc
100003da:	1000                	.insn	2, 0x1000
100003dc:	03d4                	.insn	2, 0x03d4
100003de:	1000                	.insn	2, 0x1000
100003e0:	03d4                	.insn	2, 0x03d4
100003e2:	1000                	.insn	2, 0x1000
100003e4:	03dc                	.insn	2, 0x03dc
100003e6:	1000                	.insn	2, 0x1000
100003e8:	03dc                	.insn	2, 0x03dc
100003ea:	1000                	.insn	2, 0x1000
100003ec:	03e4                	.insn	2, 0x03e4
100003ee:	1000                	.insn	2, 0x1000
100003f0:	03e4                	.insn	2, 0x03e4
100003f2:	1000                	.insn	2, 0x1000
100003f4:	03ec                	.insn	2, 0x03ec
100003f6:	1000                	.insn	2, 0x1000
100003f8:	03ec                	.insn	2, 0x03ec
100003fa:	1000                	.insn	2, 0x1000
100003fc:	03f4                	.insn	2, 0x03f4
100003fe:	1000                	.insn	2, 0x1000
10000400:	03f4                	.insn	2, 0x03f4
10000402:	1000                	.insn	2, 0x1000
10000404:	03fc                	.insn	2, 0x03fc
10000406:	1000                	.insn	2, 0x1000
10000408:	03fc                	.insn	2, 0x03fc
1000040a:	1000                	.insn	2, 0x1000
1000040c:	0404                	.insn	2, 0x0404
1000040e:	1000                	.insn	2, 0x1000
10000410:	0404                	.insn	2, 0x0404
10000412:	1000                	.insn	2, 0x1000
10000414:	040c                	.insn	2, 0x040c
10000416:	1000                	.insn	2, 0x1000
10000418:	040c                	.insn	2, 0x040c
1000041a:	1000                	.insn	2, 0x1000
1000041c:	0414                	.insn	2, 0x0414
1000041e:	1000                	.insn	2, 0x1000
10000420:	0414                	.insn	2, 0x0414
10000422:	1000                	.insn	2, 0x1000
10000424:	041c                	.insn	2, 0x041c
10000426:	1000                	.insn	2, 0x1000
10000428:	041c                	.insn	2, 0x041c
1000042a:	1000                	.insn	2, 0x1000
1000042c:	0424                	.insn	2, 0x0424
1000042e:	1000                	.insn	2, 0x1000
10000430:	0424                	.insn	2, 0x0424
10000432:	1000                	.insn	2, 0x1000
10000434:	042c                	.insn	2, 0x042c
10000436:	1000                	.insn	2, 0x1000
10000438:	042c                	.insn	2, 0x042c
1000043a:	1000                	.insn	2, 0x1000
1000043c:	0434                	.insn	2, 0x0434
1000043e:	1000                	.insn	2, 0x1000
10000440:	0434                	.insn	2, 0x0434
10000442:	1000                	.insn	2, 0x1000
10000444:	043c                	.insn	2, 0x043c
10000446:	1000                	.insn	2, 0x1000
10000448:	043c                	.insn	2, 0x043c
1000044a:	1000                	.insn	2, 0x1000
1000044c:	0444                	.insn	2, 0x0444
1000044e:	1000                	.insn	2, 0x1000
10000450:	0444                	.insn	2, 0x0444
10000452:	1000                	.insn	2, 0x1000
10000454:	044c                	.insn	2, 0x044c
10000456:	1000                	.insn	2, 0x1000
10000458:	044c                	.insn	2, 0x044c
1000045a:	1000                	.insn	2, 0x1000
1000045c:	0454                	.insn	2, 0x0454
1000045e:	1000                	.insn	2, 0x1000
10000460:	0454                	.insn	2, 0x0454
10000462:	1000                	.insn	2, 0x1000
10000464:	045c                	.insn	2, 0x045c
10000466:	1000                	.insn	2, 0x1000
10000468:	045c                	.insn	2, 0x045c
1000046a:	1000                	.insn	2, 0x1000
1000046c:	0464                	.insn	2, 0x0464
1000046e:	1000                	.insn	2, 0x1000
10000470:	0464                	.insn	2, 0x0464
10000472:	1000                	.insn	2, 0x1000
10000474:	046c                	.insn	2, 0x046c
10000476:	1000                	.insn	2, 0x1000
10000478:	046c                	.insn	2, 0x046c
1000047a:	1000                	.insn	2, 0x1000
1000047c:	0474                	.insn	2, 0x0474
1000047e:	1000                	.insn	2, 0x1000
10000480:	0474                	.insn	2, 0x0474
10000482:	1000                	.insn	2, 0x1000
10000484:	047c                	.insn	2, 0x047c
10000486:	1000                	.insn	2, 0x1000
10000488:	047c                	.insn	2, 0x047c
1000048a:	1000                	.insn	2, 0x1000
1000048c:	0484                	.insn	2, 0x0484
1000048e:	1000                	.insn	2, 0x1000
10000490:	0484                	.insn	2, 0x0484
10000492:	1000                	.insn	2, 0x1000
10000494:	048c                	.insn	2, 0x048c
10000496:	1000                	.insn	2, 0x1000
10000498:	048c                	.insn	2, 0x048c
1000049a:	1000                	.insn	2, 0x1000
1000049c:	0494                	.insn	2, 0x0494
1000049e:	1000                	.insn	2, 0x1000
100004a0:	0494                	.insn	2, 0x0494
100004a2:	1000                	.insn	2, 0x1000
100004a4:	049c                	.insn	2, 0x049c
100004a6:	1000                	.insn	2, 0x1000
100004a8:	049c                	.insn	2, 0x049c
100004aa:	1000                	.insn	2, 0x1000
100004ac:	04a4                	.insn	2, 0x04a4
100004ae:	1000                	.insn	2, 0x1000
100004b0:	04a4                	.insn	2, 0x04a4
100004b2:	1000                	.insn	2, 0x1000
100004b4:	04ac                	.insn	2, 0x04ac
100004b6:	1000                	.insn	2, 0x1000
100004b8:	04ac                	.insn	2, 0x04ac
100004ba:	1000                	.insn	2, 0x1000
100004bc:	04b4                	.insn	2, 0x04b4
100004be:	1000                	.insn	2, 0x1000
100004c0:	04b4                	.insn	2, 0x04b4
100004c2:	1000                	.insn	2, 0x1000
100004c4:	04bc                	.insn	2, 0x04bc
100004c6:	1000                	.insn	2, 0x1000
100004c8:	04bc                	.insn	2, 0x04bc
100004ca:	1000                	.insn	2, 0x1000
100004cc:	04c4                	.insn	2, 0x04c4
100004ce:	1000                	.insn	2, 0x1000
100004d0:	04c4                	.insn	2, 0x04c4
100004d2:	1000                	.insn	2, 0x1000
100004d4:	04cc                	.insn	2, 0x04cc
100004d6:	1000                	.insn	2, 0x1000
100004d8:	04cc                	.insn	2, 0x04cc
100004da:	1000                	.insn	2, 0x1000
100004dc:	04d4                	.insn	2, 0x04d4
100004de:	1000                	.insn	2, 0x1000
100004e0:	04d4                	.insn	2, 0x04d4
100004e2:	1000                	.insn	2, 0x1000
100004e4:	04dc                	.insn	2, 0x04dc
100004e6:	1000                	.insn	2, 0x1000
100004e8:	04dc                	.insn	2, 0x04dc
100004ea:	1000                	.insn	2, 0x1000
100004ec:	04e4                	.insn	2, 0x04e4
100004ee:	1000                	.insn	2, 0x1000
100004f0:	04e4                	.insn	2, 0x04e4
100004f2:	1000                	.insn	2, 0x1000
100004f4:	04ec                	.insn	2, 0x04ec
100004f6:	1000                	.insn	2, 0x1000
100004f8:	04ec                	.insn	2, 0x04ec
100004fa:	1000                	.insn	2, 0x1000
100004fc:	04f4                	.insn	2, 0x04f4
100004fe:	1000                	.insn	2, 0x1000
10000500:	04f4                	.insn	2, 0x04f4
10000502:	1000                	.insn	2, 0x1000
10000504:	04fc                	.insn	2, 0x04fc
10000506:	1000                	.insn	2, 0x1000
10000508:	04fc                	.insn	2, 0x04fc
1000050a:	1000                	.insn	2, 0x1000
1000050c:	0504                	.insn	2, 0x0504
1000050e:	1000                	.insn	2, 0x1000
10000510:	0504                	.insn	2, 0x0504
10000512:	1000                	.insn	2, 0x1000
10000514:	050c                	.insn	2, 0x050c
10000516:	1000                	.insn	2, 0x1000
10000518:	050c                	.insn	2, 0x050c
1000051a:	1000                	.insn	2, 0x1000
1000051c:	0514                	.insn	2, 0x0514
1000051e:	1000                	.insn	2, 0x1000
10000520:	0514                	.insn	2, 0x0514
10000522:	1000                	.insn	2, 0x1000
10000524:	051c                	.insn	2, 0x051c
10000526:	1000                	.insn	2, 0x1000
10000528:	051c                	.insn	2, 0x051c
1000052a:	1000                	.insn	2, 0x1000
1000052c:	0524                	.insn	2, 0x0524
1000052e:	1000                	.insn	2, 0x1000
10000530:	0524                	.insn	2, 0x0524
10000532:	1000                	.insn	2, 0x1000

Disassembly of section .sdata:

10000534 <environ>:
10000534:	2ac8                	.insn	2, 0x2ac8
	...

10000538 <heap_end.0>:
10000538:	2b00                	.insn	2, 0x2b00
	...

1000053c <_impure_ptr>:
1000053c:	0000                	.insn	2, 0x
1000053e:	1000                	.insn	2, 0x1000

10000540 <__malloc_sbrk_base>:
10000540:	ffff                	.insn	2, 0xffff
10000542:	ffff                	.insn	2, 0xffff

10000544 <__malloc_trim_threshold>:
10000544:	0000                	.insn	2, 0x
10000546:	0002                	.insn	2, 0x0002

Disassembly of section .riscv.attributes:

00000000 <.riscv.attributes>:
   0:	1b41                	.insn	2, 0x1b41
   2:	0000                	.insn	2, 0x
   4:	7200                	.insn	2, 0x7200
   6:	7369                	.insn	2, 0x7369
   8:	01007663          	bgeu	zero,a6,14 <start+0x14>
   c:	0011                	.insn	2, 0x0011
   e:	0000                	.insn	2, 0x
  10:	1004                	.insn	2, 0x1004
  12:	7205                	.insn	2, 0x7205
  14:	3376                	.insn	2, 0x3376
  16:	6932                	.insn	2, 0x6932
  18:	7032                	.insn	2, 0x7032
  1a:	0031                	.insn	2, 0x0031

Disassembly of section .comment:

00000000 <.comment>:
   0:	3a434347          	.insn	4, 0x3a434347
   4:	2820                	.insn	2, 0x2820
   6:	5078                	.insn	2, 0x5078
   8:	6361                	.insn	2, 0x6361
   a:	4e47206b          	.insn	4, 0x4e47206b
   e:	2055                	.insn	2, 0x2055
  10:	4952                	.insn	2, 0x4952
  12:	562d4353          	.insn	4, 0x562d4353
  16:	4520                	.insn	2, 0x4520
  18:	626d                	.insn	2, 0x626d
  1a:	6465                	.insn	2, 0x6465
  1c:	6564                	.insn	2, 0x6564
  1e:	2064                	.insn	2, 0x2064
  20:	20434347          	.insn	4, 0x20434347
  24:	3878                	.insn	2, 0x3878
  26:	5f36                	.insn	2, 0x5f36
  28:	3436                	.insn	2, 0x3436
  2a:	2029                	.insn	2, 0x2029
  2c:	3431                	.insn	2, 0x3431
  2e:	322e                	.insn	2, 0x322e
  30:	302e                	.insn	2, 0x302e
	...

Disassembly of section .debug_line:

00000000 <.debug_line>:
   0:	010c                	.insn	2, 0x010c
   2:	0000                	.insn	2, 0x
   4:	0005                	.insn	2, 0x0005
   6:	0004                	.insn	2, 0x0004
   8:	002a                	.insn	2, 0x002a
   a:	0000                	.insn	2, 0x
   c:	0101                	.insn	2, 0x0101
   e:	fb01                	.insn	2, 0xfb01
  10:	0d0e                	.insn	2, 0x0d0e
  12:	0100                	.insn	2, 0x0100
  14:	0101                	.insn	2, 0x0101
  16:	0001                	.insn	2, 0x0001
  18:	0000                	.insn	2, 0x
  1a:	0001                	.insn	2, 0x0001
  1c:	0100                	.insn	2, 0x0100
  1e:	0101                	.insn	2, 0x0101
  20:	011f 0000 0000      	.insn	6, 0x011f
  26:	0102                	.insn	2, 0x0102
  28:	021f 020f 003f      	.insn	6, 0x003f020f021f
  2e:	0000                	.insn	2, 0x
  30:	3f00                	.insn	2, 0x3f00
  32:	0000                	.insn	2, 0x
  34:	0000                	.insn	2, 0x
  36:	0500                	.insn	2, 0x0500
  38:	0002                	.insn	2, 0x0002
  3a:	0000                	.insn	2, 0x
  3c:	1600                	.insn	2, 0x1600
  3e:	04090103          	lb	sp,64(s2)
  42:	0100                	.insn	2, 0x0100
  44:	04090103          	lb	sp,64(s2)
  48:	0100                	.insn	2, 0x0100
  4a:	04090103          	lb	sp,64(s2)
  4e:	0100                	.insn	2, 0x0100
  50:	04090103          	lb	sp,64(s2)
  54:	0100                	.insn	2, 0x0100
  56:	04090103          	lb	sp,64(s2)
  5a:	0100                	.insn	2, 0x0100
  5c:	04090103          	lb	sp,64(s2)
  60:	0100                	.insn	2, 0x0100
  62:	04090103          	lb	sp,64(s2)
  66:	0100                	.insn	2, 0x0100
  68:	04090103          	lb	sp,64(s2)
  6c:	0100                	.insn	2, 0x0100
  6e:	04090103          	lb	sp,64(s2)
  72:	0100                	.insn	2, 0x0100
  74:	04090103          	lb	sp,64(s2)
  78:	0100                	.insn	2, 0x0100
  7a:	04090103          	lb	sp,64(s2)
  7e:	0100                	.insn	2, 0x0100
  80:	04090103          	lb	sp,64(s2)
  84:	0100                	.insn	2, 0x0100
  86:	04090103          	lb	sp,64(s2)
  8a:	0100                	.insn	2, 0x0100
  8c:	04090103          	lb	sp,64(s2)
  90:	0100                	.insn	2, 0x0100
  92:	04090103          	lb	sp,64(s2)
  96:	0100                	.insn	2, 0x0100
  98:	04090103          	lb	sp,64(s2)
  9c:	0100                	.insn	2, 0x0100
  9e:	04090103          	lb	sp,64(s2)
  a2:	0100                	.insn	2, 0x0100
  a4:	04090103          	lb	sp,64(s2)
  a8:	0100                	.insn	2, 0x0100
  aa:	04090103          	lb	sp,64(s2)
  ae:	0100                	.insn	2, 0x0100
  b0:	04090103          	lb	sp,64(s2)
  b4:	0100                	.insn	2, 0x0100
  b6:	04090103          	lb	sp,64(s2)
  ba:	0100                	.insn	2, 0x0100
  bc:	04090103          	lb	sp,64(s2)
  c0:	0100                	.insn	2, 0x0100
  c2:	04090103          	lb	sp,64(s2)
  c6:	0100                	.insn	2, 0x0100
  c8:	04090103          	lb	sp,64(s2)
  cc:	0100                	.insn	2, 0x0100
  ce:	04090103          	lb	sp,64(s2)
  d2:	0100                	.insn	2, 0x0100
  d4:	04090103          	lb	sp,64(s2)
  d8:	0100                	.insn	2, 0x0100
  da:	04090103          	lb	sp,64(s2)
  de:	0100                	.insn	2, 0x0100
  e0:	04090103          	lb	sp,64(s2)
  e4:	0100                	.insn	2, 0x0100
  e6:	04090103          	lb	sp,64(s2)
  ea:	0100                	.insn	2, 0x0100
  ec:	04090103          	lb	sp,64(s2)
  f0:	0100                	.insn	2, 0x0100
  f2:	04090203          	lb	tp,64(s2)
  f6:	0100                	.insn	2, 0x0100
  f8:	08090303          	lb	t1,128(s2)
  fc:	0100                	.insn	2, 0x0100
  fe:	04090103          	lb	sp,64(s2)
 102:	0100                	.insn	2, 0x0100
 104:	04090103          	lb	sp,64(s2)
 108:	0100                	.insn	2, 0x0100
 10a:	0409                	.insn	2, 0x0409
 10c:	0000                	.insn	2, 0x
 10e:	0101                	.insn	2, 0x0101
 110:	00c8                	.insn	2, 0x00c8
 112:	0000                	.insn	2, 0x
 114:	0005                	.insn	2, 0x0005
 116:	0004                	.insn	2, 0x0004
 118:	003c                	.insn	2, 0x003c
 11a:	0000                	.insn	2, 0x
 11c:	0101                	.insn	2, 0x0101
 11e:	fb01                	.insn	2, 0xfb01
 120:	0d0e                	.insn	2, 0x0d0e
 122:	0100                	.insn	2, 0x0100
 124:	0101                	.insn	2, 0x0101
 126:	0001                	.insn	2, 0x0001
 128:	0000                	.insn	2, 0x
 12a:	0001                	.insn	2, 0x0001
 12c:	0100                	.insn	2, 0x0100
 12e:	0101                	.insn	2, 0x0101
 130:	031f 0000 0000      	.insn	6, 0x031f
 136:	0051                	.insn	2, 0x0051
 138:	0000                	.insn	2, 0x
 13a:	00c2                	.insn	2, 0x00c2
 13c:	0000                	.insn	2, 0x
 13e:	0102                	.insn	2, 0x0102
 140:	021f 040f 0046      	.insn	6, 0x0046040f021f
 146:	0000                	.insn	2, 0x
 148:	4600                	.insn	2, 0x4600
 14a:	0000                	.insn	2, 0x
 14c:	0000                	.insn	2, 0x
 14e:	0000012f          	.insn	4, 0x012f
 152:	4001                	.insn	2, 0x4001
 154:	0001                	.insn	2, 0x0001
 156:	0200                	.insn	2, 0x0200
 158:	1105                	.insn	2, 0x1105
 15a:	0500                	.insn	2, 0x0500
 15c:	9002                	.insn	2, 0x9002
 15e:	0000                	.insn	2, 0x
 160:	0300                	.insn	2, 0x0300
 162:	010d                	.insn	2, 0x010d
 164:	0e05                	.insn	2, 0x0e05
 166:	10091103          	lh	sp,256(s2)
 16a:	0100                	.insn	2, 0x0100
 16c:	0c090103          	lb	sp,192(s2)
 170:	0100                	.insn	2, 0x0100
 172:	0b05                	.insn	2, 0x0b05
 174:	0c090203          	lb	tp,192(s2)
 178:	0100                	.insn	2, 0x0100
 17a:	1605                	.insn	2, 0x1605
 17c:	04090103          	lb	sp,64(s2)
 180:	0100                	.insn	2, 0x0100
 182:	0d05                	.insn	2, 0x0d05
 184:	0c090003          	lb	zero,192(s2)
 188:	0100                	.insn	2, 0x0100
 18a:	1205                	.insn	2, 0x1205
 18c:	0c090003          	lb	zero,192(s2)
 190:	0100                	.insn	2, 0x0100
 192:	1005                	.insn	2, 0x1005
 194:	04090003          	lb	zero,64(s2)
 198:	0100                	.insn	2, 0x0100
 19a:	04097f03          	.insn	4, 0x04097f03
 19e:	0100                	.insn	2, 0x0100
 1a0:	0905                	.insn	2, 0x0905
 1a2:	10090503          	lb	a0,256(s2)
 1a6:	0100                	.insn	2, 0x0100
 1a8:	0b05                	.insn	2, 0x0b05
 1aa:	0c090103          	lb	sp,192(s2)
 1ae:	0100                	.insn	2, 0x0100
 1b0:	0d05                	.insn	2, 0x0d05
 1b2:	04090103          	lb	sp,64(s2)
 1b6:	0100                	.insn	2, 0x0100
 1b8:	1005                	.insn	2, 0x1005
 1ba:	0c090003          	lb	zero,192(s2)
 1be:	0100                	.insn	2, 0x0100
 1c0:	04097f03          	.insn	4, 0x04097f03
 1c4:	0100                	.insn	2, 0x0100
 1c6:	0205                	.insn	2, 0x0205
 1c8:	10090403          	lb	s0,256(s2)
 1cc:	0100                	.insn	2, 0x0100
 1ce:	0105                	.insn	2, 0x0105
 1d0:	04090103          	lb	sp,64(s2)
 1d4:	0100                	.insn	2, 0x0100
 1d6:	1009                	.insn	2, 0x1009
 1d8:	0000                	.insn	2, 0x
 1da:	0101                	.insn	2, 0x0101
 1dc:	00000333          	add	t1,zero,zero
 1e0:	0005                	.insn	2, 0x0005
 1e2:	0004                	.insn	2, 0x0004
 1e4:	005a                	.insn	2, 0x005a
 1e6:	0000                	.insn	2, 0x
 1e8:	0101                	.insn	2, 0x0101
 1ea:	fb01                	.insn	2, 0xfb01
 1ec:	0d0e                	.insn	2, 0x0d0e
 1ee:	0100                	.insn	2, 0x0100
 1f0:	0101                	.insn	2, 0x0101
 1f2:	0001                	.insn	2, 0x0001
 1f4:	0000                	.insn	2, 0x
 1f6:	0001                	.insn	2, 0x0001
 1f8:	0100                	.insn	2, 0x0100
 1fa:	0101                	.insn	2, 0x0101
 1fc:	031f 0000 0000      	.insn	6, 0x031f
 202:	0051                	.insn	2, 0x0051
 204:	0000                	.insn	2, 0x
 206:	00c2                	.insn	2, 0x00c2
 208:	0000                	.insn	2, 0x
 20a:	0102                	.insn	2, 0x0102
 20c:	021f 0a0f 014a      	.insn	6, 0x014a0a0f021f
 212:	0000                	.insn	2, 0x
 214:	4a00                	.insn	2, 0x4a00
 216:	0001                	.insn	2, 0x0001
 218:	0000                	.insn	2, 0x
 21a:	0000012f          	.insn	4, 0x012f
 21e:	3701                	.insn	2, 0x3701
 220:	0001                	.insn	2, 0x0001
 222:	0200                	.insn	2, 0x0200
 224:	0155                	.insn	2, 0x0155
 226:	0000                	.insn	2, 0x
 228:	6002                	.insn	2, 0x6002
 22a:	0001                	.insn	2, 0x0001
 22c:	0200                	.insn	2, 0x0200
 22e:	0138                	.insn	2, 0x0138
 230:	0000                	.insn	2, 0x
 232:	6c02                	.insn	2, 0x6c02
 234:	0001                	.insn	2, 0x0001
 236:	0200                	.insn	2, 0x0200
 238:	00000173          	.insn	4, 0x0173
 23c:	7b02                	.insn	2, 0x7b02
 23e:	0001                	.insn	2, 0x0001
 240:	0200                	.insn	2, 0x0200
 242:	1a05                	.insn	2, 0x1a05
 244:	0500                	.insn	2, 0x0500
 246:	3002                	.insn	2, 0x3002
 248:	0001                	.insn	2, 0x0001
 24a:	0300                	.insn	2, 0x0300
 24c:	00c6                	.insn	2, 0x00c6
 24e:	0501                	.insn	2, 0x0501
 250:	0302                	.insn	2, 0x0302
 252:	0901                	.insn	2, 0x0901
 254:	0014                	.insn	2, 0x0014
 256:	0501                	.insn	2, 0x0501
 258:	0309                	.insn	2, 0x0309
 25a:	0902                	.insn	2, 0x0902
 25c:	0010                	.insn	2, 0x0010
 25e:	0501                	.insn	2, 0x0501
 260:	0301                	.insn	2, 0x0301
 262:	0901                	.insn	2, 0x0901
 264:	0004                	.insn	2, 0x0004
 266:	0301                	.insn	2, 0x0301
 268:	0904                	.insn	2, 0x0904
 26a:	0014                	.insn	2, 0x0014
 26c:	0301                	.insn	2, 0x0301
 26e:	0901                	.insn	2, 0x0901
 270:	0010                	.insn	2, 0x0010
 272:	0301                	.insn	2, 0x0301
 274:	00140903          	lb	s2,1(s0)
 278:	0501                	.insn	2, 0x0501
 27a:	0309                	.insn	2, 0x0309
 27c:	0901                	.insn	2, 0x0901
 27e:	0010                	.insn	2, 0x0010
 280:	0501                	.insn	2, 0x0501
 282:	0301                	.insn	2, 0x0301
 284:	0901                	.insn	2, 0x0901
 286:	0004                	.insn	2, 0x0004
 288:	0301                	.insn	2, 0x0301
 28a:	00140903          	lb	s2,1(s0)
 28e:	0501                	.insn	2, 0x0501
 290:	0302                	.insn	2, 0x0302
 292:	0901                	.insn	2, 0x0901
 294:	0018                	.insn	2, 0x0018
 296:	0501                	.insn	2, 0x0501
 298:	0008                	.insn	2, 0x0008
 29a:	0402                	.insn	2, 0x0402
 29c:	0301                	.insn	2, 0x0301
 29e:	0900                	.insn	2, 0x0900
 2a0:	0008                	.insn	2, 0x0008
 2a2:	0501                	.insn	2, 0x0501
 2a4:	0309                	.insn	2, 0x0309
 2a6:	0901                	.insn	2, 0x0901
 2a8:	0008                	.insn	2, 0x0008
 2aa:	0501                	.insn	2, 0x0501
 2ac:	0301                	.insn	2, 0x0301
 2ae:	0901                	.insn	2, 0x0901
 2b0:	0004                	.insn	2, 0x0004
 2b2:	0301                	.insn	2, 0x0301
 2b4:	00140903          	lb	s2,1(s0)
 2b8:	0501                	.insn	2, 0x0501
 2ba:	0302                	.insn	2, 0x0302
 2bc:	0901                	.insn	2, 0x0901
 2be:	0014                	.insn	2, 0x0014
 2c0:	0501                	.insn	2, 0x0501
 2c2:	0308                	.insn	2, 0x0308
 2c4:	0901                	.insn	2, 0x0901
 2c6:	000c                	.insn	2, 0x000c
 2c8:	0501                	.insn	2, 0x0501
 2ca:	0301                	.insn	2, 0x0301
 2cc:	0904                	.insn	2, 0x0904
 2ce:	0008                	.insn	2, 0x0008
 2d0:	0501                	.insn	2, 0x0501
 2d2:	0309                	.insn	2, 0x0309
 2d4:	001c0903          	lb	s2,1(s8)
 2d8:	0501                	.insn	2, 0x0501
 2da:	0301                	.insn	2, 0x0301
 2dc:	0901                	.insn	2, 0x0901
 2de:	0004                	.insn	2, 0x0004
 2e0:	0301                	.insn	2, 0x0301
 2e2:	00140903          	lb	s2,1(s0)
 2e6:	0501                	.insn	2, 0x0501
 2e8:	0903030f          	.insn	4, 0x0903030f
 2ec:	001c                	.insn	2, 0x001c
 2ee:	0501                	.insn	2, 0x0501
 2f0:	0302                	.insn	2, 0x0302
 2f2:	0900                	.insn	2, 0x0900
 2f4:	0004                	.insn	2, 0x0004
 2f6:	0501                	.insn	2, 0x0501
 2f8:	0314                	.insn	2, 0x0314
 2fa:	0902                	.insn	2, 0x0902
 2fc:	0004                	.insn	2, 0x0004
 2fe:	0501                	.insn	2, 0x0501
 300:	0310                	.insn	2, 0x0310
 302:	0900                	.insn	2, 0x0900
 304:	000c                	.insn	2, 0x000c
 306:	0501                	.insn	2, 0x0501
 308:	09000303          	lb	t1,144(zero) # 90 <ram_init>
 30c:	0004                	.insn	2, 0x0004
 30e:	0501                	.insn	2, 0x0501
 310:	002a                	.insn	2, 0x002a
 312:	0402                	.insn	2, 0x0402
 314:	097e0303          	lb	t1,151(t3)
 318:	0008                	.insn	2, 0x0008
 31a:	0501                	.insn	2, 0x0501
 31c:	001c                	.insn	2, 0x001c
 31e:	0402                	.insn	2, 0x0402
 320:	0301                	.insn	2, 0x0301
 322:	0900                	.insn	2, 0x0900
 324:	000c                	.insn	2, 0x000c
 326:	0501                	.insn	2, 0x0501
 328:	0309                	.insn	2, 0x0309
 32a:	0904                	.insn	2, 0x0904
 32c:	000c                	.insn	2, 0x000c
 32e:	0501                	.insn	2, 0x0501
 330:	0301                	.insn	2, 0x0301
 332:	0901                	.insn	2, 0x0901
 334:	0004                	.insn	2, 0x0004
 336:	0301                	.insn	2, 0x0301
 338:	00140903          	lb	s2,1(s0)
 33c:	0501                	.insn	2, 0x0501
 33e:	0309                	.insn	2, 0x0309
 340:	0901                	.insn	2, 0x0901
 342:	0014                	.insn	2, 0x0014
 344:	0501                	.insn	2, 0x0501
 346:	0301                	.insn	2, 0x0301
 348:	0901                	.insn	2, 0x0901
 34a:	0004                	.insn	2, 0x0004
 34c:	0301                	.insn	2, 0x0301
 34e:	0904                	.insn	2, 0x0904
 350:	0014                	.insn	2, 0x0014
 352:	0501                	.insn	2, 0x0501
 354:	030e                	.insn	2, 0x030e
 356:	0901                	.insn	2, 0x0901
 358:	0018                	.insn	2, 0x0018
 35a:	0501                	.insn	2, 0x0501
 35c:	0309                	.insn	2, 0x0309
 35e:	0901                	.insn	2, 0x0901
 360:	000c                	.insn	2, 0x000c
 362:	0501                	.insn	2, 0x0501
 364:	0301                	.insn	2, 0x0301
 366:	0901                	.insn	2, 0x0901
 368:	0004                	.insn	2, 0x0004
 36a:	0301                	.insn	2, 0x0301
 36c:	00140903          	lb	s2,1(s0)
 370:	0501                	.insn	2, 0x0501
 372:	0309                	.insn	2, 0x0309
 374:	0901                	.insn	2, 0x0901
 376:	0014                	.insn	2, 0x0014
 378:	0501                	.insn	2, 0x0501
 37a:	0301                	.insn	2, 0x0301
 37c:	0901                	.insn	2, 0x0901
 37e:	0004                	.insn	2, 0x0004
 380:	0301                	.insn	2, 0x0301
 382:	00140903          	lb	s2,1(s0)
 386:	0501                	.insn	2, 0x0501
 388:	0309                	.insn	2, 0x0309
 38a:	0901                	.insn	2, 0x0901
 38c:	001c                	.insn	2, 0x001c
 38e:	0501                	.insn	2, 0x0501
 390:	0301                	.insn	2, 0x0301
 392:	0901                	.insn	2, 0x0901
 394:	0004                	.insn	2, 0x0004
 396:	0301                	.insn	2, 0x0301
 398:	00140903          	lb	s2,1(s0)
 39c:	0501                	.insn	2, 0x0501
 39e:	0309                	.insn	2, 0x0309
 3a0:	0902                	.insn	2, 0x0902
 3a2:	0030                	.insn	2, 0x0030
 3a4:	0501                	.insn	2, 0x0501
 3a6:	0301                	.insn	2, 0x0301
 3a8:	0901                	.insn	2, 0x0901
 3aa:	0004                	.insn	2, 0x0004
 3ac:	0301                	.insn	2, 0x0301
 3ae:	00140903          	lb	s2,1(s0)
 3b2:	0501                	.insn	2, 0x0501
 3b4:	0302                	.insn	2, 0x0302
 3b6:	0901                	.insn	2, 0x0901
 3b8:	0014                	.insn	2, 0x0014
 3ba:	0501                	.insn	2, 0x0501
 3bc:	0008                	.insn	2, 0x0008
 3be:	0402                	.insn	2, 0x0402
 3c0:	0301                	.insn	2, 0x0301
 3c2:	0900                	.insn	2, 0x0900
 3c4:	0008                	.insn	2, 0x0008
 3c6:	0501                	.insn	2, 0x0501
 3c8:	0309                	.insn	2, 0x0309
 3ca:	0901                	.insn	2, 0x0901
 3cc:	0008                	.insn	2, 0x0008
 3ce:	0501                	.insn	2, 0x0501
 3d0:	0301                	.insn	2, 0x0301
 3d2:	0901                	.insn	2, 0x0901
 3d4:	0004                	.insn	2, 0x0004
 3d6:	0301                	.insn	2, 0x0301
 3d8:	00140903          	lb	s2,1(s0)
 3dc:	0501                	.insn	2, 0x0501
 3de:	0302                	.insn	2, 0x0302
 3e0:	0901                	.insn	2, 0x0901
 3e2:	0014                	.insn	2, 0x0014
 3e4:	0501                	.insn	2, 0x0501
 3e6:	0008                	.insn	2, 0x0008
 3e8:	0402                	.insn	2, 0x0402
 3ea:	0301                	.insn	2, 0x0301
 3ec:	0900                	.insn	2, 0x0900
 3ee:	0008                	.insn	2, 0x0008
 3f0:	0501                	.insn	2, 0x0501
 3f2:	0309                	.insn	2, 0x0309
 3f4:	0901                	.insn	2, 0x0901
 3f6:	0008                	.insn	2, 0x0008
 3f8:	0501                	.insn	2, 0x0501
 3fa:	0301                	.insn	2, 0x0301
 3fc:	0901                	.insn	2, 0x0901
 3fe:	0004                	.insn	2, 0x0004
 400:	0301                	.insn	2, 0x0301
 402:	00140903          	lb	s2,1(s0)
 406:	0501                	.insn	2, 0x0501
 408:	0309                	.insn	2, 0x0309
 40a:	0901                	.insn	2, 0x0901
 40c:	0014                	.insn	2, 0x0014
 40e:	0501                	.insn	2, 0x0501
 410:	0301                	.insn	2, 0x0301
 412:	0901                	.insn	2, 0x0901
 414:	0004                	.insn	2, 0x0004
 416:	0301                	.insn	2, 0x0301
 418:	00140903          	lb	s2,1(s0)
 41c:	0501                	.insn	2, 0x0501
 41e:	030e                	.insn	2, 0x030e
 420:	0901                	.insn	2, 0x0901
 422:	0018                	.insn	2, 0x0018
 424:	0501                	.insn	2, 0x0501
 426:	0309                	.insn	2, 0x0309
 428:	0901                	.insn	2, 0x0901
 42a:	000c                	.insn	2, 0x000c
 42c:	0501                	.insn	2, 0x0501
 42e:	0301                	.insn	2, 0x0301
 430:	0901                	.insn	2, 0x0901
 432:	0004                	.insn	2, 0x0004
 434:	0301                	.insn	2, 0x0301
 436:	00140903          	lb	s2,1(s0)
 43a:	0501                	.insn	2, 0x0501
 43c:	0302                	.insn	2, 0x0302
 43e:	0901                	.insn	2, 0x0901
 440:	0018                	.insn	2, 0x0018
 442:	0501                	.insn	2, 0x0501
 444:	0008                	.insn	2, 0x0008
 446:	0402                	.insn	2, 0x0402
 448:	0301                	.insn	2, 0x0301
 44a:	0900                	.insn	2, 0x0900
 44c:	0008                	.insn	2, 0x0008
 44e:	0501                	.insn	2, 0x0501
 450:	0309                	.insn	2, 0x0309
 452:	0901                	.insn	2, 0x0901
 454:	0008                	.insn	2, 0x0008
 456:	0501                	.insn	2, 0x0501
 458:	0301                	.insn	2, 0x0301
 45a:	0901                	.insn	2, 0x0901
 45c:	0004                	.insn	2, 0x0004
 45e:	0301                	.insn	2, 0x0301
 460:	00140903          	lb	s2,1(s0)
 464:	0501                	.insn	2, 0x0501
 466:	0302                	.insn	2, 0x0302
 468:	0901                	.insn	2, 0x0901
 46a:	0010                	.insn	2, 0x0010
 46c:	0501                	.insn	2, 0x0501
 46e:	0008                	.insn	2, 0x0008
 470:	0402                	.insn	2, 0x0402
 472:	0301                	.insn	2, 0x0301
 474:	0900                	.insn	2, 0x0900
 476:	0008                	.insn	2, 0x0008
 478:	0501                	.insn	2, 0x0501
 47a:	0309                	.insn	2, 0x0309
 47c:	0901                	.insn	2, 0x0901
 47e:	0008                	.insn	2, 0x0008
 480:	0501                	.insn	2, 0x0501
 482:	0301                	.insn	2, 0x0301
 484:	0901                	.insn	2, 0x0901
 486:	0004                	.insn	2, 0x0004
 488:	0301                	.insn	2, 0x0301
 48a:	00140903          	lb	s2,1(s0)
 48e:	0501                	.insn	2, 0x0501
 490:	0302                	.insn	2, 0x0302
 492:	0901                	.insn	2, 0x0901
 494:	001c                	.insn	2, 0x001c
 496:	0501                	.insn	2, 0x0501
 498:	0008                	.insn	2, 0x0008
 49a:	0402                	.insn	2, 0x0402
 49c:	0301                	.insn	2, 0x0301
 49e:	0900                	.insn	2, 0x0900
 4a0:	0008                	.insn	2, 0x0008
 4a2:	0501                	.insn	2, 0x0501
 4a4:	0309                	.insn	2, 0x0309
 4a6:	0901                	.insn	2, 0x0901
 4a8:	0008                	.insn	2, 0x0008
 4aa:	0501                	.insn	2, 0x0501
 4ac:	0301                	.insn	2, 0x0301
 4ae:	0901                	.insn	2, 0x0901
 4b0:	0004                	.insn	2, 0x0004
 4b2:	0501                	.insn	2, 0x0501
 4b4:	09060317          	auipc	t1,0x9060
 4b8:	0014                	.insn	2, 0x0014
 4ba:	0501                	.insn	2, 0x0501
 4bc:	0905030b          	.insn	4, 0x0905030b
 4c0:	0014                	.insn	2, 0x0014
 4c2:	0301                	.insn	2, 0x0301
 4c4:	000c0903          	lb	s2,0(s8)
 4c8:	0501                	.insn	2, 0x0501
 4ca:	0312                	.insn	2, 0x0312
 4cc:	000c0903          	lb	s2,0(s8)
 4d0:	0501                	.insn	2, 0x0501
 4d2:	0308                	.insn	2, 0x0308
 4d4:	0900                	.insn	2, 0x0900
 4d6:	0010                	.insn	2, 0x0010
 4d8:	0501                	.insn	2, 0x0501
 4da:	0309                	.insn	2, 0x0309
 4dc:	0901                	.insn	2, 0x0901
 4de:	0008                	.insn	2, 0x0008
 4e0:	0501                	.insn	2, 0x0501
 4e2:	0402000f          	.insn	4, 0x0402000f
 4e6:	0301                	.insn	2, 0x0301
 4e8:	0900                	.insn	2, 0x0900
 4ea:	0008                	.insn	2, 0x0008
 4ec:	0501                	.insn	2, 0x0501
 4ee:	0310                	.insn	2, 0x0310
 4f0:	0901                	.insn	2, 0x0901
 4f2:	0008                	.insn	2, 0x0008
 4f4:	0501                	.insn	2, 0x0501
 4f6:	030e                	.insn	2, 0x030e
 4f8:	00080903          	lb	s2,0(a6)
 4fc:	0501                	.insn	2, 0x0501
 4fe:	030c                	.insn	2, 0x030c
 500:	0901                	.insn	2, 0x0901
 502:	0018                	.insn	2, 0x0018
 504:	0501                	.insn	2, 0x0501
 506:	0301                	.insn	2, 0x0301
 508:	0901                	.insn	2, 0x0901
 50a:	0004                	.insn	2, 0x0004
 50c:	0901                	.insn	2, 0x0901
 50e:	0014                	.insn	2, 0x0014
 510:	0100                	.insn	2, 0x0100
 512:	c601                	.insn	2, 0xc601
 514:	0001                	.insn	2, 0x0001
 516:	0500                	.insn	2, 0x0500
 518:	0400                	.insn	2, 0x0400
 51a:	3c00                	.insn	2, 0x3c00
 51c:	0000                	.insn	2, 0x
 51e:	0100                	.insn	2, 0x0100
 520:	0101                	.insn	2, 0x0101
 522:	000d0efb          	.insn	4, 0x000d0efb
 526:	0101                	.insn	2, 0x0101
 528:	0101                	.insn	2, 0x0101
 52a:	0000                	.insn	2, 0x
 52c:	0100                	.insn	2, 0x0100
 52e:	0000                	.insn	2, 0x
 530:	0101                	.insn	2, 0x0101
 532:	1f01                	.insn	2, 0x1f01
 534:	00000003          	lb	zero,0(zero) # 0 <start>
 538:	5100                	.insn	2, 0x5100
 53a:	0000                	.insn	2, 0x
 53c:	c200                	.insn	2, 0xc200
 53e:	0000                	.insn	2, 0x
 540:	0200                	.insn	2, 0x0200
 542:	1f01                	.insn	2, 0x1f01
 544:	0f02                	.insn	2, 0x0f02
 546:	8304                	.insn	2, 0x8304
 548:	0001                	.insn	2, 0x0001
 54a:	0000                	.insn	2, 0x
 54c:	00000183          	lb	gp,0(zero) # 0 <start>
 550:	2f00                	.insn	2, 0x2f00
 552:	0001                	.insn	2, 0x0001
 554:	0100                	.insn	2, 0x0100
 556:	0140                	.insn	2, 0x0140
 558:	0000                	.insn	2, 0x
 55a:	0502                	.insn	2, 0x0502
 55c:	0019                	.insn	2, 0x0019
 55e:	0205                	.insn	2, 0x0205
 560:	05f8                	.insn	2, 0x05f8
 562:	0000                	.insn	2, 0x
 564:	05010903          	lb	s2,80(sp)
 568:	09010307          	.insn	4, 0x09010307
 56c:	0018                	.insn	2, 0x0018
 56e:	0501                	.insn	2, 0x0501
 570:	0009                	.insn	2, 0x0009
 572:	0402                	.insn	2, 0x0402
 574:	0301                	.insn	2, 0x0301
 576:	0900                	.insn	2, 0x0900
 578:	0004                	.insn	2, 0x0004
 57a:	0501                	.insn	2, 0x0501
 57c:	001f 0402 0301      	.insn	6, 0x03010402001f
 582:	0900                	.insn	2, 0x0900
 584:	000c                	.insn	2, 0x000c
 586:	0501                	.insn	2, 0x0501
 588:	0008                	.insn	2, 0x0008
 58a:	0402                	.insn	2, 0x0402
 58c:	0301                	.insn	2, 0x0301
 58e:	0900                	.insn	2, 0x0900
 590:	0004                	.insn	2, 0x0004
 592:	0501                	.insn	2, 0x0501
 594:	0302                	.insn	2, 0x0302
 596:	0901                	.insn	2, 0x0901
 598:	0004                	.insn	2, 0x0004
 59a:	0501                	.insn	2, 0x0501
 59c:	0900031b          	.insn	4, 0x0900031b
 5a0:	0008                	.insn	2, 0x0008
 5a2:	0501                	.insn	2, 0x0501
 5a4:	0302                	.insn	2, 0x0302
 5a6:	0902                	.insn	2, 0x0902
 5a8:	0008                	.insn	2, 0x0008
 5aa:	0501                	.insn	2, 0x0501
 5ac:	0301                	.insn	2, 0x0301
 5ae:	0901                	.insn	2, 0x0901
 5b0:	0004                	.insn	2, 0x0004
 5b2:	0501                	.insn	2, 0x0501
 5b4:	0335                	.insn	2, 0x0335
 5b6:	0902                	.insn	2, 0x0902
 5b8:	0010                	.insn	2, 0x0010
 5ba:	0501                	.insn	2, 0x0501
 5bc:	09010307          	.insn	4, 0x09010307
 5c0:	001c                	.insn	2, 0x001c
 5c2:	0501                	.insn	2, 0x0501
 5c4:	0022                	.insn	2, 0x0022
 5c6:	0402                	.insn	2, 0x0402
 5c8:	0302                	.insn	2, 0x0302
 5ca:	0900                	.insn	2, 0x0900
 5cc:	0004                	.insn	2, 0x0004
 5ce:	0501                	.insn	2, 0x0501
 5d0:	0012                	.insn	2, 0x0012
 5d2:	0402                	.insn	2, 0x0402
 5d4:	0302                	.insn	2, 0x0302
 5d6:	0900                	.insn	2, 0x0900
 5d8:	000c                	.insn	2, 0x000c
 5da:	0501                	.insn	2, 0x0501
 5dc:	000e                	.insn	2, 0x000e
 5de:	0402                	.insn	2, 0x0402
 5e0:	0301                	.insn	2, 0x0301
 5e2:	0900                	.insn	2, 0x0900
 5e4:	000c                	.insn	2, 0x000c
 5e6:	0501                	.insn	2, 0x0501
 5e8:	0008                	.insn	2, 0x0008
 5ea:	0402                	.insn	2, 0x0402
 5ec:	0301                	.insn	2, 0x0301
 5ee:	0900                	.insn	2, 0x0900
 5f0:	000c                	.insn	2, 0x000c
 5f2:	0501                	.insn	2, 0x0501
 5f4:	0302                	.insn	2, 0x0302
 5f6:	0902                	.insn	2, 0x0902
 5f8:	0004                	.insn	2, 0x0004
 5fa:	0501                	.insn	2, 0x0501
 5fc:	0301                	.insn	2, 0x0301
 5fe:	0901                	.insn	2, 0x0901
 600:	0004                	.insn	2, 0x0004
 602:	0501                	.insn	2, 0x0501
 604:	0324                	.insn	2, 0x0324
 606:	0902                	.insn	2, 0x0902
 608:	0010                	.insn	2, 0x0010
 60a:	0501                	.insn	2, 0x0501
 60c:	09010307          	.insn	4, 0x09010307
 610:	0014                	.insn	2, 0x0014
 612:	0501                	.insn	2, 0x0501
 614:	04020023          	sb	zero,64(tp) # 40 <start+0x40>
 618:	0302                	.insn	2, 0x0302
 61a:	0900                	.insn	2, 0x0900
 61c:	0004                	.insn	2, 0x0004
 61e:	0501                	.insn	2, 0x0501
 620:	04020013          	addi	zero,tp,64 # 40 <start+0x40>
 624:	0302                	.insn	2, 0x0302
 626:	0900                	.insn	2, 0x0900
 628:	000c                	.insn	2, 0x000c
 62a:	0501                	.insn	2, 0x0501
 62c:	0008                	.insn	2, 0x0008
 62e:	0402                	.insn	2, 0x0402
 630:	0301                	.insn	2, 0x0301
 632:	0900                	.insn	2, 0x0900
 634:	000c                	.insn	2, 0x000c
 636:	0501                	.insn	2, 0x0501
 638:	000d                	.insn	2, 0x000d
 63a:	0402                	.insn	2, 0x0402
 63c:	0301                	.insn	2, 0x0301
 63e:	0900                	.insn	2, 0x0900
 640:	0008                	.insn	2, 0x0008
 642:	0501                	.insn	2, 0x0501
 644:	0302                	.insn	2, 0x0302
 646:	0904                	.insn	2, 0x0904
 648:	0004                	.insn	2, 0x0004
 64a:	0501                	.insn	2, 0x0501
 64c:	0301                	.insn	2, 0x0301
 64e:	0901                	.insn	2, 0x0901
 650:	0004                	.insn	2, 0x0004
 652:	0501                	.insn	2, 0x0501
 654:	030c                	.insn	2, 0x030c
 656:	0902                	.insn	2, 0x0902
 658:	0010                	.insn	2, 0x0010
 65a:	0501                	.insn	2, 0x0501
 65c:	0302                	.insn	2, 0x0302
 65e:	0901                	.insn	2, 0x0901
 660:	0010                	.insn	2, 0x0010
 662:	0501                	.insn	2, 0x0501
 664:	030a                	.insn	2, 0x030a
 666:	0901                	.insn	2, 0x0901
 668:	000c                	.insn	2, 0x000c
 66a:	0501                	.insn	2, 0x0501
 66c:	0318                	.insn	2, 0x0318
 66e:	00040903          	lb	s2,0(s0)
 672:	0501                	.insn	2, 0x0501
 674:	0900031b          	.insn	4, 0x0900031b
 678:	000c                	.insn	2, 0x000c
 67a:	0501                	.insn	2, 0x0501
 67c:	09000303          	lb	t1,144(zero) # 90 <ram_init>
 680:	0004                	.insn	2, 0x0004
 682:	0501                	.insn	2, 0x0501
 684:	0900031b          	.insn	4, 0x0900031b
 688:	0004                	.insn	2, 0x0004
 68a:	0501                	.insn	2, 0x0501
 68c:	0311                	.insn	2, 0x0311
 68e:	0900                	.insn	2, 0x0900
 690:	0004                	.insn	2, 0x0004
 692:	0501                	.insn	2, 0x0501
 694:	0310                	.insn	2, 0x0310
 696:	0901                	.insn	2, 0x0901
 698:	0004                	.insn	2, 0x0004
 69a:	0501                	.insn	2, 0x0501
 69c:	09000303          	lb	t1,144(zero) # 90 <ram_init>
 6a0:	0004                	.insn	2, 0x0004
 6a2:	0501                	.insn	2, 0x0501
 6a4:	0026                	.insn	2, 0x0026
 6a6:	0402                	.insn	2, 0x0402
 6a8:	09000303          	lb	t1,144(zero) # 90 <ram_init>
 6ac:	0004                	.insn	2, 0x0004
 6ae:	0501                	.insn	2, 0x0501
 6b0:	0022                	.insn	2, 0x0022
 6b2:	0402                	.insn	2, 0x0402
 6b4:	09000303          	lb	t1,144(zero) # 90 <ram_init>
 6b8:	0004                	.insn	2, 0x0004
 6ba:	0501                	.insn	2, 0x0501
 6bc:	0019                	.insn	2, 0x0019
 6be:	0402                	.insn	2, 0x0402
 6c0:	0301                	.insn	2, 0x0301
 6c2:	0900                	.insn	2, 0x0900
 6c4:	000c                	.insn	2, 0x000c
 6c6:	0501                	.insn	2, 0x0501
 6c8:	09010303          	lb	t1,144(sp)
 6cc:	000c                	.insn	2, 0x000c
 6ce:	0501                	.insn	2, 0x0501
 6d0:	0311                	.insn	2, 0x0311
 6d2:	097e                	.insn	2, 0x097e
 6d4:	000c                	.insn	2, 0x000c
 6d6:	0901                	.insn	2, 0x0901
 6d8:	0004                	.insn	2, 0x0004
 6da:	0100                	.insn	2, 0x0100
 6dc:	Address 0x6dc is out of bounds.


Disassembly of section .debug_line_str:

00000000 <.debug_line_str>:
   0:	746e6d2f          	.insn	4, 0x746e6d2f
   4:	552f632f          	.insn	4, 0x552f632f
   8:	73726573          	.insn	4, 0x73726573
   c:	72656d2f          	.insn	4, 0x72656d2f
  10:	6174                	.insn	2, 0x6174
  12:	656e4f2f          	.insn	4, 0x656e4f2f
  16:	7244                	.insn	2, 0x7244
  18:	7669                	.insn	2, 0x7669
  1a:	2f65                	.insn	2, 0x2f65
  1c:	6f44                	.insn	2, 0x6f44
  1e:	656d7563          	bgeu	s10,s6,668 <print_length+0x1c>
  22:	746e                	.insn	2, 0x746e
  24:	6f772f73          	.insn	4, 0x6f772f73
  28:	6b72                	.insn	2, 0x6b72
  2a:	706f6873          	.insn	4, 0x706f6873
  2e:	6d5f 6972 6373      	.insn	6, 0x637369726d5f
  34:	2f76                	.insn	2, 0x2f76
  36:	6966                	.insn	2, 0x6966
  38:	6d72                	.insn	2, 0x6d72
  3a:	65726177          	.insn	4, 0x65726177
  3e:	6200                	.insn	2, 0x6200
  40:	2e746f6f          	jal	t5,46b26 <_end+0x44026>
  44:	61720053          	.insn	4, 0x61720053
  48:	5f6d                	.insn	2, 0x5f6d
  4a:	6e69                	.insn	2, 0x6e69
  4c:	7469                	.insn	2, 0x7469
  4e:	632e                	.insn	2, 0x632e
  50:	2f00                	.insn	2, 0x2f00
  52:	6f68                	.insn	2, 0x6f68
  54:	656d                	.insn	2, 0x656d
  56:	6861632f          	.insn	4, 0x6861632f
  5a:	6f79                	.insn	2, 0x6f79
  5c:	6f6c2e2f          	.insn	4, 0x6f6c2e2f
  60:	2f6c6163          	bltu	s8,s6,342 <_isatty+0x1a>
  64:	5078                	.insn	2, 0x5078
  66:	6361                	.insn	2, 0x6361
  68:	402f736b          	.insn	4, 0x402f736b
  6c:	7078                	.insn	2, 0x7078
  6e:	6361                	.insn	2, 0x6361
  70:	65642d6b          	.insn	4, 0x65642d6b
  74:	2d76                	.insn	2, 0x2d76
  76:	6f74                	.insn	2, 0x6f74
  78:	2f736c6f          	jal	s8,36b6e <_end+0x3406e>
  7c:	6972                	.insn	2, 0x6972
  7e:	2d766373          	.insn	4, 0x2d766373
  82:	6f6e                	.insn	2, 0x6f6e
  84:	656e                	.insn	2, 0x656e
  86:	652d                	.insn	2, 0x652d
  88:	666c                	.insn	2, 0x666c
  8a:	672d                	.insn	2, 0x672d
  8c:	312f6363          	bltu	t5,s2,392 <_open+0xa>
  90:	2e34                	.insn	2, 0x2e34
  92:	2e32                	.insn	2, 0x2e32
  94:	2d30                	.insn	2, 0x2d30
  96:	2f312e33          	.insn	4, 0x2f312e33
  9a:	632e                	.insn	2, 0x632e
  9c:	65746e6f          	jal	t3,46ef2 <_end+0x443f2>
  a0:	746e                	.insn	2, 0x746e
  a2:	7369722f          	.insn	4, 0x7369722f
  a6:	6e2d7663          	bgeu	s10,sp,792 <memset+0x2a>
  aa:	2d656e6f          	jal	t3,56380 <_end+0x53880>
  ae:	6c65                	.insn	2, 0x6c65
  b0:	2f66                	.insn	2, 0x2f66
  b2:	6e69                	.insn	2, 0x6e69
  b4:	64756c63          	bltu	a0,t2,70c <main+0x14>
  b8:	2f65                	.insn	2, 0x2f65
  ba:	616d                	.insn	2, 0x616d
  bc:	6e696863          	bltu	s2,t1,7ac <memset+0x44>
  c0:	0065                	.insn	2, 0x0065
  c2:	6d6f682f          	.insn	4, 0x6d6f682f
  c6:	2f65                	.insn	2, 0x2f65
  c8:	79686163          	bltu	a6,s6,84a <__errno+0x6>
  cc:	6c2e2f6f          	jal	t5,e278e <_end+0xdfc8e>
  d0:	6c61636f          	jal	t1,16796 <_end+0x13c96>
  d4:	6150782f          	.insn	4, 0x6150782f
  d8:	2f736b63          	bltu	t1,s7,3ce <_open+0x46>
  dc:	7840                	.insn	2, 0x7840
  de:	6170                	.insn	2, 0x6170
  e0:	642d6b63          	bltu	s10,sp,736 <main+0x3e>
  e4:	7665                	.insn	2, 0x7665
  e6:	742d                	.insn	2, 0x742d
  e8:	736c6f6f          	jal	t5,c681e <_end+0xc3d1e>
  ec:	7369722f          	.insn	4, 0x7369722f
  f0:	6e2d7663          	bgeu	s10,sp,7dc <memset+0x74>
  f4:	2d656e6f          	jal	t3,563ca <_end+0x538ca>
  f8:	6c65                	.insn	2, 0x6c65
  fa:	2d66                	.insn	2, 0x2d66
  fc:	2f636367          	.insn	4, 0x2f636367
 100:	3431                	.insn	2, 0x3431
 102:	322e                	.insn	2, 0x322e
 104:	302e                	.insn	2, 0x302e
 106:	332d                	.insn	2, 0x332d
 108:	312e                	.insn	2, 0x312e
 10a:	6f632e2f          	.insn	4, 0x6f632e2f
 10e:	746e                	.insn	2, 0x746e
 110:	6e65                	.insn	2, 0x6e65
 112:	2f74                	.insn	2, 0x2f74
 114:	6972                	.insn	2, 0x6972
 116:	2d766373          	.insn	4, 0x2d766373
 11a:	6f6e                	.insn	2, 0x6f6e
 11c:	656e                	.insn	2, 0x656e
 11e:	652d                	.insn	2, 0x652d
 120:	666c                	.insn	2, 0x666c
 122:	636e692f          	.insn	4, 0x636e692f
 126:	756c                	.insn	2, 0x756c
 128:	6564                	.insn	2, 0x6564
 12a:	7379732f          	.insn	4, 0x7379732f
 12e:	5f00                	.insn	2, 0x5f00
 130:	6564                	.insn	2, 0x6564
 132:	6166                	.insn	2, 0x6166
 134:	6c75                	.insn	2, 0x6c75
 136:	5f74                	.insn	2, 0x5f74
 138:	7974                	.insn	2, 0x7974
 13a:	6570                	.insn	2, 0x6570
 13c:	00682e73          	.insn	4, 0x00682e73
 140:	735f 6474 6e69      	.insn	6, 0x6e696474735f
 146:	2e74                	.insn	2, 0x2e74
 148:	0068                	.insn	2, 0x0068
 14a:	63737973          	.insn	4, 0x63737973
 14e:	6c61                	.insn	2, 0x6c61
 150:	736c                	.insn	2, 0x736c
 152:	632e                	.insn	2, 0x632e
 154:	5f00                	.insn	2, 0x5f00
 156:	6974                	.insn	2, 0x6974
 158:	656d                	.insn	2, 0x656d
 15a:	6176                	.insn	2, 0x6176
 15c:	2e6c                	.insn	2, 0x2e6c
 15e:	0068                	.insn	2, 0x0068
 160:	745f 6d69 7365      	.insn	6, 0x73656d69745f
 166:	6570                	.insn	2, 0x6570
 168:	00682e63          	.insn	4, 0x00682e63
 16c:	74617473          	.insn	4, 0x74617473
 170:	682e                	.insn	2, 0x682e
 172:	7400                	.insn	2, 0x7400
 174:	6d69                	.insn	2, 0x6d69
 176:	7365                	.insn	2, 0x7365
 178:	682e                	.insn	2, 0x682e
 17a:	6500                	.insn	2, 0x6500
 17c:	7272                	.insn	2, 0x7272
 17e:	6f6e                	.insn	2, 0x6f6e
 180:	682e                	.insn	2, 0x682e
 182:	6d00                	.insn	2, 0x6d00
 184:	6961                	.insn	2, 0x6961
 186:	2e6e                	.insn	2, 0x2e6e
 188:	Address 0x188 is out of bounds.


Disassembly of section .debug_info:

00000000 <.debug_info>:
   0:	0021                	.insn	2, 0x0021
   2:	0000                	.insn	2, 0x
   4:	0005                	.insn	2, 0x0005
   6:	0401                	.insn	2, 0x0401
   8:	0000                	.insn	2, 0x
   a:	0000                	.insn	2, 0x
   c:	0001                	.insn	2, 0x0001
   e:	0000                	.insn	2, 0x
  10:	0000                	.insn	2, 0x
  12:	0000                	.insn	2, 0x
  14:	9c00                	.insn	2, 0x9c00
  16:	0001                	.insn	2, 0x0001
  18:	0000                	.insn	2, 0x
  1a:	0700                	.insn	2, 0x0700
  1c:	0000                	.insn	2, 0x
  1e:	4600                	.insn	2, 0x4600
  20:	0000                	.insn	2, 0x
  22:	0100                	.insn	2, 0x0100
  24:	0280                	.insn	2, 0x0280
  26:	0001                	.insn	2, 0x0001
  28:	0500                	.insn	2, 0x0500
  2a:	0100                	.insn	2, 0x0100
  2c:	1404                	.insn	2, 0x1404
  2e:	0000                	.insn	2, 0x
  30:	0500                	.insn	2, 0x0500
  32:	00df 0000 461d      	.insn	6, 0x461d000000df
  38:	0000                	.insn	2, 0x
  3a:	0000                	.insn	2, 0x
  3c:	0000                	.insn	2, 0x
  3e:	9000                	.insn	2, 0x9000
  40:	0000                	.insn	2, 0x
  42:	a000                	.insn	2, 0xa000
  44:	0000                	.insn	2, 0x
  46:	1000                	.insn	2, 0x1000
  48:	0001                	.insn	2, 0x0001
  4a:	0100                	.insn	2, 0x0100
  4c:	0601                	.insn	2, 0x0601
  4e:	0070                	.insn	2, 0x0070
  50:	0000                	.insn	2, 0x
  52:	00005b03          	lhu	s6,0(zero) # 0 <start>
  56:	0200                	.insn	2, 0x0200
  58:	0039182b          	.insn	4, 0x0039182b
  5c:	0000                	.insn	2, 0x
  5e:	0101                	.insn	2, 0x0101
  60:	6e08                	.insn	2, 0x6e08
  62:	0000                	.insn	2, 0x
  64:	0100                	.insn	2, 0x0100
  66:	0502                	.insn	2, 0x0502
  68:	00d5                	.insn	2, 0x00d5
  6a:	0000                	.insn	2, 0x
  6c:	0201                	.insn	2, 0x0201
  6e:	00008307          	.insn	4, 0x8307
  72:	0100                	.insn	2, 0x0100
  74:	0504                	.insn	2, 0x0504
  76:	000000c3          	.insn	4, 0x00c3
  7a:	00009603          	lh	a2,0(ra)
  7e:	0200                	.insn	2, 0x0200
  80:	0061194f          	.insn	4, 0x0061194f
  84:	0000                	.insn	2, 0x
  86:	0401                	.insn	2, 0x0401
  88:	0000ac07          	.insn	4, 0xac07
  8c:	0100                	.insn	2, 0x0100
  8e:	0508                	.insn	2, 0x0508
  90:	00be                	.insn	2, 0x00be
  92:	0000                	.insn	2, 0x
  94:	0801                	.insn	2, 0x0801
  96:	0000a707          	.insn	4, 0xa707
  9a:	0600                	.insn	2, 0x0600
  9c:	0504                	.insn	2, 0x0504
  9e:	6e69                	.insn	2, 0x6e69
  a0:	0074                	.insn	2, 0x0074
  a2:	0401                	.insn	2, 0x0401
  a4:	0000b107          	.insn	4, 0xb107
  a8:	0300                	.insn	2, 0x0300
  aa:	005d                	.insn	2, 0x005d
  ac:	0000                	.insn	2, 0x
  ae:	2d131803          	lh	a6,721(t1) # 9060785 <_end+0x905dc85>
  b2:	0000                	.insn	2, 0x
  b4:	0300                	.insn	2, 0x0300
  b6:	0098                	.insn	2, 0x0098
  b8:	0000                	.insn	2, 0x
  ba:	55143003          	.insn	4, 0x55143003
  be:	0000                	.insn	2, 0x
  c0:	0200                	.insn	2, 0x0200
  c2:	0054                	.insn	2, 0x0054
  c4:	0000                	.insn	2, 0x
  c6:	00009003          	lh	zero,0(ra)
  ca:	0200                	.insn	2, 0x0200
  cc:	007c                	.insn	2, 0x007c
  ce:	0000                	.insn	2, 0x
  d0:	9004                	.insn	2, 0x9004
  d2:	0000                	.insn	2, 0x
  d4:	0200                	.insn	2, 0x0200
  d6:	00a1                	.insn	2, 0x00a1
  d8:	0000                	.insn	2, 0x
  da:	9008                	.insn	2, 0x9008
  dc:	0000                	.insn	2, 0x
  de:	0200                	.insn	2, 0x0200
  e0:	0122                	.insn	2, 0x0122
  e2:	0000                	.insn	2, 0x
  e4:	9009                	.insn	2, 0x9009
  e6:	0000                	.insn	2, 0x
  e8:	0200                	.insn	2, 0x0200
  ea:	00cc                	.insn	2, 0x00cc
  ec:	0000                	.insn	2, 0x
  ee:	900c                	.insn	2, 0x900c
  f0:	0000                	.insn	2, 0x
  f2:	0700                	.insn	2, 0x0700
  f4:	0065                	.insn	2, 0x0065
  f6:	0000                	.insn	2, 0x
  f8:	0e01                	.insn	2, 0x0e01
  fa:	9006                	.insn	2, 0x9006
  fc:	0000                	.insn	2, 0x
  fe:	a000                	.insn	2, 0xa000
 100:	0000                	.insn	2, 0x
 102:	0100                	.insn	2, 0x0100
 104:	ff9c                	.insn	2, 0xff9c
 106:	0000                	.insn	2, 0x
 108:	0400                	.insn	2, 0x0400
 10a:	00637273          	.insn	4, 0x00637273
 10e:	ff1f 0000 0200      	.insn	6, 0x02000000ff1f
 114:	6c91                	.insn	2, 0x6c91
 116:	6404                	.insn	2, 0x6404
 118:	20007473          	.insn	4, 0x20007473
 11c:	00ff 0000 9102 0068 	.insn	10, 0x040800689102000000ff
 124:	0408 
 126:	0084                	.insn	2, 0x0084
 128:	0000                	.insn	2, 0x
 12a:	2600                	.insn	2, 0x2600
 12c:	05000007          	.insn	4, 0x05000007
 130:	0100                	.insn	2, 0x0100
 132:	9704                	.insn	2, 0x9704
 134:	0000                	.insn	2, 0x
 136:	0f00                	.insn	2, 0x0f00
 138:	00df 0000 4a1d      	.insn	6, 0x4a1d000000df
 13e:	0001                	.insn	2, 0x0001
 140:	0000                	.insn	2, 0x
 142:	0000                	.insn	2, 0x
 144:	3000                	.insn	2, 0x3000
 146:	0001                	.insn	2, 0x0001
 148:	c800                	.insn	2, 0xc800
 14a:	0004                	.insn	2, 0x0004
 14c:	dc00                	.insn	2, 0xdc00
 14e:	0001                	.insn	2, 0x0001
 150:	0500                	.insn	2, 0x0500
 152:	0601                	.insn	2, 0x0601
 154:	0070                	.insn	2, 0x0070
 156:	0000                	.insn	2, 0x
 158:	0105                	.insn	2, 0x0105
 15a:	6e08                	.insn	2, 0x6e08
 15c:	0000                	.insn	2, 0x
 15e:	0500                	.insn	2, 0x0500
 160:	0502                	.insn	2, 0x0502
 162:	00d5                	.insn	2, 0x00d5
 164:	0000                	.insn	2, 0x
 166:	0205                	.insn	2, 0x0205
 168:	00008307          	.insn	4, 0x8307
 16c:	0500                	.insn	2, 0x0500
 16e:	0504                	.insn	2, 0x0504
 170:	000000c3          	.insn	4, 0x00c3
 174:	9601                	.insn	2, 0x9601
 176:	0000                	.insn	2, 0x
 178:	0200                	.insn	2, 0x0200
 17a:	0055194f          	.insn	4, 0x0055194f
 17e:	0000                	.insn	2, 0x
 180:	0405                	.insn	2, 0x0405
 182:	0000ac07          	.insn	4, 0xac07
 186:	0500                	.insn	2, 0x0500
 188:	0508                	.insn	2, 0x0508
 18a:	00be                	.insn	2, 0x00be
 18c:	0000                	.insn	2, 0x
 18e:	0805                	.insn	2, 0x0805
 190:	0000a707          	.insn	4, 0xa707
 194:	0100                	.insn	2, 0x0100
 196:	01c2                	.insn	2, 0x01c2
 198:	0000                	.insn	2, 0x
 19a:	c802                	.insn	2, 0xc802
 19c:	5c1e                	.insn	2, 0x5c1e
 19e:	0000                	.insn	2, 0x
 1a0:	1000                	.insn	2, 0x1000
 1a2:	0504                	.insn	2, 0x0504
 1a4:	6e69                	.insn	2, 0x6e69
 1a6:	0074                	.insn	2, 0x0074
 1a8:	0405                	.insn	2, 0x0405
 1aa:	0000b107          	.insn	4, 0xb107
 1ae:	0500                	.insn	2, 0x0500
 1b0:	0410                	.insn	2, 0x0410
 1b2:	0238                	.insn	2, 0x0238
 1b4:	0000                	.insn	2, 0x
 1b6:	5b01                	.insn	2, 0x5b01
 1b8:	03000003          	lb	zero,48(zero) # 30 <start+0x30>
 1bc:	0e1e                	.insn	2, 0x0e1e
 1be:	0042                	.insn	2, 0x0042
 1c0:	0000                	.insn	2, 0x
 1c2:	7301                	.insn	2, 0x7301
 1c4:	0002                	.insn	2, 0x0002
 1c6:	0300                	.insn	2, 0x0300
 1c8:	0e22                	.insn	2, 0x0e22
 1ca:	0042                	.insn	2, 0x0042
 1cc:	0000                	.insn	2, 0x
 1ce:	2401                	.insn	2, 0x2401
 1d0:	03000003          	lb	zero,48(zero) # 30 <start+0x30>
 1d4:	0e2e                	.insn	2, 0x0e2e
 1d6:	0042                	.insn	2, 0x0042
 1d8:	0000                	.insn	2, 0x
 1da:	1b01                	.insn	2, 0x1b01
 1dc:	03000003          	lb	zero,48(zero) # 30 <start+0x30>
 1e0:	0f38                	.insn	2, 0x0f38
 1e2:	0034                	.insn	2, 0x0034
 1e4:	0000                	.insn	2, 0x
 1e6:	3901                	.insn	2, 0x3901
 1e8:	03000003          	lb	zero,48(zero) # 30 <start+0x30>
 1ec:	183c                	.insn	2, 0x183c
 1ee:	0000003b          	.insn	4, 0x003b
 1f2:	6e01                	.insn	2, 0x6e01
 1f4:	03000003          	lb	zero,48(zero) # 30 <start+0x30>
 1f8:	003b183f cd010000 	.insn	8, 0xcd010000003b183f
 200:	0002                	.insn	2, 0x0002
 202:	0300                	.insn	2, 0x0300
 204:	003b184b          	.insn	4, 0x003b184b
 208:	0000                	.insn	2, 0x
 20a:	ff01                	.insn	2, 0xff01
 20c:	0001                	.insn	2, 0x0001
 20e:	0300                	.insn	2, 0x0300
 210:	145a                	.insn	2, 0x145a
 212:	0049                	.insn	2, 0x0049
 214:	0000                	.insn	2, 0x
 216:	2301                	.insn	2, 0x2301
 218:	03000003          	lb	zero,48(zero) # 30 <start+0x30>
 21c:	1066                	.insn	2, 0x1066
 21e:	000000a3          	sb	zero,1(zero) # 1 <start+0x1>
 222:	0411                	.insn	2, 0x0411
 224:	1501                	.insn	2, 0x1501
 226:	0002                	.insn	2, 0x0002
 228:	0300                	.insn	2, 0x0300
 22a:	18d5                	.insn	2, 0x18d5
 22c:	0000003b          	.insn	4, 0x003b
 230:	0a08                	.insn	2, 0x0a08
 232:	0001                	.insn	2, 0x0001
 234:	0500                	.insn	2, 0x0500
 236:	0801                	.insn	2, 0x0801
 238:	00000077          	.insn	4, 0x0077
 23c:	b001                	.insn	2, 0xb001
 23e:	0001                	.insn	2, 0x0001
 240:	0400                	.insn	2, 0x0400
 242:	122a                	.insn	2, 0x122a
 244:	006a                	.insn	2, 0x006a
 246:	0000                	.insn	2, 0x
 248:	0003300b          	.insn	4, 0x0003300b
 24c:	1000                	.insn	2, 0x1000
 24e:	2f05                	.insn	2, 0x2f05
 250:	0144                	.insn	2, 0x0144
 252:	0000                	.insn	2, 0x
 254:	6f02                	.insn	2, 0x6f02
 256:	0001                	.insn	2, 0x0001
 258:	0500                	.insn	2, 0x0500
 25a:	0930                	.insn	2, 0x0930
 25c:	0111                	.insn	2, 0x0111
 25e:	0000                	.insn	2, 0x
 260:	0200                	.insn	2, 0x0200
 262:	0251                	.insn	2, 0x0251
 264:	0000                	.insn	2, 0x
 266:	3105                	.insn	2, 0x3105
 268:	00004207          	.insn	4, 0x4207
 26c:	0800                	.insn	2, 0x0800
 26e:	0100                	.insn	2, 0x0100
 270:	035d                	.insn	2, 0x035d
 272:	0000                	.insn	2, 0x
 274:	6106                	.insn	2, 0x6106
 276:	8b14                	.insn	2, 0x8b14
 278:	0000                	.insn	2, 0x
 27a:	0100                	.insn	2, 0x0100
 27c:	0275                	.insn	2, 0x0275
 27e:	0000                	.insn	2, 0x
 280:	6606                	.insn	2, 0x6606
 282:	9715                	.insn	2, 0x9715
 284:	0000                	.insn	2, 0x
 286:	0100                	.insn	2, 0x0100
 288:	0140                	.insn	2, 0x0140
 28a:	0000                	.insn	2, 0x
 28c:	6b06                	.insn	2, 0x6b06
 28e:	00005513          	srli	a0,zero,0x0
 292:	0100                	.insn	2, 0x0100
 294:	000002cf          	.insn	4, 0x02cf
 298:	8906                	.insn	2, 0x8906
 29a:	d312                	.insn	2, 0xd312
 29c:	0000                	.insn	2, 0x
 29e:	0100                	.insn	2, 0x0100
 2a0:	0325                	.insn	2, 0x0325
 2a2:	0000                	.insn	2, 0x
 2a4:	9b06                	.insn	2, 0x9b06
 2a6:	eb12                	.insn	2, 0xeb12
 2a8:	0000                	.insn	2, 0x
 2aa:	0100                	.insn	2, 0x0100
 2ac:	031d                	.insn	2, 0x031d
 2ae:	0000                	.insn	2, 0x
 2b0:	9f06                	.insn	2, 0x9f06
 2b2:	af12                	.insn	2, 0xaf12
 2b4:	0000                	.insn	2, 0x
 2b6:	0100                	.insn	2, 0x0100
 2b8:	0000033b          	.insn	4, 0x033b
 2bc:	a306                	.insn	2, 0xa306
 2be:	bb12                	.insn	2, 0xbb12
 2c0:	0000                	.insn	2, 0x
 2c2:	0100                	.insn	2, 0x0100
 2c4:	0370                	.insn	2, 0x0370
 2c6:	0000                	.insn	2, 0x
 2c8:	a706                	.insn	2, 0xa706
 2ca:	c712                	.insn	2, 0xc712
 2cc:	0000                	.insn	2, 0x
 2ce:	0100                	.insn	2, 0x0100
 2d0:	0201                	.insn	2, 0x0201
 2d2:	0000                	.insn	2, 0x
 2d4:	bb06                	.insn	2, 0xbb06
 2d6:	df12                	.insn	2, 0xdf12
 2d8:	0000                	.insn	2, 0x
 2da:	0100                	.insn	2, 0x0100
 2dc:	00000217          	auipc	tp,0x0
 2e0:	c006                	.insn	2, 0xc006
 2e2:	0000f913          	andi	s2,ra,0
 2e6:	0b00                	.insn	2, 0x0b00
 2e8:	00000177          	.insn	4, 0x0177
 2ec:	0758                	.insn	2, 0x0758
 2ee:	00027f1b          	.insn	4, 0x00027f1b
 2f2:	0200                	.insn	2, 0x0200
 2f4:	00000197          	auipc	gp,0x0
 2f8:	800a1d07          	.insn	4, 0x800a1d07
 2fc:	0001                	.insn	2, 0x0001
 2fe:	0000                	.insn	2, 0x
 300:	4402                	.insn	2, 0x4402
 302:	0002                	.insn	2, 0x0002
 304:	0700                	.insn	2, 0x0700
 306:	0a1e                	.insn	2, 0x0a1e
 308:	0168                	.insn	2, 0x0168
 30a:	0000                	.insn	2, 0x
 30c:	0202                	.insn	2, 0x0202
 30e:	0341                	.insn	2, 0x0341
 310:	0000                	.insn	2, 0x
 312:	a40a1f07          	.insn	4, 0xa40a1f07
 316:	0001                	.insn	2, 0x0001
 318:	0400                	.insn	2, 0x0400
 31a:	5f02                	.insn	2, 0x5f02
 31c:	0002                	.insn	2, 0x0002
 31e:	0700                	.insn	2, 0x0700
 320:	0b20                	.insn	2, 0x0b20
 322:	01b0                	.insn	2, 0x01b0
 324:	0000                	.insn	2, 0x
 326:	0208                	.insn	2, 0x0208
 328:	02df 0000 2107      	.insn	6, 0x2107000002df
 32e:	8c0a                	.insn	2, 0x8c0a
 330:	0001                	.insn	2, 0x0001
 332:	0a00                	.insn	2, 0x0a00
 334:	f802                	.insn	2, 0xf802
 336:	0001                	.insn	2, 0x0001
 338:	0700                	.insn	2, 0x0700
 33a:	0a22                	.insn	2, 0x0a22
 33c:	0198                	.insn	2, 0x0198
 33e:	0000                	.insn	2, 0x
 340:	020c                	.insn	2, 0x020c
 342:	0138                	.insn	2, 0x0138
 344:	0000                	.insn	2, 0x
 346:	800a2307          	.insn	4, 0x800a2307
 34a:	0001                	.insn	2, 0x0001
 34c:	0e00                	.insn	2, 0x0e00
 34e:	e602                	.insn	2, 0xe602
 350:	0002                	.insn	2, 0x0002
 352:	0700                	.insn	2, 0x0700
 354:	0a24                	.insn	2, 0x0a24
 356:	0174                	.insn	2, 0x0174
 358:	0000                	.insn	2, 0x
 35a:	0210                	.insn	2, 0x0210
 35c:	027f 0000 2a07 1d13 	.insn	10, 0x00011d132a070000027f
 364:	0001 
 366:	1800                	.insn	2, 0x1800
 368:	c502                	.insn	2, 0xc502
 36a:	0002                	.insn	2, 0x0002
 36c:	0700                	.insn	2, 0x0700
 36e:	011d132b          	.insn	4, 0x011d132b
 372:	0000                	.insn	2, 0x
 374:	0228                	.insn	2, 0x0228
 376:	017c                	.insn	2, 0x017c
 378:	0000                	.insn	2, 0x
 37a:	1d132c07          	.insn	4, 0x1d132c07
 37e:	0001                	.insn	2, 0x0001
 380:	3800                	.insn	2, 0x3800
 382:	d202                	.insn	2, 0xd202
 384:	0001                	.insn	2, 0x0001
 386:	0700                	.insn	2, 0x0700
 388:	112d                	.insn	2, 0x112d
 38a:	0150                	.insn	2, 0x0150
 38c:	0000                	.insn	2, 0x
 38e:	0248                	.insn	2, 0x0248
 390:	000002b3          	add	t0,zero,zero
 394:	440c2e07          	.insn	4, 0x440c2e07
 398:	0001                	.insn	2, 0x0001
 39a:	4c00                	.insn	2, 0x4c00
 39c:	ee02                	.insn	2, 0xee02
 39e:	0002                	.insn	2, 0x0002
 3a0:	0700                	.insn	2, 0x0700
 3a2:	0930                	.insn	2, 0x0930
 3a4:	027f 0000 0050 420c 	.insn	10, 0x420c00500000027f
 3ac:	0000 
 3ae:	8f00                	.insn	2, 0x8f00
 3b0:	0002                	.insn	2, 0x0002
 3b2:	0d00                	.insn	2, 0x0d00
 3b4:	007d                	.insn	2, 0x007d
 3b6:	0000                	.insn	2, 0x
 3b8:	0001                	.insn	2, 0x0001
 3ba:	7412                	.insn	2, 0x7412
 3bc:	736d                	.insn	2, 0x736d
 3be:	1000                	.insn	2, 0x1000
 3c0:	1108                	.insn	2, 0x1108
 3c2:	d108                	.insn	2, 0xd108
 3c4:	0002                	.insn	2, 0x0002
 3c6:	0200                	.insn	2, 0x0200
 3c8:	0349                	.insn	2, 0x0349
 3ca:	0000                	.insn	2, 0x
 3cc:	1208                	.insn	2, 0x1208
 3ce:	5c0a                	.insn	2, 0x5c0a
 3d0:	0001                	.insn	2, 0x0001
 3d2:	0000                	.insn	2, 0x
 3d4:	d502                	.insn	2, 0xd502
 3d6:	0002                	.insn	2, 0x0002
 3d8:	0800                	.insn	2, 0x0800
 3da:	015c0a13          	addi	s4,s8,21
 3de:	0000                	.insn	2, 0x
 3e0:	0204                	.insn	2, 0x0204
 3e2:	015c                	.insn	2, 0x015c
 3e4:	0000                	.insn	2, 0x
 3e6:	1408                	.insn	2, 0x1408
 3e8:	5c0a                	.insn	2, 0x5c0a
 3ea:	0001                	.insn	2, 0x0001
 3ec:	0800                	.insn	2, 0x0800
 3ee:	b702                	.insn	2, 0xb702
 3f0:	0001                	.insn	2, 0x0001
 3f2:	0800                	.insn	2, 0x0800
 3f4:	0a15                	.insn	2, 0x0a15
 3f6:	015c                	.insn	2, 0x015c
 3f8:	0000                	.insn	2, 0x
 3fa:	000c                	.insn	2, 0x000c
 3fc:	9b0a                	.insn	2, 0x9b0a
 3fe:	0002                	.insn	2, 0x0002
 400:	4100                	.insn	2, 0x4100
 402:	0511                	.insn	2, 0x0511
 404:	0001                	.insn	2, 0x0001
 406:	0100                	.insn	2, 0x0100
 408:	0c52                	.insn	2, 0x0c52
 40a:	0105                	.insn	2, 0x0105
 40c:	0000                	.insn	2, 0x
 40e:	02ee                	.insn	2, 0x02ee
 410:	0000                	.insn	2, 0x
 412:	7d0d                	.insn	2, 0x7d0d
 414:	0000                	.insn	2, 0x
 416:	0000                	.insn	2, 0x
 418:	0a00                	.insn	2, 0x0a00
 41a:	0184                	.insn	2, 0x0184
 41c:	0000                	.insn	2, 0x
 41e:	0744                	.insn	2, 0x0744
 420:	02de                	.insn	2, 0x02de
 422:	0000                	.insn	2, 0x
 424:	0305                	.insn	2, 0x0305
 426:	2ac8                	.insn	2, 0x2ac8
 428:	0000                	.insn	2, 0x
 42a:	480a                	.insn	2, 0x480a
 42c:	0001                	.insn	2, 0x0001
 42e:	4500                	.insn	2, 0x4500
 430:	1008                	.insn	2, 0x1008
 432:	05000003          	lb	zero,80(zero) # 50 <start+0x50>
 436:	00053403          	.insn	4, 0x00053403
 43a:	0810                	.insn	2, 0x0810
 43c:	0105                	.insn	2, 0x0105
 43e:	0000                	.insn	2, 0x
 440:	00036613          	ori	a2,t1,0
 444:	0900                	.insn	2, 0x0900
 446:	03210d13          	addi	s10,sp,50
 44a:	0000                	.insn	2, 0x
 44c:	7608                	.insn	2, 0x7608
 44e:	0000                	.insn	2, 0x
 450:	1400                	.insn	2, 0x1400
 452:	0376                	.insn	2, 0x0376
 454:	0000                	.insn	2, 0x
 456:	4201                	.insn	2, 0x4201
 458:	380d                	.insn	2, 0x380d
 45a:	15000003          	lb	zero,336(zero) # 150 <__io_putchar+0x20>
 45e:	010a                	.insn	2, 0x010a
 460:	0000                	.insn	2, 0x
 462:	0700                	.insn	2, 0x0700
 464:	0208                	.insn	2, 0x0208
 466:	0000                	.insn	2, 0x
 468:	07be                	.insn	2, 0x07be
 46a:	000000f7          	.insn	4, 0x00f7
 46e:	056c                	.insn	2, 0x056c
 470:	0000                	.insn	2, 0x
 472:	008c                	.insn	2, 0x008c
 474:	0000                	.insn	2, 0x
 476:	9c01                	.insn	2, 0x9c01
 478:	03a1                	.insn	2, 0x03a1
 47a:	0000                	.insn	2, 0x
 47c:	00015003          	lhu	zero,0(sp)
 480:	be00                	.insn	2, 0xbe00
 482:	7611                	.insn	2, 0x7611
 484:	0000                	.insn	2, 0x
 486:	0200                	.insn	2, 0x0200
 488:	5c91                	.insn	2, 0x5c91
 48a:	ae0e                	.insn	2, 0xae0e
 48c:	0002                	.insn	2, 0x0002
 48e:	bf00                	.insn	2, 0xbf00
 490:	010a                	.insn	2, 0x010a
 492:	0000                	.insn	2, 0x
 494:	1f0e                	.insn	2, 0x1f0e
 496:	0002                	.insn	2, 0x0002
 498:	c000                	.insn	2, 0xc000
 49a:	010a                	.insn	2, 0x010a
 49c:	0000                	.insn	2, 0x
 49e:	aa09                	.insn	2, 0xaa09
 4a0:	0002                	.insn	2, 0x0002
 4a2:	c200                	.insn	2, 0xc200
 4a4:	0512                	.insn	2, 0x0512
 4a6:	0001                	.insn	2, 0x0001
 4a8:	0500                	.insn	2, 0x0500
 4aa:	00053803          	.insn	4, 0x00053803
 4ae:	0910                	.insn	2, 0x0910
 4b0:	02a5                	.insn	2, 0x02a5
 4b2:	0000                	.insn	2, 0x
 4b4:	01050bc3          	.insn	4, 0x01050bc3
 4b8:	0000                	.insn	2, 0x
 4ba:	9102                	.insn	2, 0x9102
 4bc:	096c                	.insn	2, 0x096c
 4be:	012c                	.insn	2, 0x012c
 4c0:	0000                	.insn	2, 0x
 4c2:	0bc6                	.insn	2, 0x0bc6
 4c4:	0105                	.insn	2, 0x0105
 4c6:	0000                	.insn	2, 0x
 4c8:	9102                	.insn	2, 0x9102
 4ca:	0068                	.insn	2, 0x0068
 4cc:	00016707          	.insn	4, 0x00016707
 4d0:	b400                	.insn	2, 0xb400
 4d2:	7605                	.insn	2, 0x7605
 4d4:	0000                	.insn	2, 0x
 4d6:	2800                	.insn	2, 0x2800
 4d8:	0005                	.insn	2, 0x0005
 4da:	4400                	.insn	2, 0x4400
 4dc:	0000                	.insn	2, 0x
 4de:	0100                	.insn	2, 0x0100
 4e0:	e59c                	.insn	2, 0xe59c
 4e2:	03000003          	lb	zero,48(zero) # 30 <start+0x30>
 4e6:	022d                	.insn	2, 0x022d
 4e8:	0000                	.insn	2, 0x
 4ea:	13b4                	.insn	2, 0x13b4
 4ec:	0105                	.insn	2, 0x0105
 4ee:	0000                	.insn	2, 0x
 4f0:	9102                	.insn	2, 0x9102
 4f2:	036c                	.insn	2, 0x036c
 4f4:	026e                	.insn	2, 0x026e
 4f6:	0000                	.insn	2, 0x
 4f8:	20b4                	.insn	2, 0x20b4
 4fa:	0310                	.insn	2, 0x0310
 4fc:	0000                	.insn	2, 0x
 4fe:	9102                	.insn	2, 0x9102
 500:	0468                	.insn	2, 0x0468
 502:	6e65                	.insn	2, 0x6e65
 504:	0076                	.insn	2, 0x0076
 506:	2db4                	.insn	2, 0x2db4
 508:	0310                	.insn	2, 0x0310
 50a:	0000                	.insn	2, 0x
 50c:	9102                	.insn	2, 0x9102
 50e:	0064                	.insn	2, 0x0064
 510:	0d16                	.insn	2, 0x0d16
 512:	01000003          	lb	zero,16(zero) # 10 <start+0x10>
 516:	05ae                	.insn	2, 0x05ae
 518:	0076                	.insn	2, 0x0076
 51a:	0000                	.insn	2, 0x
 51c:	04f0                	.insn	2, 0x04f0
 51e:	0000                	.insn	2, 0x
 520:	0038                	.insn	2, 0x0038
 522:	0000                	.insn	2, 0x
 524:	9c01                	.insn	2, 0x9c01
 526:	00028707          	.insn	4, 0x00028707
 52a:	a800                	.insn	2, 0xa800
 52c:	7605                	.insn	2, 0x7605
 52e:	0000                	.insn	2, 0x
 530:	b000                	.insn	2, 0xb000
 532:	0004                	.insn	2, 0x0004
 534:	4000                	.insn	2, 0x4000
 536:	0000                	.insn	2, 0x
 538:	0100                	.insn	2, 0x0100
 53a:	319c                	.insn	2, 0x319c
 53c:	0004                	.insn	2, 0x0004
 53e:	0400                	.insn	2, 0x0400
 540:	00646c6f          	jal	s8,46546 <_end+0x43a46>
 544:	11a8                	.insn	2, 0x11a8
 546:	0105                	.insn	2, 0x0105
 548:	0000                	.insn	2, 0x
 54a:	9102                	.insn	2, 0x9102
 54c:	046c                	.insn	2, 0x046c
 54e:	656e                	.insn	2, 0x656e
 550:	1ca80077          	.insn	4, 0x1ca80077
 554:	0105                	.insn	2, 0x0105
 556:	0000                	.insn	2, 0x
 558:	9102                	.insn	2, 0x9102
 55a:	0068                	.insn	2, 0x0068
 55c:	7606                	.insn	2, 0x7606
 55e:	0001                	.insn	2, 0x0001
 560:	a200                	.insn	2, 0xa200
 562:	0076                	.insn	2, 0x0076
 564:	0000                	.insn	2, 0x
 566:	0474                	.insn	2, 0x0474
 568:	0000                	.insn	2, 0x
 56a:	003c                	.insn	2, 0x003c
 56c:	0000                	.insn	2, 0x
 56e:	9c01                	.insn	2, 0x9c01
 570:	0465                	.insn	2, 0x0465
 572:	0000                	.insn	2, 0x
 574:	0001a503          	lw	a0,0(gp) # 2f4 <_fstat+0x8>
 578:	a200                	.insn	2, 0xa200
 57a:	0511                	.insn	2, 0x0511
 57c:	0001                	.insn	2, 0x0001
 57e:	0200                	.insn	2, 0x0200
 580:	6c91                	.insn	2, 0x6c91
 582:	7304                	.insn	2, 0x7304
 584:	0074                	.insn	2, 0x0074
 586:	24a2                	.insn	2, 0x24a2
 588:	0465                	.insn	2, 0x0465
 58a:	0000                	.insn	2, 0x
 58c:	9102                	.insn	2, 0x9102
 58e:	0068                	.insn	2, 0x0068
 590:	bc08                	.insn	2, 0xbc08
 592:	0001                	.insn	2, 0x0001
 594:	0600                	.insn	2, 0x0600
 596:	020e                	.insn	2, 0x020e
 598:	0000                	.insn	2, 0x
 59a:	769d                	.insn	2, 0x769d
 59c:	0000                	.insn	2, 0x
 59e:	4800                	.insn	2, 0x4800
 5a0:	0004                	.insn	2, 0x0004
 5a2:	2c00                	.insn	2, 0x2c00
 5a4:	0000                	.insn	2, 0x
 5a6:	0100                	.insn	2, 0x0100
 5a8:	919c                	.insn	2, 0x919c
 5aa:	0004                	.insn	2, 0x0004
 5ac:	0400                	.insn	2, 0x0400
 5ae:	7562                	.insn	2, 0x7562
 5b0:	0066                	.insn	2, 0x0066
 5b2:	189d                	.insn	2, 0x189d
 5b4:	0491                	.insn	2, 0x0491
 5b6:	0000                	.insn	2, 0x
 5b8:	9102                	.insn	2, 0x9102
 5ba:	006c                	.insn	2, 0x006c
 5bc:	8f08                	.insn	2, 0x8f08
 5be:	0002                	.insn	2, 0x0002
 5c0:	0700                	.insn	2, 0x0700
 5c2:	00000353          	.insn	4, 0x0353
 5c6:	00760597          	auipc	a1,0x760
 5ca:	0000                	.insn	2, 0x
 5cc:	040c                	.insn	2, 0x040c
 5ce:	0000                	.insn	2, 0x
 5d0:	003c                	.insn	2, 0x003c
 5d2:	0000                	.insn	2, 0x
 5d4:	9c01                	.insn	2, 0x9c01
 5d6:	04be                	.insn	2, 0x04be
 5d8:	0000                	.insn	2, 0x
 5da:	00022d03          	lw	s10,0(tp) # 2dc <_close+0x1c>
 5de:	9700                	.insn	2, 0x9700
 5e0:	00010513          	mv	a0,sp
 5e4:	0200                	.insn	2, 0x0200
 5e6:	6c91                	.insn	2, 0x6c91
 5e8:	0700                	.insn	2, 0x0700
 5ea:	0232                	.insn	2, 0x0232
 5ec:	0000                	.insn	2, 0x
 5ee:	0591                	.insn	2, 0x0591
 5f0:	0076                	.insn	2, 0x0076
 5f2:	0000                	.insn	2, 0x
 5f4:	03d0                	.insn	2, 0x03d0
 5f6:	0000                	.insn	2, 0x
 5f8:	003c                	.insn	2, 0x003c
 5fa:	0000                	.insn	2, 0x
 5fc:	9c01                	.insn	2, 0x9c01
 5fe:	04e6                	.insn	2, 0x04e6
 600:	0000                	.insn	2, 0x
 602:	00028d03          	lb	s10,0(t0) # 81c <memset+0xb4>
 606:	9100                	.insn	2, 0x9100
 608:	2110                	.insn	2, 0x2110
 60a:	02000003          	lb	zero,32(zero) # 20 <start+0x20>
 60e:	6c91                	.insn	2, 0x6c91
 610:	0600                	.insn	2, 0x0600
 612:	0268                	.insn	2, 0x0268
 614:	0000                	.insn	2, 0x
 616:	0000768b          	.insn	4, 0x768b
 61a:	8800                	.insn	2, 0x8800
 61c:	48000003          	lb	zero,1152(zero) # 480 <_stat+0xc>
 620:	0000                	.insn	2, 0x
 622:	0100                	.insn	2, 0x0100
 624:	1c9c                	.insn	2, 0x1c9c
 626:	0005                	.insn	2, 0x0005
 628:	0300                	.insn	2, 0x0300
 62a:	0000032b          	.insn	4, 0x032b
 62e:	0105118b          	.insn	4, 0x0105118b
 632:	0000                	.insn	2, 0x
 634:	9102                	.insn	2, 0x9102
 636:	034c                	.insn	2, 0x034c
 638:	0259                	.insn	2, 0x0259
 63a:	0000                	.insn	2, 0x
 63c:	00761b8b          	.insn	4, 0x00761b8b
 640:	0000                	.insn	2, 0x
 642:	9102                	.insn	2, 0x9102
 644:	1748                	.insn	2, 0x1748
 646:	0600                	.insn	2, 0x0600
 648:	0155                	.insn	2, 0x0155
 64a:	0000                	.insn	2, 0x
 64c:	7686                	.insn	2, 0x7686
 64e:	0000                	.insn	2, 0x
 650:	5400                	.insn	2, 0x5400
 652:	34000003          	lb	zero,832(zero) # 340 <_isatty+0x18>
 656:	0000                	.insn	2, 0x
 658:	0100                	.insn	2, 0x0100
 65a:	5f9c                	.insn	2, 0x5f9c
 65c:	0005                	.insn	2, 0x0005
 65e:	0300                	.insn	2, 0x0300
 660:	01a5                	.insn	2, 0x01a5
 662:	0000                	.insn	2, 0x
 664:	1086                	.insn	2, 0x1086
 666:	0076                	.insn	2, 0x0076
 668:	0000                	.insn	2, 0x
 66a:	9102                	.insn	2, 0x9102
 66c:	046c                	.insn	2, 0x046c
 66e:	7470                	.insn	2, 0x7470
 670:	0072                	.insn	2, 0x0072
 672:	1a86                	.insn	2, 0x1a86
 674:	0076                	.insn	2, 0x0076
 676:	0000                	.insn	2, 0x
 678:	9102                	.insn	2, 0x9102
 67a:	0468                	.insn	2, 0x0468
 67c:	6964                	.insn	2, 0x6964
 67e:	0072                	.insn	2, 0x0072
 680:	2386                	.insn	2, 0x2386
 682:	0076                	.insn	2, 0x0076
 684:	0000                	.insn	2, 0x
 686:	9102                	.insn	2, 0x9102
 688:	0064                	.insn	2, 0x0064
 68a:	bd06                	.insn	2, 0xbd06
 68c:	0002                	.insn	2, 0x0002
 68e:	8100                	.insn	2, 0x8100
 690:	0076                	.insn	2, 0x0076
 692:	0000                	.insn	2, 0x
 694:	0328                	.insn	2, 0x0328
 696:	0000                	.insn	2, 0x
 698:	002c                	.insn	2, 0x002c
 69a:	0000                	.insn	2, 0x
 69c:	9c01                	.insn	2, 0x9c01
 69e:	0586                	.insn	2, 0x0586
 6a0:	0000                	.insn	2, 0x
 6a2:	0001a503          	lw	a0,0(gp)
 6a6:	8100                	.insn	2, 0x8100
 6a8:	7611                	.insn	2, 0x7611
 6aa:	0000                	.insn	2, 0x
 6ac:	0200                	.insn	2, 0x0200
 6ae:	6c91                	.insn	2, 0x6c91
 6b0:	0600                	.insn	2, 0x0600
 6b2:	019e                	.insn	2, 0x019e
 6b4:	0000                	.insn	2, 0x
 6b6:	0000767b          	.insn	4, 0x767b
 6ba:	ec00                	.insn	2, 0xec00
 6bc:	0002                	.insn	2, 0x0002
 6be:	3c00                	.insn	2, 0x3c00
 6c0:	0000                	.insn	2, 0x
 6c2:	0100                	.insn	2, 0x0100
 6c4:	ba9c                	.insn	2, 0xba9c
 6c6:	0005                	.insn	2, 0x0005
 6c8:	0300                	.insn	2, 0x0300
 6ca:	01a5                	.insn	2, 0x01a5
 6cc:	0000                	.insn	2, 0x
 6ce:	0076107b          	.insn	4, 0x0076107b
 6d2:	0000                	.insn	2, 0x
 6d4:	9102                	.insn	2, 0x9102
 6d6:	046c                	.insn	2, 0x046c
 6d8:	7b007473          	.insn	4, 0x7b007473
 6dc:	00046523          	.insn	4, 0x00046523
 6e0:	0200                	.insn	2, 0x0200
 6e2:	6891                	.insn	2, 0x6891
 6e4:	0600                	.insn	2, 0x0600
 6e6:	0294                	.insn	2, 0x0294
 6e8:	0000                	.insn	2, 0x
 6ea:	7675                	.insn	2, 0x7675
 6ec:	0000                	.insn	2, 0x
 6ee:	c000                	.insn	2, 0xc000
 6f0:	0002                	.insn	2, 0x0002
 6f2:	2c00                	.insn	2, 0x2c00
 6f4:	0000                	.insn	2, 0x
 6f6:	0100                	.insn	2, 0x0100
 6f8:	e19c                	.insn	2, 0xe19c
 6fa:	0005                	.insn	2, 0x0005
 6fc:	0300                	.insn	2, 0x0300
 6fe:	01a5                	.insn	2, 0x01a5
 700:	0000                	.insn	2, 0x
 702:	1075                	.insn	2, 0x1075
 704:	0076                	.insn	2, 0x0076
 706:	0000                	.insn	2, 0x
 708:	9102                	.insn	2, 0x9102
 70a:	006c                	.insn	2, 0x006c
 70c:	00019007          	.insn	4, 0x00019007
 710:	6a00                	.insn	2, 0x6a00
 712:	7605                	.insn	2, 0x7605
 714:	0000                	.insn	2, 0x
 716:	5400                	.insn	2, 0x5400
 718:	0002                	.insn	2, 0x0002
 71a:	6c00                	.insn	2, 0x6c00
 71c:	0000                	.insn	2, 0x
 71e:	0100                	.insn	2, 0x0100
 720:	339c                	.insn	2, 0x339c
 722:	0006                	.insn	2, 0x0006
 724:	0300                	.insn	2, 0x0300
 726:	01a5                	.insn	2, 0x01a5
 728:	0000                	.insn	2, 0x
 72a:	106a                	.insn	2, 0x106a
 72c:	0076                	.insn	2, 0x0076
 72e:	0000                	.insn	2, 0x
 730:	9102                	.insn	2, 0x9102
 732:	045c                	.insn	2, 0x045c
 734:	7470                	.insn	2, 0x7470
 736:	0072                	.insn	2, 0x0072
 738:	1c6a                	.insn	2, 0x1c6a
 73a:	0105                	.insn	2, 0x0105
 73c:	0000                	.insn	2, 0x
 73e:	9102                	.insn	2, 0x9102
 740:	0458                	.insn	2, 0x0458
 742:	656c                	.insn	2, 0x656c
 744:	006e                	.insn	2, 0x006e
 746:	256a                	.insn	2, 0x256a
 748:	0076                	.insn	2, 0x0076
 74a:	0000                	.insn	2, 0x
 74c:	9102                	.insn	2, 0x9102
 74e:	0954                	.insn	2, 0x0954
 750:	0305                	.insn	2, 0x0305
 752:	0000                	.insn	2, 0x
 754:	066c                	.insn	2, 0x066c
 756:	0076                	.insn	2, 0x0076
 758:	0000                	.insn	2, 0x
 75a:	9102                	.insn	2, 0x9102
 75c:	006c                	.insn	2, 0x006c
 75e:	4b06                	.insn	2, 0x4b06
 760:	0002                	.insn	2, 0x0002
 762:	6300                	.insn	2, 0x6300
 764:	0076                	.insn	2, 0x0076
 766:	0000                	.insn	2, 0x
 768:	0220                	.insn	2, 0x0220
 76a:	0000                	.insn	2, 0x
 76c:	0034                	.insn	2, 0x0034
 76e:	0000                	.insn	2, 0x
 770:	9c01                	.insn	2, 0x9c01
 772:	0682                	.insn	2, 0x0682
 774:	0000                	.insn	2, 0x
 776:	0001a503          	lw	a0,0(gp)
 77a:	6300                	.insn	2, 0x6300
 77c:	0000760f          	.insn	4, 0x760f
 780:	0200                	.insn	2, 0x0200
 782:	6c91                	.insn	2, 0x6c91
 784:	7004                	.insn	2, 0x7004
 786:	7274                	.insn	2, 0x7274
 788:	6300                	.insn	2, 0x6300
 78a:	0001051b          	.insn	4, 0x0001051b
 78e:	0200                	.insn	2, 0x0200
 790:	6891                	.insn	2, 0x6891
 792:	6c04                	.insn	2, 0x6c04
 794:	6e65                	.insn	2, 0x6e65
 796:	6300                	.insn	2, 0x6300
 798:	7624                	.insn	2, 0x7624
 79a:	0000                	.insn	2, 0x
 79c:	0200                	.insn	2, 0x0200
 79e:	6491                	.insn	2, 0x6491
 7a0:	0518                	.insn	2, 0x0518
 7a2:	01000003          	lb	zero,16(zero) # 10 <start+0x10>
 7a6:	0665                	.insn	2, 0x0665
 7a8:	0076                	.insn	2, 0x0076
 7aa:	0000                	.insn	2, 0x
 7ac:	1900                	.insn	2, 0x1900
 7ae:	018a                	.insn	2, 0x018a
 7b0:	0000                	.insn	2, 0x
 7b2:	5d01                	.insn	2, 0x5d01
 7b4:	f806                	.insn	2, 0xf806
 7b6:	0001                	.insn	2, 0x0001
 7b8:	2800                	.insn	2, 0x2800
 7ba:	0000                	.insn	2, 0x
 7bc:	0100                	.insn	2, 0x0100
 7be:	a79c                	.insn	2, 0xa79c
 7c0:	0006                	.insn	2, 0x0006
 7c2:	0300                	.insn	2, 0x0300
 7c4:	028d                	.insn	2, 0x028d
 7c6:	0000                	.insn	2, 0x
 7c8:	115d                	.insn	2, 0x115d
 7ca:	0076                	.insn	2, 0x0076
 7cc:	0000                	.insn	2, 0x
 7ce:	9102                	.insn	2, 0x9102
 7d0:	006c                	.insn	2, 0x006c
 7d2:	0001aa07          	.insn	4, 0x0001aa07
 7d6:	5700                	.insn	2, 0x5700
 7d8:	7605                	.insn	2, 0x7605
 7da:	0000                	.insn	2, 0x
 7dc:	b800                	.insn	2, 0xb800
 7de:	0001                	.insn	2, 0x0001
 7e0:	4000                	.insn	2, 0x4000
 7e2:	0000                	.insn	2, 0x
 7e4:	0100                	.insn	2, 0x0100
 7e6:	dd9c                	.insn	2, 0xdd9c
 7e8:	0006                	.insn	2, 0x0006
 7ea:	0400                	.insn	2, 0x0400
 7ec:	6970                	.insn	2, 0x6970
 7ee:	0064                	.insn	2, 0x0064
 7f0:	00760f57          	.insn	4, 0x00760f57
 7f4:	0000                	.insn	2, 0x
 7f6:	9102                	.insn	2, 0x9102
 7f8:	046c                	.insn	2, 0x046c
 7fa:	00676973          	.insn	4, 0x00676973
 7fe:	00761857          	.insn	4, 0x00761857
 802:	0000                	.insn	2, 0x
 804:	9102                	.insn	2, 0x9102
 806:	0068                	.insn	2, 0x0068
 808:	131a                	.insn	2, 0x131a
 80a:	01000003          	lb	zero,16(zero) # 10 <start+0x10>
 80e:	0552                	.insn	2, 0x0552
 810:	0076                	.insn	2, 0x0076
 812:	0000                	.insn	2, 0x
 814:	0190                	.insn	2, 0x0190
 816:	0000                	.insn	2, 0x
 818:	0028                	.insn	2, 0x0028
 81a:	0000                	.insn	2, 0x
 81c:	9c01                	.insn	2, 0x9c01
 81e:	0001dd1b          	.insn	4, 0x0001dd1b
 822:	0100                	.insn	2, 0x0100
 824:	064e                	.insn	2, 0x064e
 826:	016c                	.insn	2, 0x016c
 828:	0000                	.insn	2, 0x
 82a:	0024                	.insn	2, 0x0024
 82c:	0000                	.insn	2, 0x
 82e:	9c01                	.insn	2, 0x9c01
 830:	f81c                	.insn	2, 0xf81c
 832:	0002                	.insn	2, 0x0002
 834:	0100                	.insn	2, 0x0100
 836:	00760547          	.insn	4, 0x00760547
 83a:	0000                	.insn	2, 0x
 83c:	0130                	.insn	2, 0x0130
 83e:	0000                	.insn	2, 0x
 840:	003c                	.insn	2, 0x003c
 842:	0000                	.insn	2, 0x
 844:	9c01                	.insn	2, 0x9c01
 846:	6304                	.insn	2, 0x6304
 848:	0068                	.insn	2, 0x0068
 84a:	00761647          	.insn	4, 0x00761647
 84e:	0000                	.insn	2, 0x
 850:	9102                	.insn	2, 0x9102
 852:	006c                	.insn	2, 0x006c
 854:	7f00                	.insn	2, 0x7f00
 856:	0001                	.insn	2, 0x0001
 858:	0500                	.insn	2, 0x0500
 85a:	0100                	.insn	2, 0x0100
 85c:	8e04                	.insn	2, 0x8e04
 85e:	0002                	.insn	2, 0x0002
 860:	0500                	.insn	2, 0x0500
 862:	00df 0000 831d      	.insn	6, 0x831d000000df
 868:	0001                	.insn	2, 0x0001
 86a:	0000                	.insn	2, 0x
 86c:	0000                	.insn	2, 0x
 86e:	f800                	.insn	2, 0xf800
 870:	0005                	.insn	2, 0x0005
 872:	7000                	.insn	2, 0x7000
 874:	0001                	.insn	2, 0x0001
 876:	1300                	.insn	2, 0x1300
 878:	0005                	.insn	2, 0x0005
 87a:	0100                	.insn	2, 0x0100
 87c:	0601                	.insn	2, 0x0601
 87e:	0070                	.insn	2, 0x0070
 880:	0000                	.insn	2, 0x
 882:	5b02                	.insn	2, 0x5b02
 884:	0000                	.insn	2, 0x
 886:	0200                	.insn	2, 0x0200
 888:	0039182b          	.insn	4, 0x0039182b
 88c:	0000                	.insn	2, 0x
 88e:	0101                	.insn	2, 0x0101
 890:	6e08                	.insn	2, 0x6e08
 892:	0000                	.insn	2, 0x
 894:	0100                	.insn	2, 0x0100
 896:	0502                	.insn	2, 0x0502
 898:	00d5                	.insn	2, 0x00d5
 89a:	0000                	.insn	2, 0x
 89c:	a002                	.insn	2, 0xa002
 89e:	02000003          	lb	zero,32(zero) # 20 <start+0x20>
 8a2:	1939                	.insn	2, 0x1939
 8a4:	00000053          	.insn	4, 0x0053
 8a8:	0201                	.insn	2, 0x0201
 8aa:	00008307          	.insn	4, 0x8307
 8ae:	0100                	.insn	2, 0x0100
 8b0:	0504                	.insn	2, 0x0504
 8b2:	000000c3          	.insn	4, 0x00c3
 8b6:	9602                	.insn	2, 0x9602
 8b8:	0000                	.insn	2, 0x
 8ba:	0200                	.insn	2, 0x0200
 8bc:	006d194f          	.insn	4, 0x006d194f
 8c0:	0000                	.insn	2, 0x
 8c2:	0401                	.insn	2, 0x0401
 8c4:	0000ac07          	.insn	4, 0xac07
 8c8:	0100                	.insn	2, 0x0100
 8ca:	0508                	.insn	2, 0x0508
 8cc:	00be                	.insn	2, 0x00be
 8ce:	0000                	.insn	2, 0x
 8d0:	0801                	.insn	2, 0x0801
 8d2:	0000a707          	.insn	4, 0xa707
 8d6:	0600                	.insn	2, 0x0600
 8d8:	0504                	.insn	2, 0x0504
 8da:	6e69                	.insn	2, 0x6e69
 8dc:	0074                	.insn	2, 0x0074
 8de:	0401                	.insn	2, 0x0401
 8e0:	0000b107          	.insn	4, 0xb107
 8e4:	0200                	.insn	2, 0x0200
 8e6:	005d                	.insn	2, 0x005d
 8e8:	0000                	.insn	2, 0x
 8ea:	2d131803          	lh	a6,721(t1)
 8ee:	0000                	.insn	2, 0x
 8f0:	0200                	.insn	2, 0x0200
 8f2:	03a2                	.insn	2, 0x03a2
 8f4:	0000                	.insn	2, 0x
 8f6:	47142403          	lw	s0,1137(s0)
 8fa:	0000                	.insn	2, 0x
 8fc:	0200                	.insn	2, 0x0200
 8fe:	0098                	.insn	2, 0x0098
 900:	0000                	.insn	2, 0x
 902:	61143003          	.insn	4, 0x61143003
 906:	0000                	.insn	2, 0x
 908:	0100                	.insn	2, 0x0100
 90a:	0410                	.insn	2, 0x0410
 90c:	0238                	.insn	2, 0x0238
 90e:	0000                	.insn	2, 0x
 910:	0101                	.insn	2, 0x0101
 912:	7708                	.insn	2, 0x7708
 914:	0000                	.insn	2, 0x
 916:	0700                	.insn	2, 0x0700
 918:	000000bb          	.insn	4, 0x00bb
 91c:	0408                	.insn	2, 0x0408
 91e:	00c2                	.insn	2, 0x00c2
 920:	0000                	.insn	2, 0x
 922:	8109                	.insn	2, 0x8109
 924:	01000003          	lb	zero,16(zero) # 10 <start+0x10>
 928:	051f 0082 0000      	.insn	6, 0x0082051f
 92e:	06f8                	.insn	2, 0x06f8
 930:	0000                	.insn	2, 0x
 932:	0070                	.insn	2, 0x0070
 934:	0000                	.insn	2, 0x
 936:	9c01                	.insn	2, 0x9c01
 938:	010e                	.insn	2, 0x010e
 93a:	0000                	.insn	2, 0x
 93c:	ab0a                	.insn	2, 0xab0a
 93e:	01000003          	lb	zero,16(zero) # 10 <start+0x10>
 942:	0a21                	.insn	2, 0x0a21
 944:	0090                	.insn	2, 0x0090
 946:	0000                	.insn	2, 0x
 948:	9102                	.insn	2, 0x9102
 94a:	07340b6f          	jal	s6,411bc <_end+0x3e6bc>
 94e:	0000                	.insn	2, 0x
 950:	0024                	.insn	2, 0x0024
 952:	0000                	.insn	2, 0x
 954:	690c                	.insn	2, 0x690c
 956:	0100                	.insn	2, 0x0100
 958:	1025                	.insn	2, 0x1025
 95a:	00a8                	.insn	2, 0x00a8
 95c:	0000                	.insn	2, 0x
 95e:	9102                	.insn	2, 0x9102
 960:	0068                	.insn	2, 0x0068
 962:	0400                	.insn	2, 0x0400
 964:	0386                	.insn	2, 0x0386
 966:	0000                	.insn	2, 0x
 968:	0006a817          	auipc	a6,0x6a
 96c:	5000                	.insn	2, 0x5000
 96e:	0000                	.insn	2, 0x
 970:	0100                	.insn	2, 0x0100
 972:	319c                	.insn	2, 0x319c
 974:	0001                	.insn	2, 0x0001
 976:	0300                	.insn	2, 0x0300
 978:	00727473          	.insn	4, 0x00727473
 97c:	00c71f17          	auipc	t5,0xc71
 980:	0000                	.insn	2, 0x
 982:	9102                	.insn	2, 0x9102
 984:	006c                	.insn	2, 0x006c
 986:	9304                	.insn	2, 0x9304
 988:	11000003          	lb	zero,272(zero) # 110 <ram_init+0x80>
 98c:	064c                	.insn	2, 0x064c
 98e:	0000                	.insn	2, 0x
 990:	005c                	.insn	2, 0x005c
 992:	0000                	.insn	2, 0x
 994:	9c01                	.insn	2, 0x9c01
 996:	00000163          	beqz	zero,998 <__fp_lock+0x38>
 99a:	72747303          	.insn	4, 0x72747303
 99e:	1100                	.insn	2, 0x1100
 9a0:	c71f 0000 0200      	.insn	6, 0x02000000c71f
 9a6:	6c91                	.insn	2, 0x6c91
 9a8:	990d                	.insn	2, 0x990d
 9aa:	01000003          	lb	zero,16(zero) # 10 <start+0x10>
 9ae:	2d11                	.insn	2, 0x2d11
 9b0:	009c                	.insn	2, 0x009c
 9b2:	0000                	.insn	2, 0x
 9b4:	9102                	.insn	2, 0x9102
 9b6:	006a                	.insn	2, 0x006a
 9b8:	760e                	.insn	2, 0x760e
 9ba:	01000003          	lb	zero,16(zero) # 10 <start+0x10>
 9be:	060a                	.insn	2, 0x060a
 9c0:	05f8                	.insn	2, 0x05f8
 9c2:	0000                	.insn	2, 0x
 9c4:	0054                	.insn	2, 0x0054
 9c6:	0000                	.insn	2, 0x
 9c8:	9c01                	.insn	2, 0x9c01
 9ca:	0a006303          	.insn	4, 0x0a006303
 9ce:	bb16                	.insn	2, 0xbb16
 9d0:	0000                	.insn	2, 0x
 9d2:	0200                	.insn	2, 0x0200
 9d4:	6f91                	.insn	2, 0x6f91
	...

Disassembly of section .debug_abbrev:

00000000 <.debug_abbrev>:
   0:	1101                	.insn	2, 0x1101
   2:	1000                	.insn	2, 0x1000
   4:	12011117          	auipc	sp,0x12011
   8:	1b0e030f          	.insn	4, 0x1b0e030f
   c:	250e                	.insn	2, 0x250e
   e:	130e                	.insn	2, 0x130e
  10:	0005                	.insn	2, 0x0005
  12:	0000                	.insn	2, 0x
  14:	2401                	.insn	2, 0x2401
  16:	0b00                	.insn	2, 0x0b00
  18:	030b3e0b          	.insn	4, 0x030b3e0b
  1c:	000e                	.insn	2, 0x000e
  1e:	0200                	.insn	2, 0x0200
  20:	0034                	.insn	2, 0x0034
  22:	213a0e03          	lb	t3,531(s4)
  26:	3b01                	.insn	2, 0x3b01
  28:	1121390b          	.insn	4, 0x1121390b
  2c:	1349                	.insn	2, 0x1349
  2e:	193c193f 16030000 	.insn	8, 0x16030000193c193f
  36:	0300                	.insn	2, 0x0300
  38:	3a0e                	.insn	2, 0x3a0e
  3a:	390b3b0b          	.insn	4, 0x390b3b0b
  3e:	0013490b          	.insn	4, 0x0013490b
  42:	0400                	.insn	2, 0x0400
  44:	0034                	.insn	2, 0x0034
  46:	213a0803          	lb	a6,531(s4)
  4a:	3b01                	.insn	2, 0x3b01
  4c:	0e21390b          	.insn	4, 0x0e21390b
  50:	1349                	.insn	2, 0x1349
  52:	1802                	.insn	2, 0x1802
  54:	0000                	.insn	2, 0x
  56:	1105                	.insn	2, 0x1105
  58:	2501                	.insn	2, 0x2501
  5a:	130e                	.insn	2, 0x130e
  5c:	1b1f030b          	.insn	4, 0x1b1f030b
  60:	111f 1201 1006      	.insn	6, 0x10061201111f
  66:	06000017          	auipc	zero,0x6000
  6a:	0024                	.insn	2, 0x0024
  6c:	0b3e0b0b          	.insn	4, 0x0b3e0b0b
  70:	00000803          	lb	a6,0(zero) # 0 <start>
  74:	3f012e07          	.insn	4, 0x3f012e07
  78:	0319                	.insn	2, 0x0319
  7a:	3a0e                	.insn	2, 0x3a0e
  7c:	390b3b0b          	.insn	4, 0x390b3b0b
  80:	1201110b          	.insn	4, 0x1201110b
  84:	4006                	.insn	2, 0x4006
  86:	7a18                	.insn	2, 0x7a18
  88:	0119                	.insn	2, 0x0119
  8a:	08000013          	li	zero,128
  8e:	0b0b000f          	.insn	4, 0x0b0b000f
  92:	1349                	.insn	2, 0x1349
  94:	0000                	.insn	2, 0x
  96:	0100                	.insn	2, 0x0100
  98:	0016                	.insn	2, 0x0016
  9a:	0b3a0e03          	lb	t3,179(s4)
  9e:	0b390b3b          	.insn	4, 0x0b390b3b
  a2:	1349                	.insn	2, 0x1349
  a4:	0000                	.insn	2, 0x
  a6:	0d02                	.insn	2, 0x0d02
  a8:	0300                	.insn	2, 0x0300
  aa:	3a0e                	.insn	2, 0x3a0e
  ac:	390b3b0b          	.insn	4, 0x390b3b0b
  b0:	3813490b          	.insn	4, 0x3813490b
  b4:	0300000b          	.insn	4, 0x0300000b
  b8:	0005                	.insn	2, 0x0005
  ba:	213a0e03          	lb	t3,531(s4)
  be:	3b01                	.insn	2, 0x3b01
  c0:	490b390b          	.insn	4, 0x490b390b
  c4:	00180213          	addi	tp,a6,1 # 6a969 <_end+0x67e69>
  c8:	0400                	.insn	2, 0x0400
  ca:	0005                	.insn	2, 0x0005
  cc:	213a0803          	lb	a6,531(s4)
  d0:	3b01                	.insn	2, 0x3b01
  d2:	490b390b          	.insn	4, 0x490b390b
  d6:	00180213          	addi	tp,a6,1
  da:	0500                	.insn	2, 0x0500
  dc:	0024                	.insn	2, 0x0024
  de:	0b3e0b0b          	.insn	4, 0x0b3e0b0b
  e2:	00000e03          	lb	t3,0(zero) # 0 <start>
  e6:	2e06                	.insn	2, 0x2e06
  e8:	3f01                	.insn	2, 0x3f01
  ea:	0319                	.insn	2, 0x0319
  ec:	3a0e                	.insn	2, 0x3a0e
  ee:	0121                	.insn	2, 0x0121
  f0:	21390b3b          	.insn	4, 0x21390b3b
  f4:	2705                	.insn	2, 0x2705
  f6:	4919                	.insn	2, 0x4919
  f8:	12011113          	.insn	4, 0x12011113
  fc:	4006                	.insn	2, 0x4006
  fe:	7a18                	.insn	2, 0x7a18
 100:	0119                	.insn	2, 0x0119
 102:	07000013          	li	zero,112
 106:	012e                	.insn	2, 0x012e
 108:	0e03193f 3b01213a 	.insn	8, 0x3b01213a0e03193f
 110:	270b390b          	.insn	4, 0x270b390b
 114:	4919                	.insn	2, 0x4919
 116:	12011113          	.insn	4, 0x12011113
 11a:	4006                	.insn	2, 0x4006
 11c:	7c18                	.insn	2, 0x7c18
 11e:	0119                	.insn	2, 0x0119
 120:	08000013          	li	zero,128
 124:	210b000f          	.insn	4, 0x210b000f
 128:	4904                	.insn	2, 0x4904
 12a:	09000013          	li	zero,144
 12e:	0034                	.insn	2, 0x0034
 130:	213a0e03          	lb	t3,531(s4)
 134:	3b01                	.insn	2, 0x3b01
 136:	490b390b          	.insn	4, 0x490b390b
 13a:	00180213          	addi	tp,a6,1
 13e:	0a00                	.insn	2, 0x0a00
 140:	0034                	.insn	2, 0x0034
 142:	213a0e03          	lb	t3,531(s4)
 146:	3b01                	.insn	2, 0x3b01
 148:	490b390b          	.insn	4, 0x490b390b
 14c:	02193f13          	sltiu	t5,s2,33
 150:	0018                	.insn	2, 0x0018
 152:	0b00                	.insn	2, 0x0b00
 154:	0e030113          	addi	sp,t1,224
 158:	0b3a0b0b          	.insn	4, 0x0b3a0b0b
 15c:	21390b3b          	.insn	4, 0x21390b3b
 160:	0108                	.insn	2, 0x0108
 162:	0c000013          	li	zero,192
 166:	0101                	.insn	2, 0x0101
 168:	1349                	.insn	2, 0x1349
 16a:	1301                	.insn	2, 0x1301
 16c:	0000                	.insn	2, 0x
 16e:	210d                	.insn	2, 0x210d
 170:	4900                	.insn	2, 0x4900
 172:	000b2f13          	slti	t5,s6,0
 176:	0e00                	.insn	2, 0x0e00
 178:	0034                	.insn	2, 0x0034
 17a:	213a0e03          	lb	t3,531(s4)
 17e:	3b01                	.insn	2, 0x3b01
 180:	1121390b          	.insn	4, 0x1121390b
 184:	1349                	.insn	2, 0x1349
 186:	193c193f 110f0000 	.insn	8, 0x110f0000193c193f
 18e:	2501                	.insn	2, 0x2501
 190:	130e                	.insn	2, 0x130e
 192:	1b1f030b          	.insn	4, 0x1b1f030b
 196:	111f 1201 1006      	.insn	6, 0x10061201111f
 19c:	10000017          	auipc	zero,0x10000
 1a0:	0024                	.insn	2, 0x0024
 1a2:	0b3e0b0b          	.insn	4, 0x0b3e0b0b
 1a6:	00000803          	lb	a6,0(zero) # 0 <start>
 1aa:	0f11                	.insn	2, 0x0f11
 1ac:	0b00                	.insn	2, 0x0b00
 1ae:	1200000b          	.insn	4, 0x1200000b
 1b2:	08030113          	addi	sp,t1,128
 1b6:	0b3a0b0b          	.insn	4, 0x0b3a0b0b
 1ba:	0b390b3b          	.insn	4, 0x0b390b3b
 1be:	1301                	.insn	2, 0x1301
 1c0:	0000                	.insn	2, 0x
 1c2:	3f002e13          	slti	t3,zero,1008
 1c6:	0319                	.insn	2, 0x0319
 1c8:	3a0e                	.insn	2, 0x3a0e
 1ca:	390b3b0b          	.insn	4, 0x390b3b0b
 1ce:	4919270b          	.insn	4, 0x4919270b
 1d2:	00193c13          	seqz	s8,s2
 1d6:	1400                	.insn	2, 0x1400
 1d8:	012e                	.insn	2, 0x012e
 1da:	0e03193f 0b3b0b3a 	.insn	8, 0x0b3b0b3a0e03193f
 1e2:	0b39                	.insn	2, 0x0b39
 1e4:	193c1927          	.insn	4, 0x193c1927
 1e8:	1301                	.insn	2, 0x1301
 1ea:	0000                	.insn	2, 0x
 1ec:	0515                	.insn	2, 0x0515
 1ee:	4900                	.insn	2, 0x4900
 1f0:	16000013          	li	zero,352
 1f4:	002e                	.insn	2, 0x002e
 1f6:	0e03193f 0b3b0b3a 	.insn	8, 0x0b3b0b3a0e03193f
 1fe:	0b39                	.insn	2, 0x0b39
 200:	13491927          	.insn	4, 0x13491927
 204:	0111                	.insn	2, 0x0111
 206:	0612                	.insn	2, 0x0612
 208:	1840                	.insn	2, 0x1840
 20a:	197c                	.insn	2, 0x197c
 20c:	0000                	.insn	2, 0x
 20e:	00001817          	auipc	a6,0x1
 212:	1800                	.insn	2, 0x1800
 214:	0034                	.insn	2, 0x0034
 216:	0b3a0e03          	lb	t3,179(s4)
 21a:	0b390b3b          	.insn	4, 0x0b390b3b
 21e:	1349                	.insn	2, 0x1349
 220:	0000                	.insn	2, 0x
 222:	2e19                	.insn	2, 0x2e19
 224:	3f01                	.insn	2, 0x3f01
 226:	0319                	.insn	2, 0x0319
 228:	3a0e                	.insn	2, 0x3a0e
 22a:	390b3b0b          	.insn	4, 0x390b3b0b
 22e:	8719270b          	.insn	4, 0x8719270b
 232:	1901                	.insn	2, 0x1901
 234:	0111                	.insn	2, 0x0111
 236:	0612                	.insn	2, 0x0612
 238:	1840                	.insn	2, 0x1840
 23a:	197c                	.insn	2, 0x197c
 23c:	1301                	.insn	2, 0x1301
 23e:	0000                	.insn	2, 0x
 240:	2e1a                	.insn	2, 0x2e1a
 242:	3f00                	.insn	2, 0x3f00
 244:	0319                	.insn	2, 0x0319
 246:	3a0e                	.insn	2, 0x3a0e
 248:	390b3b0b          	.insn	4, 0x390b3b0b
 24c:	4919270b          	.insn	4, 0x4919270b
 250:	12011113          	.insn	4, 0x12011113
 254:	4006                	.insn	2, 0x4006
 256:	7a18                	.insn	2, 0x7a18
 258:	0019                	.insn	2, 0x0019
 25a:	1b00                	.insn	2, 0x1b00
 25c:	002e                	.insn	2, 0x002e
 25e:	0e03193f 0b3b0b3a 	.insn	8, 0x0b3b0b3a0e03193f
 266:	0b39                	.insn	2, 0x0b39
 268:	0111                	.insn	2, 0x0111
 26a:	0612                	.insn	2, 0x0612
 26c:	1840                	.insn	2, 0x1840
 26e:	197a                	.insn	2, 0x197a
 270:	0000                	.insn	2, 0x
 272:	2e1c                	.insn	2, 0x2e1c
 274:	3f01                	.insn	2, 0x3f01
 276:	0319                	.insn	2, 0x0319
 278:	3a0e                	.insn	2, 0x3a0e
 27a:	390b3b0b          	.insn	4, 0x390b3b0b
 27e:	4919270b          	.insn	4, 0x4919270b
 282:	12011113          	.insn	4, 0x12011113
 286:	4006                	.insn	2, 0x4006
 288:	7c18                	.insn	2, 0x7c18
 28a:	0019                	.insn	2, 0x0019
 28c:	0000                	.insn	2, 0x
 28e:	2401                	.insn	2, 0x2401
 290:	0b00                	.insn	2, 0x0b00
 292:	030b3e0b          	.insn	4, 0x030b3e0b
 296:	000e                	.insn	2, 0x000e
 298:	0200                	.insn	2, 0x0200
 29a:	0016                	.insn	2, 0x0016
 29c:	0b3a0e03          	lb	t3,179(s4)
 2a0:	0b390b3b          	.insn	4, 0x0b390b3b
 2a4:	1349                	.insn	2, 0x1349
 2a6:	0000                	.insn	2, 0x
 2a8:	03000503          	lb	a0,48(zero) # 30 <start+0x30>
 2ac:	3a08                	.insn	2, 0x3a08
 2ae:	0121                	.insn	2, 0x0121
 2b0:	0b390b3b          	.insn	4, 0x0b390b3b
 2b4:	1349                	.insn	2, 0x1349
 2b6:	1802                	.insn	2, 0x1802
 2b8:	0000                	.insn	2, 0x
 2ba:	2e04                	.insn	2, 0x2e04
 2bc:	3f01                	.insn	2, 0x3f01
 2be:	0319                	.insn	2, 0x0319
 2c0:	3a0e                	.insn	2, 0x3a0e
 2c2:	0121                	.insn	2, 0x0121
 2c4:	21390b3b          	.insn	4, 0x21390b3b
 2c8:	2706                	.insn	2, 0x2706
 2ca:	1119                	.insn	2, 0x1119
 2cc:	1201                	.insn	2, 0x1201
 2ce:	4006                	.insn	2, 0x4006
 2d0:	7c18                	.insn	2, 0x7c18
 2d2:	0119                	.insn	2, 0x0119
 2d4:	05000013          	li	zero,80
 2d8:	0111                	.insn	2, 0x0111
 2da:	0e25                	.insn	2, 0x0e25
 2dc:	1f030b13          	addi	s6,t1,496
 2e0:	01111f1b          	.insn	4, 0x01111f1b
 2e4:	0612                	.insn	2, 0x0612
 2e6:	1710                	.insn	2, 0x1710
 2e8:	0000                	.insn	2, 0x
 2ea:	2406                	.insn	2, 0x2406
 2ec:	0b00                	.insn	2, 0x0b00
 2ee:	030b3e0b          	.insn	4, 0x030b3e0b
 2f2:	0008                	.insn	2, 0x0008
 2f4:	0700                	.insn	2, 0x0700
 2f6:	0026                	.insn	2, 0x0026
 2f8:	1349                	.insn	2, 0x1349
 2fa:	0000                	.insn	2, 0x
 2fc:	0f08                	.insn	2, 0x0f08
 2fe:	0b00                	.insn	2, 0x0b00
 300:	0013490b          	.insn	4, 0x0013490b
 304:	0900                	.insn	2, 0x0900
 306:	012e                	.insn	2, 0x012e
 308:	0e03193f 0b3b0b3a 	.insn	8, 0x0b3b0b3a0e03193f
 310:	0b39                	.insn	2, 0x0b39
 312:	1349                	.insn	2, 0x1349
 314:	0111                	.insn	2, 0x0111
 316:	0612                	.insn	2, 0x0612
 318:	1840                	.insn	2, 0x1840
 31a:	197c                	.insn	2, 0x197c
 31c:	1301                	.insn	2, 0x1301
 31e:	0000                	.insn	2, 0x
 320:	340a                	.insn	2, 0x340a
 322:	0300                	.insn	2, 0x0300
 324:	3a0e                	.insn	2, 0x3a0e
 326:	390b3b0b          	.insn	4, 0x390b3b0b
 32a:	0213490b          	.insn	4, 0x0213490b
 32e:	0018                	.insn	2, 0x0018
 330:	0b00                	.insn	2, 0x0b00
 332:	0111010b          	.insn	4, 0x0111010b
 336:	0612                	.insn	2, 0x0612
 338:	0000                	.insn	2, 0x
 33a:	340c                	.insn	2, 0x340c
 33c:	0300                	.insn	2, 0x0300
 33e:	3a08                	.insn	2, 0x3a08
 340:	390b3b0b          	.insn	4, 0x390b3b0b
 344:	0213490b          	.insn	4, 0x0213490b
 348:	0018                	.insn	2, 0x0018
 34a:	0d00                	.insn	2, 0x0d00
 34c:	0005                	.insn	2, 0x0005
 34e:	0b3a0e03          	lb	t3,179(s4)
 352:	0b390b3b          	.insn	4, 0x0b390b3b
 356:	1349                	.insn	2, 0x1349
 358:	1802                	.insn	2, 0x1802
 35a:	0000                	.insn	2, 0x
 35c:	2e0e                	.insn	2, 0x2e0e
 35e:	3f01                	.insn	2, 0x3f01
 360:	0319                	.insn	2, 0x0319
 362:	3a0e                	.insn	2, 0x3a0e
 364:	390b3b0b          	.insn	4, 0x390b3b0b
 368:	1119270b          	.insn	4, 0x1119270b
 36c:	1201                	.insn	2, 0x1201
 36e:	4006                	.insn	2, 0x4006
 370:	7a18                	.insn	2, 0x7a18
 372:	0019                	.insn	2, 0x0019
	...

Disassembly of section .debug_aranges:

00000000 <.debug_aranges>:
   0:	001c                	.insn	2, 0x001c
   2:	0000                	.insn	2, 0x
   4:	0002                	.insn	2, 0x0002
   6:	0000                	.insn	2, 0x
   8:	0000                	.insn	2, 0x
   a:	0004                	.insn	2, 0x0004
	...
  14:	0090                	.insn	2, 0x0090
	...
  1e:	0000                	.insn	2, 0x
  20:	001c                	.insn	2, 0x001c
  22:	0000                	.insn	2, 0x
  24:	0002                	.insn	2, 0x0002
  26:	0025                	.insn	2, 0x0025
  28:	0000                	.insn	2, 0x
  2a:	0004                	.insn	2, 0x0004
  2c:	0000                	.insn	2, 0x
  2e:	0000                	.insn	2, 0x
  30:	0090                	.insn	2, 0x0090
  32:	0000                	.insn	2, 0x
  34:	00a0                	.insn	2, 0x00a0
	...
  3e:	0000                	.insn	2, 0x
  40:	001c                	.insn	2, 0x001c
  42:	0000                	.insn	2, 0x
  44:	0002                	.insn	2, 0x0002
  46:	0000012b          	.insn	4, 0x012b
  4a:	0004                	.insn	2, 0x0004
  4c:	0000                	.insn	2, 0x
  4e:	0000                	.insn	2, 0x
  50:	0130                	.insn	2, 0x0130
  52:	0000                	.insn	2, 0x
  54:	04c8                	.insn	2, 0x04c8
	...
  5e:	0000                	.insn	2, 0x
  60:	001c                	.insn	2, 0x001c
  62:	0000                	.insn	2, 0x
  64:	0002                	.insn	2, 0x0002
  66:	0855                	.insn	2, 0x0855
  68:	0000                	.insn	2, 0x
  6a:	0004                	.insn	2, 0x0004
  6c:	0000                	.insn	2, 0x
  6e:	0000                	.insn	2, 0x
  70:	05f8                	.insn	2, 0x05f8
  72:	0000                	.insn	2, 0x
  74:	0170                	.insn	2, 0x0170
	...

Disassembly of section .debug_str:

00000000 <.debug_str>:
   0:	6f62                	.insn	2, 0x6f62
   2:	532e746f          	jal	s0,e7534 <_end+0xe4a34>
   6:	2f00                	.insn	2, 0x2f00
   8:	6e6d                	.insn	2, 0x6e6d
   a:	2f74                	.insn	2, 0x2f74
   c:	73552f63          	.insn	4, 0x73552f63
  10:	7265                	.insn	2, 0x7265
  12:	656d2f73          	.insn	4, 0x656d2f73
  16:	7472                	.insn	2, 0x7472
  18:	2f61                	.insn	2, 0x2f61
  1a:	44656e4f          	.insn	4, 0x44656e4f
  1e:	6972                	.insn	2, 0x6972
  20:	6576                	.insn	2, 0x6576
  22:	636f442f          	.insn	4, 0x636f442f
  26:	6d75                	.insn	2, 0x6d75
  28:	6e65                	.insn	2, 0x6e65
  2a:	7374                	.insn	2, 0x7374
  2c:	726f772f          	.insn	4, 0x726f772f
  30:	6f68736b          	.insn	4, 0x6f68736b
  34:	5f70                	.insn	2, 0x5f70
  36:	726d                	.insn	2, 0x726d
  38:	7369                	.insn	2, 0x7369
  3a:	662f7663          	bgeu	t5,sp,6a6 <print_length+0x5a>
  3e:	7269                	.insn	2, 0x7269
  40:	776d                	.insn	2, 0x776d
  42:	7261                	.insn	2, 0x7261
  44:	0065                	.insn	2, 0x0065
  46:	20554e47          	.insn	4, 0x20554e47
  4a:	5341                	.insn	2, 0x5341
  4c:	3220                	.insn	2, 0x3220
  4e:	342e                	.insn	2, 0x342e
  50:	00312e33          	slt	t3,sp,gp
  54:	735f 6164 6174      	.insn	6, 0x61746164735f
  5a:	5f00                	.insn	2, 0x5f00
  5c:	755f 6e69 3874      	.insn	6, 0x38746e69755f
  62:	745f 7200 6d61      	.insn	6, 0x6d617200745f
  68:	695f 696e 0074      	.insn	6, 0x0074696e695f
  6e:	6e75                	.insn	2, 0x6e75
  70:	6e676973          	.insn	4, 0x6e676973
  74:	6465                	.insn	2, 0x6465
  76:	6320                	.insn	2, 0x6320
  78:	6168                	.insn	2, 0x6168
  7a:	0072                	.insn	2, 0x0072
  7c:	655f 6164 6174      	.insn	6, 0x61746164655f
  82:	7300                	.insn	2, 0x7300
  84:	6f68                	.insn	2, 0x6f68
  86:	7472                	.insn	2, 0x7472
  88:	7520                	.insn	2, 0x7520
  8a:	736e                	.insn	2, 0x736e
  8c:	6769                	.insn	2, 0x6769
  8e:	656e                	.insn	2, 0x656e
  90:	2064                	.insn	2, 0x2064
  92:	6e69                	.insn	2, 0x6e69
  94:	0074                	.insn	2, 0x0074
  96:	5f5f 6975 746e      	.insn	6, 0x746e69755f5f
  9c:	745f3233          	.insn	4, 0x745f3233
  a0:	5f00                	.insn	2, 0x5f00
  a2:	73736273          	.insn	4, 0x73736273
  a6:	6c00                	.insn	2, 0x6c00
  a8:	20676e6f          	jal	t3,762ae <_end+0x737ae>
  ac:	6f6c                	.insn	2, 0x6f6c
  ae:	676e                	.insn	2, 0x676e
  b0:	7520                	.insn	2, 0x7520
  b2:	736e                	.insn	2, 0x736e
  b4:	6769                	.insn	2, 0x6769
  b6:	656e                	.insn	2, 0x656e
  b8:	2064                	.insn	2, 0x2064
  ba:	6e69                	.insn	2, 0x6e69
  bc:	0074                	.insn	2, 0x0074
  be:	6f6c                	.insn	2, 0x6f6c
  c0:	676e                	.insn	2, 0x676e
  c2:	6c20                	.insn	2, 0x6c20
  c4:	20676e6f          	jal	t3,762ca <_end+0x737ca>
  c8:	6e69                	.insn	2, 0x6e69
  ca:	0074                	.insn	2, 0x0074
  cc:	6c5f 5f61 6164      	.insn	6, 0x61645f616c5f
  d2:	6174                	.insn	2, 0x6174
  d4:	7300                	.insn	2, 0x7300
  d6:	6f68                	.insn	2, 0x6f68
  d8:	7472                	.insn	2, 0x7472
  da:	6920                	.insn	2, 0x6920
  dc:	746e                	.insn	2, 0x746e
  de:	4700                	.insn	2, 0x4700
  e0:	554e                	.insn	2, 0x554e
  e2:	4320                	.insn	2, 0x4320
  e4:	3731                	.insn	2, 0x3731
  e6:	3120                	.insn	2, 0x3120
  e8:	2e34                	.insn	2, 0x2e34
  ea:	2e32                	.insn	2, 0x2e32
  ec:	2030                	.insn	2, 0x2030
  ee:	6d2d                	.insn	2, 0x6d2d
  f0:	6261                	.insn	2, 0x6261
  f2:	3d69                	.insn	2, 0x3d69
  f4:	6c69                	.insn	2, 0x6c69
  f6:	3370                	.insn	2, 0x3370
  f8:	2032                	.insn	2, 0x2032
  fa:	6d2d                	.insn	2, 0x6d2d
  fc:	7369                	.insn	2, 0x7369
  fe:	2d61                	.insn	2, 0x2d61
 100:	63657073          	.insn	4, 0x63657073
 104:	323d                	.insn	2, 0x323d
 106:	3130                	.insn	2, 0x3130
 108:	3139                	.insn	2, 0x3139
 10a:	3132                	.insn	2, 0x3132
 10c:	6d2d2033          	.insn	4, 0x6d2d2033
 110:	7261                	.insn	2, 0x7261
 112:	723d6863          	bltu	s10,gp,842 <memset+0xda>
 116:	3376                	.insn	2, 0x3376
 118:	6932                	.insn	2, 0x6932
 11a:	2d20                	.insn	2, 0x2d20
 11c:	4f2d2067          	.insn	4, 0x4f2d2067
 120:	0030                	.insn	2, 0x0030
 122:	735f 7362 5f73      	.insn	6, 0x5f737362735f
 128:	6e65                	.insn	2, 0x6e65
 12a:	0064                	.insn	2, 0x0064
 12c:	63617473          	.insn	4, 0x63617473
 130:	696c5f6b          	.insn	4, 0x696c5f6b
 134:	696d                	.insn	2, 0x696d
 136:	0074                	.insn	2, 0x0074
 138:	725f7473          	.insn	4, 0x725f7473
 13c:	6564                	.insn	2, 0x6564
 13e:	0076                	.insn	2, 0x0076
 140:	636f6c63          	bltu	t5,s6,778 <memset+0x10>
 144:	00745f6b          	.insn	4, 0x00745f6b
 148:	6e65                	.insn	2, 0x6e65
 14a:	6976                	.insn	2, 0x6976
 14c:	6f72                	.insn	2, 0x6f72
 14e:	006e                	.insn	2, 0x006e
 150:	6e69                	.insn	2, 0x6e69
 152:	5f007263          	bgeu	zero,a6,736 <main+0x3e>
 156:	736c                	.insn	2, 0x736c
 158:	6565                	.insn	2, 0x6565
 15a:	6d74006b          	.insn	4, 0x6d74006b
 15e:	75635f73          	.insn	4, 0x75635f73
 162:	6974                	.insn	2, 0x6974
 164:	656d                	.insn	2, 0x656d
 166:	5f00                	.insn	2, 0x5f00
 168:	7865                	.insn	2, 0x7865
 16a:	6365                	.insn	2, 0x6365
 16c:	6576                	.insn	2, 0x6576
 16e:	7400                	.insn	2, 0x7400
 170:	5f76                	.insn	2, 0x5f76
 172:	00636573          	.insn	4, 0x00636573
 176:	735f 6174 0074      	.insn	6, 0x00746174735f
 17c:	635f7473          	.insn	4, 0x635f7473
 180:	6974                	.insn	2, 0x6974
 182:	006d                	.insn	2, 0x006d
 184:	5f5f 6e65 0076      	.insn	6, 0x00766e655f5f
 18a:	655f 6978 0074      	.insn	6, 0x00746978655f
 190:	775f 6972 6574      	.insn	6, 0x65746972775f
 196:	7300                	.insn	2, 0x7300
 198:	5f74                	.insn	2, 0x5f74
 19a:	6564                	.insn	2, 0x6564
 19c:	0076                	.insn	2, 0x0076
 19e:	665f 7473 7461      	.insn	6, 0x74617473665f
 1a4:	6600                	.insn	2, 0x6600
 1a6:	6c69                	.insn	2, 0x6c69
 1a8:	0065                	.insn	2, 0x0065
 1aa:	6b5f 6c69 006c      	.insn	6, 0x006c6c696b5f
 1b0:	6974                	.insn	2, 0x6974
 1b2:	656d                	.insn	2, 0x656d
 1b4:	745f 7400 736d      	.insn	6, 0x736d7400745f
 1ba:	635f 7473 6d69      	.insn	6, 0x6d697473635f
 1c0:	0065                	.insn	2, 0x0065
 1c2:	5f5f 6e69 5f74      	.insn	6, 0x5f746e695f5f
 1c8:	656c                	.insn	2, 0x656c
 1ca:	7361                	.insn	2, 0x7361
 1cc:	3674                	.insn	2, 0x3674
 1ce:	5f34                	.insn	2, 0x5f34
 1d0:	0074                	.insn	2, 0x0074
 1d2:	625f7473          	.insn	4, 0x625f7473
 1d6:	6b6c                	.insn	2, 0x6b6c
 1d8:	657a6973          	.insn	4, 0x657a6973
 1dc:	6900                	.insn	2, 0x6900
 1de:	696e                	.insn	2, 0x696e
 1e0:	6974                	.insn	2, 0x6974
 1e2:	6c61                	.insn	2, 0x6c61
 1e4:	7369                	.insn	2, 0x7369
 1e6:	5f65                	.insn	2, 0x5f65
 1e8:	6f6d                	.insn	2, 0x6f6d
 1ea:	696e                	.insn	2, 0x696e
 1ec:	6f74                	.insn	2, 0x6f74
 1ee:	5f72                	.insn	2, 0x5f72
 1f0:	6168                	.insn	2, 0x6168
 1f2:	646e                	.insn	2, 0x646e
 1f4:	656c                	.insn	2, 0x656c
 1f6:	74730073          	.insn	4, 0x74730073
 1fa:	675f 6469 5f00      	.insn	6, 0x5f006469675f
 200:	6d5f 646f 5f65      	.insn	6, 0x5f65646f6d5f
 206:	0074                	.insn	2, 0x0074
 208:	735f 7262 006b      	.insn	6, 0x006b7262735f
 20e:	745f 6d69 7365      	.insn	6, 0x73656d69745f
 214:	5f00                	.insn	2, 0x5f00
 216:	6e5f 696c 6b6e      	.insn	6, 0x6b6e696c6e5f
 21c:	745f 5f00 7473      	.insn	6, 0x74735f00745f
 222:	6361                	.insn	2, 0x6361
 224:	6f625f6b          	.insn	4, 0x6f625f6b
 228:	7474                	.insn	2, 0x7474
 22a:	6e006d6f          	jal	s10,690a <_end+0x3e0a>
 22e:	6d61                	.insn	2, 0x6d61
 230:	0065                	.insn	2, 0x0065
 232:	775f 6961 0074      	.insn	6, 0x00746961775f
 238:	6f6c                	.insn	2, 0x6f6c
 23a:	676e                	.insn	2, 0x676e
 23c:	6420                	.insn	2, 0x6420
 23e:	6c62756f          	jal	a0,27904 <_end+0x24e04>
 242:	0065                	.insn	2, 0x0065
 244:	695f7473          	.insn	4, 0x695f7473
 248:	6f6e                	.insn	2, 0x6f6e
 24a:	5f00                	.insn	2, 0x5f00
 24c:	6572                	.insn	2, 0x6572
 24e:	6461                	.insn	2, 0x6461
 250:	7400                	.insn	2, 0x7400
 252:	5f76                	.insn	2, 0x5f76
 254:	736e                	.insn	2, 0x736e
 256:	6365                	.insn	2, 0x6365
 258:	6600                	.insn	2, 0x6600
 25a:	616c                	.insn	2, 0x616c
 25c:	73007367          	.insn	4, 0x73007367
 260:	5f74                	.insn	2, 0x5f74
 262:	6c6e                	.insn	2, 0x6c6e
 264:	6e69                	.insn	2, 0x6e69
 266:	6f5f006b          	.insn	4, 0x6f5f006b
 26a:	6570                	.insn	2, 0x6570
 26c:	006e                	.insn	2, 0x006e
 26e:	7261                	.insn	2, 0x7261
 270:	5f007667          	.insn	4, 0x5f007667
 274:	625f 6b6c 6973      	.insn	6, 0x69736b6c625f
 27a:	657a                	.insn	2, 0x657a
 27c:	745f 7300 5f74      	.insn	6, 0x5f747300745f
 282:	7461                	.insn	2, 0x7461
 284:	6d69                	.insn	2, 0x6d69
 286:	5f00                	.insn	2, 0x5f00
 288:	696c                	.insn	2, 0x696c
 28a:	6b6e                	.insn	2, 0x6b6e
 28c:	7300                	.insn	2, 0x7300
 28e:	6174                	.insn	2, 0x6174
 290:	7574                	.insn	2, 0x7574
 292:	635f0073          	.insn	4, 0x635f0073
 296:	6f6c                	.insn	2, 0x6f6c
 298:	73006573          	.insn	4, 0x73006573
 29c:	6174                	.insn	2, 0x6174
 29e:	705f6b63          	bltu	t5,t0,9b4 <__fp_unlock+0x14>
 2a2:	7274                	.insn	2, 0x7274
 2a4:	7000                	.insn	2, 0x7000
 2a6:	6572                	.insn	2, 0x6572
 2a8:	5f76                	.insn	2, 0x5f76
 2aa:	6568                	.insn	2, 0x6568
 2ac:	7061                	.insn	2, 0x7061
 2ae:	655f 646e 7300      	.insn	6, 0x7300646e655f
 2b4:	5f74                	.insn	2, 0x5f74
 2b6:	6c62                	.insn	2, 0x6c62
 2b8:	736b636f          	jal	t1,b69ee <_end+0xb3eee>
 2bc:	5f00                	.insn	2, 0x5f00
 2be:	7369                	.insn	2, 0x7369
 2c0:	7461                	.insn	2, 0x7461
 2c2:	7974                	.insn	2, 0x7974
 2c4:	7300                	.insn	2, 0x7300
 2c6:	5f74                	.insn	2, 0x5f74
 2c8:	746d                	.insn	2, 0x746d
 2ca:	6d69                	.insn	2, 0x6d69
 2cc:	5f00                	.insn	2, 0x5f00
 2ce:	695f 6f6e 745f      	.insn	6, 0x745f6f6e695f
 2d4:	7400                	.insn	2, 0x7400
 2d6:	736d                	.insn	2, 0x736d
 2d8:	735f 6974 656d      	.insn	6, 0x656d6974735f
 2de:	7300                	.insn	2, 0x7300
 2e0:	5f74                	.insn	2, 0x5f74
 2e2:	6975                	.insn	2, 0x6975
 2e4:	0064                	.insn	2, 0x0064
 2e6:	735f7473          	.insn	4, 0x735f7473
 2ea:	7a69                	.insn	2, 0x7a69
 2ec:	0065                	.insn	2, 0x0065
 2ee:	735f7473          	.insn	4, 0x735f7473
 2f2:	6170                	.insn	2, 0x6170
 2f4:	6572                	.insn	2, 0x6572
 2f6:	0034                	.insn	2, 0x0034
 2f8:	5f5f 6f69 705f      	.insn	6, 0x705f6f695f5f
 2fe:	7475                	.insn	2, 0x7475
 300:	72616863          	bltu	sp,t1,a30 <global_stdio_init.part.0+0x50>
 304:	4400                	.insn	2, 0x4400
 306:	7461                	.insn	2, 0x7461
 308:	4961                	.insn	2, 0x4961
 30a:	7864                	.insn	2, 0x7864
 30c:	5f00                	.insn	2, 0x5f00
 30e:	6f66                	.insn	2, 0x6f66
 310:	6b72                	.insn	2, 0x6b72
 312:	5f00                	.insn	2, 0x5f00
 314:	70746567          	.insn	4, 0x70746567
 318:	6469                	.insn	2, 0x6469
 31a:	5f00                	.insn	2, 0x5f00
 31c:	645f 7665 745f      	.insn	6, 0x745f7665645f
 322:	5f00                	.insn	2, 0x5f00
 324:	6f5f 6666 745f      	.insn	6, 0x745f66666f5f
 32a:	7000                	.insn	2, 0x7000
 32c:	7461                	.insn	2, 0x7461
 32e:	0068                	.insn	2, 0x0068
 330:	6974                	.insn	2, 0x6974
 332:	656d                	.insn	2, 0x656d
 334:	63657073          	.insn	4, 0x63657073
 338:	5f00                	.insn	2, 0x5f00
 33a:	755f 6469 745f      	.insn	6, 0x745f6469755f
 340:	7300                	.insn	2, 0x7300
 342:	5f74                	.insn	2, 0x5f74
 344:	6f6d                	.insn	2, 0x6f6d
 346:	6564                	.insn	2, 0x6564
 348:	7400                	.insn	2, 0x7400
 34a:	736d                	.insn	2, 0x736d
 34c:	755f 6974 656d      	.insn	6, 0x656d6974755f
 352:	5f00                	.insn	2, 0x5f00
 354:	6e75                	.insn	2, 0x6e75
 356:	696c                	.insn	2, 0x696c
 358:	6b6e                	.insn	2, 0x6b6e
 35a:	5f00                	.insn	2, 0x5f00
 35c:	625f 6b6c 6e63      	.insn	6, 0x6e636b6c625f
 362:	5f74                	.insn	2, 0x5f74
 364:	0074                	.insn	2, 0x0074
 366:	5f5f 7265 6e72      	.insn	6, 0x6e7272655f5f
 36c:	5f5f006f          	j	f1160 <_end+0xee660>
 370:	5f646967          	.insn	4, 0x5f646967
 374:	0074                	.insn	2, 0x0074
 376:	7270                	.insn	2, 0x7270
 378:	6e69                	.insn	2, 0x6e69
 37a:	5f74                	.insn	2, 0x5f74
 37c:	72616863          	bltu	sp,t1,aac <global_stdio_init.part.0+0xcc>
 380:	6d00                	.insn	2, 0x6d00
 382:	6961                	.insn	2, 0x6961
 384:	006e                	.insn	2, 0x006e
 386:	7270                	.insn	2, 0x7270
 388:	6e69                	.insn	2, 0x6e69
 38a:	5f74                	.insn	2, 0x5f74
 38c:	69727473          	.insn	4, 0x69727473
 390:	676e                	.insn	2, 0x676e
 392:	7000                	.insn	2, 0x7000
 394:	6972                	.insn	2, 0x6972
 396:	746e                	.insn	2, 0x746e
 398:	6c5f 6e65 7467      	.insn	6, 0x74676e656c5f
 39e:	0068                	.insn	2, 0x0068
 3a0:	5f5f 6975 746e      	.insn	6, 0x746e69755f5f
 3a6:	3631                	.insn	2, 0x3631
 3a8:	745f 6300 756f      	.insn	6, 0x756f6300745f
 3ae:	746e                	.insn	2, 0x746e
	...

Disassembly of section .debug_frame:

00000000 <.debug_frame>:
   0:	000c                	.insn	2, 0x000c
   2:	0000                	.insn	2, 0x
   4:	ffff                	.insn	2, 0xffff
   6:	ffff                	.insn	2, 0xffff
   8:	7c010003          	lb	zero,1984(sp) # 120117c4 <_stack_top+0x200d7c4>
   c:	0c01                	.insn	2, 0x0c01
   e:	0002                	.insn	2, 0x0002
  10:	0024                	.insn	2, 0x0024
  12:	0000                	.insn	2, 0x
  14:	0000                	.insn	2, 0x
  16:	0000                	.insn	2, 0x
  18:	0090                	.insn	2, 0x0090
  1a:	0000                	.insn	2, 0x
  1c:	00a0                	.insn	2, 0x00a0
  1e:	0000                	.insn	2, 0x
  20:	0e44                	.insn	2, 0x0e44
  22:	4820                	.insn	2, 0x4820
  24:	0181                	.insn	2, 0x0181
  26:	0288                	.insn	2, 0x0288
  28:	0c44                	.insn	2, 0x0c44
  2a:	0008                	.insn	2, 0x0008
  2c:	8402                	.insn	2, 0x8402
  2e:	44c1                	.insn	2, 0x44c1
  30:	0cc8                	.insn	2, 0x0cc8
  32:	2002                	.insn	2, 0x2002
  34:	0e44                	.insn	2, 0x0e44
  36:	0000                	.insn	2, 0x
  38:	000c                	.insn	2, 0x000c
  3a:	0000                	.insn	2, 0x
  3c:	ffff                	.insn	2, 0xffff
  3e:	ffff                	.insn	2, 0xffff
  40:	7c010003          	lb	zero,1984(sp)
  44:	0c01                	.insn	2, 0x0c01
  46:	0002                	.insn	2, 0x0002
  48:	0024                	.insn	2, 0x0024
  4a:	0000                	.insn	2, 0x
  4c:	0038                	.insn	2, 0x0038
  4e:	0000                	.insn	2, 0x
  50:	0130                	.insn	2, 0x0130
  52:	0000                	.insn	2, 0x
  54:	003c                	.insn	2, 0x003c
  56:	0000                	.insn	2, 0x
  58:	0e44                	.insn	2, 0x0e44
  5a:	4820                	.insn	2, 0x4820
  5c:	0181                	.insn	2, 0x0181
  5e:	0288                	.insn	2, 0x0288
  60:	0c44                	.insn	2, 0x0c44
  62:	0008                	.insn	2, 0x0008
  64:	c160                	.insn	2, 0xc160
  66:	c844                	.insn	2, 0xc844
  68:	020c                	.insn	2, 0x020c
  6a:	4420                	.insn	2, 0x4420
  6c:	000e                	.insn	2, 0x000e
  6e:	0000                	.insn	2, 0x
  70:	0024                	.insn	2, 0x0024
  72:	0000                	.insn	2, 0x
  74:	0038                	.insn	2, 0x0038
  76:	0000                	.insn	2, 0x
  78:	016c                	.insn	2, 0x016c
  7a:	0000                	.insn	2, 0x
  7c:	0024                	.insn	2, 0x0024
  7e:	0000                	.insn	2, 0x
  80:	0e44                	.insn	2, 0x0e44
  82:	4810                	.insn	2, 0x4810
  84:	0181                	.insn	2, 0x0181
  86:	0288                	.insn	2, 0x0288
  88:	0c44                	.insn	2, 0x0c44
  8a:	0008                	.insn	2, 0x0008
  8c:	c148                	.insn	2, 0xc148
  8e:	c844                	.insn	2, 0xc844
  90:	020c                	.insn	2, 0x020c
  92:	4410                	.insn	2, 0x4410
  94:	000e                	.insn	2, 0x000e
  96:	0000                	.insn	2, 0x
  98:	0024                	.insn	2, 0x0024
  9a:	0000                	.insn	2, 0x
  9c:	0038                	.insn	2, 0x0038
  9e:	0000                	.insn	2, 0x
  a0:	0190                	.insn	2, 0x0190
  a2:	0000                	.insn	2, 0x
  a4:	0028                	.insn	2, 0x0028
  a6:	0000                	.insn	2, 0x
  a8:	0e44                	.insn	2, 0x0e44
  aa:	4810                	.insn	2, 0x4810
  ac:	0181                	.insn	2, 0x0181
  ae:	0288                	.insn	2, 0x0288
  b0:	0c44                	.insn	2, 0x0c44
  b2:	0008                	.insn	2, 0x0008
  b4:	c14c                	.insn	2, 0xc14c
  b6:	c844                	.insn	2, 0xc844
  b8:	020c                	.insn	2, 0x020c
  ba:	4410                	.insn	2, 0x4410
  bc:	000e                	.insn	2, 0x000e
  be:	0000                	.insn	2, 0x
  c0:	0024                	.insn	2, 0x0024
  c2:	0000                	.insn	2, 0x
  c4:	0038                	.insn	2, 0x0038
  c6:	0000                	.insn	2, 0x
  c8:	01b8                	.insn	2, 0x01b8
  ca:	0000                	.insn	2, 0x
  cc:	0040                	.insn	2, 0x0040
  ce:	0000                	.insn	2, 0x
  d0:	0e44                	.insn	2, 0x0e44
  d2:	4820                	.insn	2, 0x4820
  d4:	0181                	.insn	2, 0x0181
  d6:	0288                	.insn	2, 0x0288
  d8:	0c44                	.insn	2, 0x0c44
  da:	0008                	.insn	2, 0x0008
  dc:	c164                	.insn	2, 0xc164
  de:	c844                	.insn	2, 0xc844
  e0:	020c                	.insn	2, 0x020c
  e2:	4420                	.insn	2, 0x4420
  e4:	000e                	.insn	2, 0x000e
  e6:	0000                	.insn	2, 0x
  e8:	0018                	.insn	2, 0x0018
  ea:	0000                	.insn	2, 0x
  ec:	0038                	.insn	2, 0x0038
  ee:	0000                	.insn	2, 0x
  f0:	01f8                	.insn	2, 0x01f8
  f2:	0000                	.insn	2, 0x
  f4:	0028                	.insn	2, 0x0028
  f6:	0000                	.insn	2, 0x
  f8:	0e44                	.insn	2, 0x0e44
  fa:	4820                	.insn	2, 0x4820
  fc:	0181                	.insn	2, 0x0181
  fe:	0288                	.insn	2, 0x0288
 100:	0c44                	.insn	2, 0x0c44
 102:	0008                	.insn	2, 0x0008
 104:	0024                	.insn	2, 0x0024
 106:	0000                	.insn	2, 0x
 108:	0038                	.insn	2, 0x0038
 10a:	0000                	.insn	2, 0x
 10c:	0220                	.insn	2, 0x0220
 10e:	0000                	.insn	2, 0x
 110:	0034                	.insn	2, 0x0034
 112:	0000                	.insn	2, 0x
 114:	0e44                	.insn	2, 0x0e44
 116:	4820                	.insn	2, 0x4820
 118:	0181                	.insn	2, 0x0181
 11a:	0288                	.insn	2, 0x0288
 11c:	0c44                	.insn	2, 0x0c44
 11e:	0008                	.insn	2, 0x0008
 120:	c158                	.insn	2, 0xc158
 122:	c844                	.insn	2, 0xc844
 124:	020c                	.insn	2, 0x020c
 126:	4420                	.insn	2, 0x4420
 128:	000e                	.insn	2, 0x000e
 12a:	0000                	.insn	2, 0x
 12c:	0024                	.insn	2, 0x0024
 12e:	0000                	.insn	2, 0x
 130:	0038                	.insn	2, 0x0038
 132:	0000                	.insn	2, 0x
 134:	0254                	.insn	2, 0x0254
 136:	0000                	.insn	2, 0x
 138:	006c                	.insn	2, 0x006c
 13a:	0000                	.insn	2, 0x
 13c:	0e44                	.insn	2, 0x0e44
 13e:	4830                	.insn	2, 0x4830
 140:	0181                	.insn	2, 0x0181
 142:	0288                	.insn	2, 0x0288
 144:	0c44                	.insn	2, 0x0c44
 146:	0008                	.insn	2, 0x0008
 148:	5002                	.insn	2, 0x5002
 14a:	44c1                	.insn	2, 0x44c1
 14c:	0cc8                	.insn	2, 0x0cc8
 14e:	3002                	.insn	2, 0x3002
 150:	0e44                	.insn	2, 0x0e44
 152:	0000                	.insn	2, 0x
 154:	0024                	.insn	2, 0x0024
 156:	0000                	.insn	2, 0x
 158:	0038                	.insn	2, 0x0038
 15a:	0000                	.insn	2, 0x
 15c:	02c0                	.insn	2, 0x02c0
 15e:	0000                	.insn	2, 0x
 160:	002c                	.insn	2, 0x002c
 162:	0000                	.insn	2, 0x
 164:	0e44                	.insn	2, 0x0e44
 166:	4820                	.insn	2, 0x4820
 168:	0181                	.insn	2, 0x0181
 16a:	0288                	.insn	2, 0x0288
 16c:	0c44                	.insn	2, 0x0c44
 16e:	0008                	.insn	2, 0x0008
 170:	c150                	.insn	2, 0xc150
 172:	c844                	.insn	2, 0xc844
 174:	020c                	.insn	2, 0x020c
 176:	4420                	.insn	2, 0x4420
 178:	000e                	.insn	2, 0x000e
 17a:	0000                	.insn	2, 0x
 17c:	0024                	.insn	2, 0x0024
 17e:	0000                	.insn	2, 0x
 180:	0038                	.insn	2, 0x0038
 182:	0000                	.insn	2, 0x
 184:	02ec                	.insn	2, 0x02ec
 186:	0000                	.insn	2, 0x
 188:	003c                	.insn	2, 0x003c
 18a:	0000                	.insn	2, 0x
 18c:	0e44                	.insn	2, 0x0e44
 18e:	4820                	.insn	2, 0x4820
 190:	0181                	.insn	2, 0x0181
 192:	0288                	.insn	2, 0x0288
 194:	0c44                	.insn	2, 0x0c44
 196:	0008                	.insn	2, 0x0008
 198:	c160                	.insn	2, 0xc160
 19a:	c844                	.insn	2, 0xc844
 19c:	020c                	.insn	2, 0x020c
 19e:	4420                	.insn	2, 0x4420
 1a0:	000e                	.insn	2, 0x000e
 1a2:	0000                	.insn	2, 0x
 1a4:	0024                	.insn	2, 0x0024
 1a6:	0000                	.insn	2, 0x
 1a8:	0038                	.insn	2, 0x0038
 1aa:	0000                	.insn	2, 0x
 1ac:	0328                	.insn	2, 0x0328
 1ae:	0000                	.insn	2, 0x
 1b0:	002c                	.insn	2, 0x002c
 1b2:	0000                	.insn	2, 0x
 1b4:	0e44                	.insn	2, 0x0e44
 1b6:	4820                	.insn	2, 0x4820
 1b8:	0181                	.insn	2, 0x0181
 1ba:	0288                	.insn	2, 0x0288
 1bc:	0c44                	.insn	2, 0x0c44
 1be:	0008                	.insn	2, 0x0008
 1c0:	c150                	.insn	2, 0xc150
 1c2:	c844                	.insn	2, 0xc844
 1c4:	020c                	.insn	2, 0x020c
 1c6:	4420                	.insn	2, 0x4420
 1c8:	000e                	.insn	2, 0x000e
 1ca:	0000                	.insn	2, 0x
 1cc:	0024                	.insn	2, 0x0024
 1ce:	0000                	.insn	2, 0x
 1d0:	0038                	.insn	2, 0x0038
 1d2:	0000                	.insn	2, 0x
 1d4:	0354                	.insn	2, 0x0354
 1d6:	0000                	.insn	2, 0x
 1d8:	0034                	.insn	2, 0x0034
 1da:	0000                	.insn	2, 0x
 1dc:	0e44                	.insn	2, 0x0e44
 1de:	4820                	.insn	2, 0x4820
 1e0:	0181                	.insn	2, 0x0181
 1e2:	0288                	.insn	2, 0x0288
 1e4:	0c44                	.insn	2, 0x0c44
 1e6:	0008                	.insn	2, 0x0008
 1e8:	c158                	.insn	2, 0xc158
 1ea:	c844                	.insn	2, 0xc844
 1ec:	020c                	.insn	2, 0x020c
 1ee:	4420                	.insn	2, 0x4420
 1f0:	000e                	.insn	2, 0x000e
 1f2:	0000                	.insn	2, 0x
 1f4:	0024                	.insn	2, 0x0024
 1f6:	0000                	.insn	2, 0x
 1f8:	0038                	.insn	2, 0x0038
 1fa:	0000                	.insn	2, 0x
 1fc:	0388                	.insn	2, 0x0388
 1fe:	0000                	.insn	2, 0x
 200:	0048                	.insn	2, 0x0048
 202:	0000                	.insn	2, 0x
 204:	0e44                	.insn	2, 0x0e44
 206:	4840                	.insn	2, 0x4840
 208:	0981                	.insn	2, 0x0981
 20a:	0a88                	.insn	2, 0x0a88
 20c:	0c44                	.insn	2, 0x0c44
 20e:	2008                	.insn	2, 0x2008
 210:	c16c                	.insn	2, 0xc16c
 212:	c844                	.insn	2, 0xc844
 214:	020c                	.insn	2, 0x020c
 216:	4440                	.insn	2, 0x4440
 218:	000e                	.insn	2, 0x000e
 21a:	0000                	.insn	2, 0x
 21c:	0024                	.insn	2, 0x0024
 21e:	0000                	.insn	2, 0x
 220:	0038                	.insn	2, 0x0038
 222:	0000                	.insn	2, 0x
 224:	03d0                	.insn	2, 0x03d0
 226:	0000                	.insn	2, 0x
 228:	003c                	.insn	2, 0x003c
 22a:	0000                	.insn	2, 0x
 22c:	0e44                	.insn	2, 0x0e44
 22e:	4820                	.insn	2, 0x4820
 230:	0181                	.insn	2, 0x0181
 232:	0288                	.insn	2, 0x0288
 234:	0c44                	.insn	2, 0x0c44
 236:	0008                	.insn	2, 0x0008
 238:	c160                	.insn	2, 0xc160
 23a:	c844                	.insn	2, 0xc844
 23c:	020c                	.insn	2, 0x020c
 23e:	4420                	.insn	2, 0x4420
 240:	000e                	.insn	2, 0x000e
 242:	0000                	.insn	2, 0x
 244:	0024                	.insn	2, 0x0024
 246:	0000                	.insn	2, 0x
 248:	0038                	.insn	2, 0x0038
 24a:	0000                	.insn	2, 0x
 24c:	040c                	.insn	2, 0x040c
 24e:	0000                	.insn	2, 0x
 250:	003c                	.insn	2, 0x003c
 252:	0000                	.insn	2, 0x
 254:	0e44                	.insn	2, 0x0e44
 256:	4820                	.insn	2, 0x4820
 258:	0181                	.insn	2, 0x0181
 25a:	0288                	.insn	2, 0x0288
 25c:	0c44                	.insn	2, 0x0c44
 25e:	0008                	.insn	2, 0x0008
 260:	c160                	.insn	2, 0xc160
 262:	c844                	.insn	2, 0xc844
 264:	020c                	.insn	2, 0x020c
 266:	4420                	.insn	2, 0x4420
 268:	000e                	.insn	2, 0x000e
 26a:	0000                	.insn	2, 0x
 26c:	0024                	.insn	2, 0x0024
 26e:	0000                	.insn	2, 0x
 270:	0038                	.insn	2, 0x0038
 272:	0000                	.insn	2, 0x
 274:	0448                	.insn	2, 0x0448
 276:	0000                	.insn	2, 0x
 278:	002c                	.insn	2, 0x002c
 27a:	0000                	.insn	2, 0x
 27c:	0e44                	.insn	2, 0x0e44
 27e:	4820                	.insn	2, 0x4820
 280:	0181                	.insn	2, 0x0181
 282:	0288                	.insn	2, 0x0288
 284:	0c44                	.insn	2, 0x0c44
 286:	0008                	.insn	2, 0x0008
 288:	c150                	.insn	2, 0xc150
 28a:	c844                	.insn	2, 0xc844
 28c:	020c                	.insn	2, 0x020c
 28e:	4420                	.insn	2, 0x4420
 290:	000e                	.insn	2, 0x000e
 292:	0000                	.insn	2, 0x
 294:	0024                	.insn	2, 0x0024
 296:	0000                	.insn	2, 0x
 298:	0038                	.insn	2, 0x0038
 29a:	0000                	.insn	2, 0x
 29c:	0474                	.insn	2, 0x0474
 29e:	0000                	.insn	2, 0x
 2a0:	003c                	.insn	2, 0x003c
 2a2:	0000                	.insn	2, 0x
 2a4:	0e44                	.insn	2, 0x0e44
 2a6:	4820                	.insn	2, 0x4820
 2a8:	0181                	.insn	2, 0x0181
 2aa:	0288                	.insn	2, 0x0288
 2ac:	0c44                	.insn	2, 0x0c44
 2ae:	0008                	.insn	2, 0x0008
 2b0:	c160                	.insn	2, 0xc160
 2b2:	c844                	.insn	2, 0xc844
 2b4:	020c                	.insn	2, 0x020c
 2b6:	4420                	.insn	2, 0x4420
 2b8:	000e                	.insn	2, 0x000e
 2ba:	0000                	.insn	2, 0x
 2bc:	0024                	.insn	2, 0x0024
 2be:	0000                	.insn	2, 0x
 2c0:	0038                	.insn	2, 0x0038
 2c2:	0000                	.insn	2, 0x
 2c4:	04b0                	.insn	2, 0x04b0
 2c6:	0000                	.insn	2, 0x
 2c8:	0040                	.insn	2, 0x0040
 2ca:	0000                	.insn	2, 0x
 2cc:	0e44                	.insn	2, 0x0e44
 2ce:	4820                	.insn	2, 0x4820
 2d0:	0181                	.insn	2, 0x0181
 2d2:	0288                	.insn	2, 0x0288
 2d4:	0c44                	.insn	2, 0x0c44
 2d6:	0008                	.insn	2, 0x0008
 2d8:	c164                	.insn	2, 0xc164
 2da:	c844                	.insn	2, 0xc844
 2dc:	020c                	.insn	2, 0x020c
 2de:	4420                	.insn	2, 0x4420
 2e0:	000e                	.insn	2, 0x000e
 2e2:	0000                	.insn	2, 0x
 2e4:	0024                	.insn	2, 0x0024
 2e6:	0000                	.insn	2, 0x
 2e8:	0038                	.insn	2, 0x0038
 2ea:	0000                	.insn	2, 0x
 2ec:	04f0                	.insn	2, 0x04f0
 2ee:	0000                	.insn	2, 0x
 2f0:	0038                	.insn	2, 0x0038
 2f2:	0000                	.insn	2, 0x
 2f4:	0e44                	.insn	2, 0x0e44
 2f6:	4810                	.insn	2, 0x4810
 2f8:	0181                	.insn	2, 0x0181
 2fa:	0288                	.insn	2, 0x0288
 2fc:	0c44                	.insn	2, 0x0c44
 2fe:	0008                	.insn	2, 0x0008
 300:	c15c                	.insn	2, 0xc15c
 302:	c844                	.insn	2, 0xc844
 304:	020c                	.insn	2, 0x020c
 306:	4410                	.insn	2, 0x4410
 308:	000e                	.insn	2, 0x000e
 30a:	0000                	.insn	2, 0x
 30c:	0024                	.insn	2, 0x0024
 30e:	0000                	.insn	2, 0x
 310:	0038                	.insn	2, 0x0038
 312:	0000                	.insn	2, 0x
 314:	0528                	.insn	2, 0x0528
 316:	0000                	.insn	2, 0x
 318:	0044                	.insn	2, 0x0044
 31a:	0000                	.insn	2, 0x
 31c:	0e44                	.insn	2, 0x0e44
 31e:	4820                	.insn	2, 0x4820
 320:	0181                	.insn	2, 0x0181
 322:	0288                	.insn	2, 0x0288
 324:	0c44                	.insn	2, 0x0c44
 326:	0008                	.insn	2, 0x0008
 328:	c168                	.insn	2, 0xc168
 32a:	c844                	.insn	2, 0xc844
 32c:	020c                	.insn	2, 0x020c
 32e:	4420                	.insn	2, 0x4420
 330:	000e                	.insn	2, 0x000e
 332:	0000                	.insn	2, 0x
 334:	0024                	.insn	2, 0x0024
 336:	0000                	.insn	2, 0x
 338:	0038                	.insn	2, 0x0038
 33a:	0000                	.insn	2, 0x
 33c:	056c                	.insn	2, 0x056c
 33e:	0000                	.insn	2, 0x
 340:	008c                	.insn	2, 0x008c
 342:	0000                	.insn	2, 0x
 344:	0e44                	.insn	2, 0x0e44
 346:	4830                	.insn	2, 0x4830
 348:	0181                	.insn	2, 0x0181
 34a:	0288                	.insn	2, 0x0288
 34c:	0c44                	.insn	2, 0x0c44
 34e:	0008                	.insn	2, 0x0008
 350:	7002                	.insn	2, 0x7002
 352:	44c1                	.insn	2, 0x44c1
 354:	0cc8                	.insn	2, 0x0cc8
 356:	3002                	.insn	2, 0x3002
 358:	0e44                	.insn	2, 0x0e44
 35a:	0000                	.insn	2, 0x
 35c:	000c                	.insn	2, 0x000c
 35e:	0000                	.insn	2, 0x
 360:	ffff                	.insn	2, 0xffff
 362:	ffff                	.insn	2, 0xffff
 364:	7c010003          	lb	zero,1984(sp)
 368:	0c01                	.insn	2, 0x0c01
 36a:	0002                	.insn	2, 0x0002
 36c:	0024                	.insn	2, 0x0024
 36e:	0000                	.insn	2, 0x
 370:	035c                	.insn	2, 0x035c
 372:	0000                	.insn	2, 0x
 374:	05f8                	.insn	2, 0x05f8
 376:	0000                	.insn	2, 0x
 378:	0054                	.insn	2, 0x0054
 37a:	0000                	.insn	2, 0x
 37c:	0e44                	.insn	2, 0x0e44
 37e:	4820                	.insn	2, 0x4820
 380:	0181                	.insn	2, 0x0181
 382:	0288                	.insn	2, 0x0288
 384:	0c44                	.insn	2, 0x0c44
 386:	0008                	.insn	2, 0x0008
 388:	c178                	.insn	2, 0xc178
 38a:	c844                	.insn	2, 0xc844
 38c:	020c                	.insn	2, 0x020c
 38e:	4420                	.insn	2, 0x4420
 390:	000e                	.insn	2, 0x000e
 392:	0000                	.insn	2, 0x
 394:	0024                	.insn	2, 0x0024
 396:	0000                	.insn	2, 0x
 398:	035c                	.insn	2, 0x035c
 39a:	0000                	.insn	2, 0x
 39c:	064c                	.insn	2, 0x064c
 39e:	0000                	.insn	2, 0x
 3a0:	005c                	.insn	2, 0x005c
 3a2:	0000                	.insn	2, 0x
 3a4:	0e44                	.insn	2, 0x0e44
 3a6:	4820                	.insn	2, 0x4820
 3a8:	0181                	.insn	2, 0x0181
 3aa:	0288                	.insn	2, 0x0288
 3ac:	0c44                	.insn	2, 0x0c44
 3ae:	0008                	.insn	2, 0x0008
 3b0:	4002                	.insn	2, 0x4002
 3b2:	44c1                	.insn	2, 0x44c1
 3b4:	0cc8                	.insn	2, 0x0cc8
 3b6:	2002                	.insn	2, 0x2002
 3b8:	0e44                	.insn	2, 0x0e44
 3ba:	0000                	.insn	2, 0x
 3bc:	0024                	.insn	2, 0x0024
 3be:	0000                	.insn	2, 0x
 3c0:	035c                	.insn	2, 0x035c
 3c2:	0000                	.insn	2, 0x
 3c4:	06a8                	.insn	2, 0x06a8
 3c6:	0000                	.insn	2, 0x
 3c8:	0050                	.insn	2, 0x0050
 3ca:	0000                	.insn	2, 0x
 3cc:	0e44                	.insn	2, 0x0e44
 3ce:	4820                	.insn	2, 0x4820
 3d0:	0181                	.insn	2, 0x0181
 3d2:	0288                	.insn	2, 0x0288
 3d4:	0c44                	.insn	2, 0x0c44
 3d6:	0008                	.insn	2, 0x0008
 3d8:	c174                	.insn	2, 0xc174
 3da:	c844                	.insn	2, 0xc844
 3dc:	020c                	.insn	2, 0x020c
 3de:	4420                	.insn	2, 0x4420
 3e0:	000e                	.insn	2, 0x000e
 3e2:	0000                	.insn	2, 0x
 3e4:	0018                	.insn	2, 0x0018
 3e6:	0000                	.insn	2, 0x
 3e8:	035c                	.insn	2, 0x035c
 3ea:	0000                	.insn	2, 0x
 3ec:	06f8                	.insn	2, 0x06f8
 3ee:	0000                	.insn	2, 0x
 3f0:	0070                	.insn	2, 0x0070
 3f2:	0000                	.insn	2, 0x
 3f4:	0e44                	.insn	2, 0x0e44
 3f6:	4820                	.insn	2, 0x4820
 3f8:	0181                	.insn	2, 0x0181
 3fa:	0288                	.insn	2, 0x0288
 3fc:	0c44                	.insn	2, 0x0c44
 3fe:	0008                	.insn	2, 0x0008
