
program.elf:     file format elf32-littleriscv


Disassembly of section .text:

00000000 <start>:
       0:	00000093          	li	ra,0
       4:	00000113          	li	sp,0
       8:	00000193          	li	gp,0
       c:	00000213          	li	tp,0
      10:	00000293          	li	t0,0
      14:	00000313          	li	t1,0
      18:	00000393          	li	t2,0
      1c:	00000413          	li	s0,0
      20:	00000493          	li	s1,0
      24:	00000513          	li	a0,0
      28:	00000593          	li	a1,0
      2c:	00000613          	li	a2,0
      30:	00000693          	li	a3,0
      34:	00000713          	li	a4,0
      38:	00000793          	li	a5,0
      3c:	00000813          	li	a6,0
      40:	00000893          	li	a7,0
      44:	00000913          	li	s2,0
      48:	00000993          	li	s3,0
      4c:	00000a13          	li	s4,0
      50:	00000a93          	li	s5,0
      54:	00000b13          	li	s6,0
      58:	00000b93          	li	s7,0
      5c:	00000c13          	li	s8,0
      60:	00000c93          	li	s9,0
      64:	00000d13          	li	s10,0
      68:	00000d93          	li	s11,0
      6c:	00000e13          	li	t3,0
      70:	00000e93          	li	t4,0
      74:	00000f13          	li	t5,0
      78:	00000f93          	li	t6,0
      7c:	10004117          	auipc	sp,0x10004
      80:	f8410113          	addi	sp,sp,-124 # 10004000 <_stack_top>
      84:	00c000ef          	jal	90 <ram_init>
      88:	7c8000ef          	jal	850 <__libc_init_array>
      8c:	66c000ef          	jal	6f8 <main>

00000090 <ram_init>:
      90:	fe010113          	addi	sp,sp,-32
      94:	00112e23          	sw	ra,28(sp)
      98:	00812c23          	sw	s0,24(sp)
      9c:	02010413          	addi	s0,sp,32
      a0:	000027b7          	lui	a5,0x2
      a4:	58078793          	addi	a5,a5,1408 # 2580 <_etext>
      a8:	fef42623          	sw	a5,-20(s0)
      ac:	100007b7          	lui	a5,0x10000
      b0:	00078793          	mv	a5,a5
      b4:	fef42423          	sw	a5,-24(s0)
      b8:	0240006f          	j	dc <ram_init+0x4c>
      bc:	fec42703          	lw	a4,-20(s0)
      c0:	00170793          	addi	a5,a4,1
      c4:	fef42623          	sw	a5,-20(s0)
      c8:	fe842783          	lw	a5,-24(s0)
      cc:	00178693          	addi	a3,a5,1 # 10000001 <_impure_data+0x1>
      d0:	fed42423          	sw	a3,-24(s0)
      d4:	00074703          	lbu	a4,0(a4)
      d8:	00e78023          	sb	a4,0(a5)
      dc:	fe842703          	lw	a4,-24(s0)
      e0:	100007b7          	lui	a5,0x10000
      e4:	54878793          	addi	a5,a5,1352 # 10000548 <__sf>
      e8:	fcf76ae3          	bltu	a4,a5,bc <ram_init+0x2c>
      ec:	100007b7          	lui	a5,0x10000
      f0:	54878793          	addi	a5,a5,1352 # 10000548 <__sf>
      f4:	fef42423          	sw	a5,-24(s0)
      f8:	0140006f          	j	10c <ram_init+0x7c>
      fc:	fe842783          	lw	a5,-24(s0)
     100:	00178713          	addi	a4,a5,1
     104:	fee42423          	sw	a4,-24(s0)
     108:	00078023          	sb	zero,0(a5)
     10c:	fe842703          	lw	a4,-24(s0)
     110:	000037b7          	lui	a5,0x3
     114:	b0078793          	addi	a5,a5,-1280 # 2b00 <_end>
     118:	fef762e3          	bltu	a4,a5,fc <ram_init+0x6c>
     11c:	00000013          	nop
     120:	01c12083          	lw	ra,28(sp)
     124:	01812403          	lw	s0,24(sp)
     128:	02010113          	addi	sp,sp,32
     12c:	00008067          	ret

00000130 <__io_putchar>:
     130:	fe010113          	addi	sp,sp,-32
     134:	00112e23          	sw	ra,28(sp)
     138:	00812c23          	sw	s0,24(sp)
     13c:	02010413          	addi	s0,sp,32
     140:	fea42623          	sw	a0,-20(s0)
     144:	fec42783          	lw	a5,-20(s0)
     148:	0ff7f793          	zext.b	a5,a5
     14c:	00078513          	mv	a0,a5
     150:	4a8000ef          	jal	5f8 <print_char>
     154:	00100793          	li	a5,1
     158:	00078513          	mv	a0,a5
     15c:	01c12083          	lw	ra,28(sp)
     160:	01812403          	lw	s0,24(sp)
     164:	02010113          	addi	sp,sp,32
     168:	00008067          	ret

0000016c <initialise_monitor_handles>:
     16c:	ff010113          	addi	sp,sp,-16
     170:	00112623          	sw	ra,12(sp)
     174:	00812423          	sw	s0,8(sp)
     178:	01010413          	addi	s0,sp,16
     17c:	00000013          	nop
     180:	00c12083          	lw	ra,12(sp)
     184:	00812403          	lw	s0,8(sp)
     188:	01010113          	addi	sp,sp,16
     18c:	00008067          	ret

00000190 <_getpid>:
     190:	ff010113          	addi	sp,sp,-16
     194:	00112623          	sw	ra,12(sp)
     198:	00812423          	sw	s0,8(sp)
     19c:	01010413          	addi	s0,sp,16
     1a0:	00100793          	li	a5,1
     1a4:	00078513          	mv	a0,a5
     1a8:	00c12083          	lw	ra,12(sp)
     1ac:	00812403          	lw	s0,8(sp)
     1b0:	01010113          	addi	sp,sp,16
     1b4:	00008067          	ret

000001b8 <_kill>:
     1b8:	fe010113          	addi	sp,sp,-32
     1bc:	00112e23          	sw	ra,28(sp)
     1c0:	00812c23          	sw	s0,24(sp)
     1c4:	02010413          	addi	s0,sp,32
     1c8:	fea42623          	sw	a0,-20(s0)
     1cc:	feb42423          	sw	a1,-24(s0)
     1d0:	674000ef          	jal	844 <__errno>
     1d4:	00050713          	mv	a4,a0
     1d8:	01600793          	li	a5,22
     1dc:	00f72023          	sw	a5,0(a4)
     1e0:	fff00793          	li	a5,-1
     1e4:	00078513          	mv	a0,a5
     1e8:	01c12083          	lw	ra,28(sp)
     1ec:	01812403          	lw	s0,24(sp)
     1f0:	02010113          	addi	sp,sp,32
     1f4:	00008067          	ret

000001f8 <_exit>:
     1f8:	fe010113          	addi	sp,sp,-32
     1fc:	00112e23          	sw	ra,28(sp)
     200:	00812c23          	sw	s0,24(sp)
     204:	02010413          	addi	s0,sp,32
     208:	fea42623          	sw	a0,-20(s0)
     20c:	fff00593          	li	a1,-1
     210:	fec42503          	lw	a0,-20(s0)
     214:	fa5ff0ef          	jal	1b8 <_kill>
     218:	00000013          	nop
     21c:	ffdff06f          	j	218 <_exit+0x20>

00000220 <_read>:
     220:	fe010113          	addi	sp,sp,-32
     224:	00112e23          	sw	ra,28(sp)
     228:	00812c23          	sw	s0,24(sp)
     22c:	02010413          	addi	s0,sp,32
     230:	fea42623          	sw	a0,-20(s0)
     234:	feb42423          	sw	a1,-24(s0)
     238:	fec42223          	sw	a2,-28(s0)
     23c:	fe442783          	lw	a5,-28(s0)
     240:	00078513          	mv	a0,a5
     244:	01c12083          	lw	ra,28(sp)
     248:	01812403          	lw	s0,24(sp)
     24c:	02010113          	addi	sp,sp,32
     250:	00008067          	ret

00000254 <_write>:
     254:	fd010113          	addi	sp,sp,-48
     258:	02112623          	sw	ra,44(sp)
     25c:	02812423          	sw	s0,40(sp)
     260:	03010413          	addi	s0,sp,48
     264:	fca42e23          	sw	a0,-36(s0)
     268:	fcb42c23          	sw	a1,-40(s0)
     26c:	fcc42a23          	sw	a2,-44(s0)
     270:	fe042623          	sw	zero,-20(s0)
     274:	0280006f          	j	29c <_write+0x48>
     278:	fd842783          	lw	a5,-40(s0)
     27c:	00178713          	addi	a4,a5,1
     280:	fce42c23          	sw	a4,-40(s0)
     284:	0007c783          	lbu	a5,0(a5)
     288:	00078513          	mv	a0,a5
     28c:	ea5ff0ef          	jal	130 <__io_putchar>
     290:	fec42783          	lw	a5,-20(s0)
     294:	00178793          	addi	a5,a5,1
     298:	fef42623          	sw	a5,-20(s0)
     29c:	fec42703          	lw	a4,-20(s0)
     2a0:	fd442783          	lw	a5,-44(s0)
     2a4:	fcf74ae3          	blt	a4,a5,278 <_write+0x24>
     2a8:	fd442783          	lw	a5,-44(s0)
     2ac:	00078513          	mv	a0,a5
     2b0:	02c12083          	lw	ra,44(sp)
     2b4:	02812403          	lw	s0,40(sp)
     2b8:	03010113          	addi	sp,sp,48
     2bc:	00008067          	ret

000002c0 <_close>:
     2c0:	fe010113          	addi	sp,sp,-32
     2c4:	00112e23          	sw	ra,28(sp)
     2c8:	00812c23          	sw	s0,24(sp)
     2cc:	02010413          	addi	s0,sp,32
     2d0:	fea42623          	sw	a0,-20(s0)
     2d4:	fff00793          	li	a5,-1
     2d8:	00078513          	mv	a0,a5
     2dc:	01c12083          	lw	ra,28(sp)
     2e0:	01812403          	lw	s0,24(sp)
     2e4:	02010113          	addi	sp,sp,32
     2e8:	00008067          	ret

000002ec <_fstat>:
     2ec:	fe010113          	addi	sp,sp,-32
     2f0:	00112e23          	sw	ra,28(sp)
     2f4:	00812c23          	sw	s0,24(sp)
     2f8:	02010413          	addi	s0,sp,32
     2fc:	fea42623          	sw	a0,-20(s0)
     300:	feb42423          	sw	a1,-24(s0)
     304:	fe842783          	lw	a5,-24(s0)
     308:	00002737          	lui	a4,0x2
     30c:	00e7a223          	sw	a4,4(a5)
     310:	00000793          	li	a5,0
     314:	00078513          	mv	a0,a5
     318:	01c12083          	lw	ra,28(sp)
     31c:	01812403          	lw	s0,24(sp)
     320:	02010113          	addi	sp,sp,32
     324:	00008067          	ret

00000328 <_isatty>:
     328:	fe010113          	addi	sp,sp,-32
     32c:	00112e23          	sw	ra,28(sp)
     330:	00812c23          	sw	s0,24(sp)
     334:	02010413          	addi	s0,sp,32
     338:	fea42623          	sw	a0,-20(s0)
     33c:	00100793          	li	a5,1
     340:	00078513          	mv	a0,a5
     344:	01c12083          	lw	ra,28(sp)
     348:	01812403          	lw	s0,24(sp)
     34c:	02010113          	addi	sp,sp,32
     350:	00008067          	ret

00000354 <_lseek>:
     354:	fe010113          	addi	sp,sp,-32
     358:	00112e23          	sw	ra,28(sp)
     35c:	00812c23          	sw	s0,24(sp)
     360:	02010413          	addi	s0,sp,32
     364:	fea42623          	sw	a0,-20(s0)
     368:	feb42423          	sw	a1,-24(s0)
     36c:	fec42223          	sw	a2,-28(s0)
     370:	00000793          	li	a5,0
     374:	00078513          	mv	a0,a5
     378:	01c12083          	lw	ra,28(sp)
     37c:	01812403          	lw	s0,24(sp)
     380:	02010113          	addi	sp,sp,32
     384:	00008067          	ret

00000388 <_open>:
     388:	fc010113          	addi	sp,sp,-64
     38c:	00112e23          	sw	ra,28(sp)
     390:	00812c23          	sw	s0,24(sp)
     394:	02010413          	addi	s0,sp,32
     398:	fea42623          	sw	a0,-20(s0)
     39c:	feb42423          	sw	a1,-24(s0)
     3a0:	00c42423          	sw	a2,8(s0)
     3a4:	00d42623          	sw	a3,12(s0)
     3a8:	00e42823          	sw	a4,16(s0)
     3ac:	00f42a23          	sw	a5,20(s0)
     3b0:	01042c23          	sw	a6,24(s0)
     3b4:	01142e23          	sw	a7,28(s0)
     3b8:	fff00793          	li	a5,-1
     3bc:	00078513          	mv	a0,a5
     3c0:	01c12083          	lw	ra,28(sp)
     3c4:	01812403          	lw	s0,24(sp)
     3c8:	04010113          	addi	sp,sp,64
     3cc:	00008067          	ret

000003d0 <_wait>:
     3d0:	fe010113          	addi	sp,sp,-32
     3d4:	00112e23          	sw	ra,28(sp)
     3d8:	00812c23          	sw	s0,24(sp)
     3dc:	02010413          	addi	s0,sp,32
     3e0:	fea42623          	sw	a0,-20(s0)
     3e4:	460000ef          	jal	844 <__errno>
     3e8:	00050713          	mv	a4,a0
     3ec:	00a00793          	li	a5,10
     3f0:	00f72023          	sw	a5,0(a4) # 2000 <_stack_size>
     3f4:	fff00793          	li	a5,-1
     3f8:	00078513          	mv	a0,a5
     3fc:	01c12083          	lw	ra,28(sp)
     400:	01812403          	lw	s0,24(sp)
     404:	02010113          	addi	sp,sp,32
     408:	00008067          	ret

0000040c <_unlink>:
     40c:	fe010113          	addi	sp,sp,-32
     410:	00112e23          	sw	ra,28(sp)
     414:	00812c23          	sw	s0,24(sp)
     418:	02010413          	addi	s0,sp,32
     41c:	fea42623          	sw	a0,-20(s0)
     420:	424000ef          	jal	844 <__errno>
     424:	00050713          	mv	a4,a0
     428:	00200793          	li	a5,2
     42c:	00f72023          	sw	a5,0(a4)
     430:	fff00793          	li	a5,-1
     434:	00078513          	mv	a0,a5
     438:	01c12083          	lw	ra,28(sp)
     43c:	01812403          	lw	s0,24(sp)
     440:	02010113          	addi	sp,sp,32
     444:	00008067          	ret

00000448 <_times>:
     448:	fe010113          	addi	sp,sp,-32
     44c:	00112e23          	sw	ra,28(sp)
     450:	00812c23          	sw	s0,24(sp)
     454:	02010413          	addi	s0,sp,32
     458:	fea42623          	sw	a0,-20(s0)
     45c:	fff00793          	li	a5,-1
     460:	00078513          	mv	a0,a5
     464:	01c12083          	lw	ra,28(sp)
     468:	01812403          	lw	s0,24(sp)
     46c:	02010113          	addi	sp,sp,32
     470:	00008067          	ret

00000474 <_stat>:
     474:	fe010113          	addi	sp,sp,-32
     478:	00112e23          	sw	ra,28(sp)
     47c:	00812c23          	sw	s0,24(sp)
     480:	02010413          	addi	s0,sp,32
     484:	fea42623          	sw	a0,-20(s0)
     488:	feb42423          	sw	a1,-24(s0)
     48c:	fe842783          	lw	a5,-24(s0)
     490:	00002737          	lui	a4,0x2
     494:	00e7a223          	sw	a4,4(a5)
     498:	00000793          	li	a5,0
     49c:	00078513          	mv	a0,a5
     4a0:	01c12083          	lw	ra,28(sp)
     4a4:	01812403          	lw	s0,24(sp)
     4a8:	02010113          	addi	sp,sp,32
     4ac:	00008067          	ret

000004b0 <_link>:
     4b0:	fe010113          	addi	sp,sp,-32
     4b4:	00112e23          	sw	ra,28(sp)
     4b8:	00812c23          	sw	s0,24(sp)
     4bc:	02010413          	addi	s0,sp,32
     4c0:	fea42623          	sw	a0,-20(s0)
     4c4:	feb42423          	sw	a1,-24(s0)
     4c8:	37c000ef          	jal	844 <__errno>
     4cc:	00050713          	mv	a4,a0
     4d0:	01f00793          	li	a5,31
     4d4:	00f72023          	sw	a5,0(a4) # 2000 <_stack_size>
     4d8:	fff00793          	li	a5,-1
     4dc:	00078513          	mv	a0,a5
     4e0:	01c12083          	lw	ra,28(sp)
     4e4:	01812403          	lw	s0,24(sp)
     4e8:	02010113          	addi	sp,sp,32
     4ec:	00008067          	ret

000004f0 <_fork>:
     4f0:	ff010113          	addi	sp,sp,-16
     4f4:	00112623          	sw	ra,12(sp)
     4f8:	00812423          	sw	s0,8(sp)
     4fc:	01010413          	addi	s0,sp,16
     500:	344000ef          	jal	844 <__errno>
     504:	00050713          	mv	a4,a0
     508:	00b00793          	li	a5,11
     50c:	00f72023          	sw	a5,0(a4)
     510:	fff00793          	li	a5,-1
     514:	00078513          	mv	a0,a5
     518:	00c12083          	lw	ra,12(sp)
     51c:	00812403          	lw	s0,8(sp)
     520:	01010113          	addi	sp,sp,16
     524:	00008067          	ret

00000528 <_execve>:
     528:	fe010113          	addi	sp,sp,-32
     52c:	00112e23          	sw	ra,28(sp)
     530:	00812c23          	sw	s0,24(sp)
     534:	02010413          	addi	s0,sp,32
     538:	fea42623          	sw	a0,-20(s0)
     53c:	feb42423          	sw	a1,-24(s0)
     540:	fec42223          	sw	a2,-28(s0)
     544:	300000ef          	jal	844 <__errno>
     548:	00050713          	mv	a4,a0
     54c:	00c00793          	li	a5,12
     550:	00f72023          	sw	a5,0(a4)
     554:	fff00793          	li	a5,-1
     558:	00078513          	mv	a0,a5
     55c:	01c12083          	lw	ra,28(sp)
     560:	01812403          	lw	s0,24(sp)
     564:	02010113          	addi	sp,sp,32
     568:	00008067          	ret

0000056c <_sbrk>:
     56c:	fd010113          	addi	sp,sp,-48
     570:	02112623          	sw	ra,44(sp)
     574:	02812423          	sw	s0,40(sp)
     578:	03010413          	addi	s0,sp,48
     57c:	fca42e23          	sw	a0,-36(s0)
     580:	100007b7          	lui	a5,0x10000
     584:	5387a783          	lw	a5,1336(a5) # 10000538 <heap_end.0>
     588:	fef42623          	sw	a5,-20(s0)
     58c:	100027b7          	lui	a5,0x10002
     590:	00078793          	mv	a5,a5
     594:	fef42423          	sw	a5,-24(s0)
     598:	100007b7          	lui	a5,0x10000
     59c:	5387a703          	lw	a4,1336(a5) # 10000538 <heap_end.0>
     5a0:	fdc42783          	lw	a5,-36(s0)
     5a4:	00f707b3          	add	a5,a4,a5
     5a8:	fe842703          	lw	a4,-24(s0)
     5ac:	00f77e63          	bgeu	a4,a5,5c8 <_sbrk+0x5c>
     5b0:	294000ef          	jal	844 <__errno>
     5b4:	00050713          	mv	a4,a0
     5b8:	00c00793          	li	a5,12
     5bc:	00f72023          	sw	a5,0(a4)
     5c0:	fff00793          	li	a5,-1
     5c4:	0200006f          	j	5e4 <_sbrk+0x78>
     5c8:	100007b7          	lui	a5,0x10000
     5cc:	5387a703          	lw	a4,1336(a5) # 10000538 <heap_end.0>
     5d0:	fdc42783          	lw	a5,-36(s0)
     5d4:	00f70733          	add	a4,a4,a5
     5d8:	100007b7          	lui	a5,0x10000
     5dc:	52e7ac23          	sw	a4,1336(a5) # 10000538 <heap_end.0>
     5e0:	fec42783          	lw	a5,-20(s0)
     5e4:	00078513          	mv	a0,a5
     5e8:	02c12083          	lw	ra,44(sp)
     5ec:	02812403          	lw	s0,40(sp)
     5f0:	03010113          	addi	sp,sp,48
     5f4:	00008067          	ret

000005f8 <print_char>:
     5f8:	fe010113          	addi	sp,sp,-32
     5fc:	00112e23          	sw	ra,28(sp)
     600:	00812c23          	sw	s0,24(sp)
     604:	02010413          	addi	s0,sp,32
     608:	00050793          	mv	a5,a0
     60c:	fef407a3          	sb	a5,-17(s0)
     610:	00000013          	nop
     614:	406007b7          	lui	a5,0x40600
     618:	00878793          	addi	a5,a5,8 # 40600008 <_stack_top+0x305fc008>
     61c:	0007a783          	lw	a5,0(a5)
     620:	0087f793          	andi	a5,a5,8
     624:	fe0798e3          	bnez	a5,614 <print_char+0x1c>
     628:	406007b7          	lui	a5,0x40600
     62c:	00478793          	addi	a5,a5,4 # 40600004 <_stack_top+0x305fc004>
     630:	fef44703          	lbu	a4,-17(s0)
     634:	00e7a023          	sw	a4,0(a5)
     638:	00000013          	nop
     63c:	01c12083          	lw	ra,28(sp)
     640:	01812403          	lw	s0,24(sp)
     644:	02010113          	addi	sp,sp,32
     648:	00008067          	ret

0000064c <print_length>:
     64c:	fe010113          	addi	sp,sp,-32
     650:	00112e23          	sw	ra,28(sp)
     654:	00812c23          	sw	s0,24(sp)
     658:	02010413          	addi	s0,sp,32
     65c:	fea42623          	sw	a0,-20(s0)
     660:	00058793          	mv	a5,a1
     664:	fef41523          	sh	a5,-22(s0)
     668:	01c0006f          	j	684 <print_length+0x38>
     66c:	fec42783          	lw	a5,-20(s0)
     670:	00178713          	addi	a4,a5,1
     674:	fee42623          	sw	a4,-20(s0)
     678:	0007c783          	lbu	a5,0(a5)
     67c:	00078513          	mv	a0,a5
     680:	f79ff0ef          	jal	5f8 <print_char>
     684:	fea45783          	lhu	a5,-22(s0)
     688:	fff78713          	addi	a4,a5,-1
     68c:	fee41523          	sh	a4,-22(s0)
     690:	fc079ee3          	bnez	a5,66c <print_length+0x20>
     694:	00000013          	nop
     698:	01c12083          	lw	ra,28(sp)
     69c:	01812403          	lw	s0,24(sp)
     6a0:	02010113          	addi	sp,sp,32
     6a4:	00008067          	ret

000006a8 <print_string>:
     6a8:	fe010113          	addi	sp,sp,-32
     6ac:	00112e23          	sw	ra,28(sp)
     6b0:	00812c23          	sw	s0,24(sp)
     6b4:	02010413          	addi	s0,sp,32
     6b8:	fea42623          	sw	a0,-20(s0)
     6bc:	01c0006f          	j	6d8 <print_string+0x30>
     6c0:	fec42783          	lw	a5,-20(s0)
     6c4:	00178713          	addi	a4,a5,1
     6c8:	fee42623          	sw	a4,-20(s0)
     6cc:	0007c783          	lbu	a5,0(a5)
     6d0:	00078513          	mv	a0,a5
     6d4:	f25ff0ef          	jal	5f8 <print_char>
     6d8:	fec42783          	lw	a5,-20(s0)
     6dc:	0007c783          	lbu	a5,0(a5)
     6e0:	fe0790e3          	bnez	a5,6c0 <print_string+0x18>
     6e4:	00000013          	nop
     6e8:	01c12083          	lw	ra,28(sp)
     6ec:	01812403          	lw	s0,24(sp)
     6f0:	02010113          	addi	sp,sp,32
     6f4:	00008067          	ret

000006f8 <main>:
     6f8:	fe010113          	addi	sp,sp,-32
     6fc:	00112e23          	sw	ra,28(sp)
     700:	00812c23          	sw	s0,24(sp)
     704:	02010413          	addi	s0,sp,32
     708:	000027b7          	lui	a5,0x2
     70c:	56078513          	addi	a0,a5,1376 # 2560 <_sbrk_r+0x78>
     710:	f99ff0ef          	jal	6a8 <print_string>
     714:	fe0407a3          	sb	zero,-17(s0)
     718:	fef44783          	lbu	a5,-17(s0)
     71c:	00178713          	addi	a4,a5,1
     720:	fee407a3          	sb	a4,-17(s0)
     724:	00078713          	mv	a4,a5
     728:	400007b7          	lui	a5,0x40000
     72c:	00f77713          	andi	a4,a4,15
     730:	00e7a023          	sw	a4,0(a5) # 40000000 <_stack_top+0x2fffc000>
     734:	fe042423          	sw	zero,-24(s0)
     738:	0140006f          	j	74c <main+0x54>
     73c:	00000013          	nop
     740:	fe842783          	lw	a5,-24(s0)
     744:	00178793          	addi	a5,a5,1
     748:	fef42423          	sw	a5,-24(s0)
     74c:	fe842703          	lw	a4,-24(s0)
     750:	000017b7          	lui	a5,0x1
     754:	fef764e3          	bltu	a4,a5,73c <main+0x44>
     758:	000027b7          	lui	a5,0x2
     75c:	57478513          	addi	a0,a5,1396 # 2574 <_sbrk_r+0x8c>
     760:	f49ff0ef          	jal	6a8 <print_string>
     764:	fb5ff06f          	j	718 <main+0x20>

00000768 <memset>:
     768:	00f00313          	li	t1,15
     76c:	00050713          	mv	a4,a0
     770:	02c37e63          	bgeu	t1,a2,7ac <memset+0x44>
     774:	00f77793          	andi	a5,a4,15
     778:	0a079063          	bnez	a5,818 <memset+0xb0>
     77c:	08059263          	bnez	a1,800 <memset+0x98>
     780:	ff067693          	andi	a3,a2,-16
     784:	00f67613          	andi	a2,a2,15
     788:	00e686b3          	add	a3,a3,a4
     78c:	00b72023          	sw	a1,0(a4)
     790:	00b72223          	sw	a1,4(a4)
     794:	00b72423          	sw	a1,8(a4)
     798:	00b72623          	sw	a1,12(a4)
     79c:	01070713          	addi	a4,a4,16
     7a0:	fed766e3          	bltu	a4,a3,78c <memset+0x24>
     7a4:	00061463          	bnez	a2,7ac <memset+0x44>
     7a8:	00008067          	ret
     7ac:	40c306b3          	sub	a3,t1,a2
     7b0:	00269693          	slli	a3,a3,0x2
     7b4:	00000297          	auipc	t0,0x0
     7b8:	005686b3          	add	a3,a3,t0
     7bc:	00c68067          	jr	12(a3)
     7c0:	00b70723          	sb	a1,14(a4)
     7c4:	00b706a3          	sb	a1,13(a4)
     7c8:	00b70623          	sb	a1,12(a4)
     7cc:	00b705a3          	sb	a1,11(a4)
     7d0:	00b70523          	sb	a1,10(a4)
     7d4:	00b704a3          	sb	a1,9(a4)
     7d8:	00b70423          	sb	a1,8(a4)
     7dc:	00b703a3          	sb	a1,7(a4)
     7e0:	00b70323          	sb	a1,6(a4)
     7e4:	00b702a3          	sb	a1,5(a4)
     7e8:	00b70223          	sb	a1,4(a4)
     7ec:	00b701a3          	sb	a1,3(a4)
     7f0:	00b70123          	sb	a1,2(a4)
     7f4:	00b700a3          	sb	a1,1(a4)
     7f8:	00b70023          	sb	a1,0(a4)
     7fc:	00008067          	ret
     800:	0ff5f593          	zext.b	a1,a1
     804:	00859693          	slli	a3,a1,0x8
     808:	00d5e5b3          	or	a1,a1,a3
     80c:	01059693          	slli	a3,a1,0x10
     810:	00d5e5b3          	or	a1,a1,a3
     814:	f6dff06f          	j	780 <memset+0x18>
     818:	00279693          	slli	a3,a5,0x2
     81c:	00000297          	auipc	t0,0x0
     820:	005686b3          	add	a3,a3,t0
     824:	00008293          	mv	t0,ra
     828:	fa0680e7          	jalr	-96(a3)
     82c:	00028093          	mv	ra,t0
     830:	ff078793          	addi	a5,a5,-16
     834:	40f70733          	sub	a4,a4,a5
     838:	00f60633          	add	a2,a2,a5
     83c:	f6c378e3          	bgeu	t1,a2,7ac <memset+0x44>
     840:	f3dff06f          	j	77c <memset+0x14>

00000844 <__errno>:
     844:	10000517          	auipc	a0,0x10000
     848:	cf852503          	lw	a0,-776(a0) # 1000053c <_impure_ptr>
     84c:	00008067          	ret

00000850 <__libc_init_array>:
     850:	ff010113          	addi	sp,sp,-16
     854:	00812423          	sw	s0,8(sp)
     858:	01212023          	sw	s2,0(sp)
     85c:	00000793          	li	a5,0
     860:	00000413          	li	s0,0
     864:	00112623          	sw	ra,12(sp)
     868:	00912223          	sw	s1,4(sp)
     86c:	40878933          	sub	s2,a5,s0
     870:	02878063          	beq	a5,s0,890 <__libc_init_array+0x40>
     874:	40295913          	srai	s2,s2,0x2
     878:	00000493          	li	s1,0
     87c:	00042783          	lw	a5,0(s0)
     880:	00148493          	addi	s1,s1,1
     884:	00440413          	addi	s0,s0,4
     888:	000780e7          	jalr	a5
     88c:	ff24e8e3          	bltu	s1,s2,87c <__libc_init_array+0x2c>
     890:	00000793          	li	a5,0
     894:	00000413          	li	s0,0
     898:	40878933          	sub	s2,a5,s0
     89c:	40295913          	srai	s2,s2,0x2
     8a0:	00878e63          	beq	a5,s0,8bc <__libc_init_array+0x6c>
     8a4:	00000493          	li	s1,0
     8a8:	00042783          	lw	a5,0(s0)
     8ac:	00148493          	addi	s1,s1,1
     8b0:	00440413          	addi	s0,s0,4
     8b4:	000780e7          	jalr	a5
     8b8:	ff24e8e3          	bltu	s1,s2,8a8 <__libc_init_array+0x58>
     8bc:	00c12083          	lw	ra,12(sp)
     8c0:	00812403          	lw	s0,8(sp)
     8c4:	00412483          	lw	s1,4(sp)
     8c8:	00012903          	lw	s2,0(sp)
     8cc:	01010113          	addi	sp,sp,16
     8d0:	00008067          	ret

000008d4 <stdio_exit_handler>:
     8d4:	10000617          	auipc	a2,0x10000
     8d8:	84c60613          	addi	a2,a2,-1972 # 10000120 <__sglue>
     8dc:	00001597          	auipc	a1,0x1
     8e0:	68458593          	addi	a1,a1,1668 # 1f60 <_fclose_r>
     8e4:	0ffff517          	auipc	a0,0xffff
     8e8:	71c50513          	addi	a0,a0,1820 # 10000000 <_impure_data>
     8ec:	4cc0006f          	j	db8 <_fwalk_sglue>

000008f0 <cleanup_stdio>:
     8f0:	00452583          	lw	a1,4(a0)
     8f4:	ff010113          	addi	sp,sp,-16
     8f8:	00812423          	sw	s0,8(sp)
     8fc:	00112623          	sw	ra,12(sp)
     900:	10000797          	auipc	a5,0x10000
     904:	c4878793          	addi	a5,a5,-952 # 10000548 <__sf>
     908:	00050413          	mv	s0,a0
     90c:	00f58463          	beq	a1,a5,914 <cleanup_stdio+0x24>
     910:	650010ef          	jal	1f60 <_fclose_r>
     914:	00842583          	lw	a1,8(s0)
     918:	10000797          	auipc	a5,0x10000
     91c:	c9878793          	addi	a5,a5,-872 # 100005b0 <__sf+0x68>
     920:	00f58663          	beq	a1,a5,92c <cleanup_stdio+0x3c>
     924:	00040513          	mv	a0,s0
     928:	638010ef          	jal	1f60 <_fclose_r>
     92c:	00c42583          	lw	a1,12(s0)
     930:	10000797          	auipc	a5,0x10000
     934:	ce878793          	addi	a5,a5,-792 # 10000618 <__sf+0xd0>
     938:	00f58c63          	beq	a1,a5,950 <cleanup_stdio+0x60>
     93c:	00040513          	mv	a0,s0
     940:	00812403          	lw	s0,8(sp)
     944:	00c12083          	lw	ra,12(sp)
     948:	01010113          	addi	sp,sp,16
     94c:	6140106f          	j	1f60 <_fclose_r>
     950:	00c12083          	lw	ra,12(sp)
     954:	00812403          	lw	s0,8(sp)
     958:	01010113          	addi	sp,sp,16
     95c:	00008067          	ret

00000960 <__fp_lock>:
     960:	0645a783          	lw	a5,100(a1)
     964:	0017f793          	andi	a5,a5,1
     968:	00079863          	bnez	a5,978 <__fp_lock+0x18>
     96c:	00c5d783          	lhu	a5,12(a1)
     970:	2007f793          	andi	a5,a5,512
     974:	00078663          	beqz	a5,980 <__fp_lock+0x20>
     978:	00000513          	li	a0,0
     97c:	00008067          	ret
     980:	0585a503          	lw	a0,88(a1)
     984:	ff010113          	addi	sp,sp,-16
     988:	00112623          	sw	ra,12(sp)
     98c:	139000ef          	jal	12c4 <__retarget_lock_acquire_recursive>
     990:	00c12083          	lw	ra,12(sp)
     994:	00000513          	li	a0,0
     998:	01010113          	addi	sp,sp,16
     99c:	00008067          	ret

000009a0 <__fp_unlock>:
     9a0:	0645a783          	lw	a5,100(a1)
     9a4:	0017f793          	andi	a5,a5,1
     9a8:	00079863          	bnez	a5,9b8 <__fp_unlock+0x18>
     9ac:	00c5d783          	lhu	a5,12(a1)
     9b0:	2007f793          	andi	a5,a5,512
     9b4:	00078663          	beqz	a5,9c0 <__fp_unlock+0x20>
     9b8:	00000513          	li	a0,0
     9bc:	00008067          	ret
     9c0:	0585a503          	lw	a0,88(a1)
     9c4:	ff010113          	addi	sp,sp,-16
     9c8:	00112623          	sw	ra,12(sp)
     9cc:	111000ef          	jal	12dc <__retarget_lock_release_recursive>
     9d0:	00c12083          	lw	ra,12(sp)
     9d4:	00000513          	li	a0,0
     9d8:	01010113          	addi	sp,sp,16
     9dc:	00008067          	ret

000009e0 <global_stdio_init.part.0>:
     9e0:	fe010113          	addi	sp,sp,-32
     9e4:	00112e23          	sw	ra,28(sp)
     9e8:	00812c23          	sw	s0,24(sp)
     9ec:	00912a23          	sw	s1,20(sp)
     9f0:	10000417          	auipc	s0,0x10000
     9f4:	b5840413          	addi	s0,s0,-1192 # 10000548 <__sf>
     9f8:	01212823          	sw	s2,16(sp)
     9fc:	01312623          	sw	s3,12(sp)
     a00:	01412423          	sw	s4,8(sp)
     a04:	00000717          	auipc	a4,0x0
     a08:	ed070713          	addi	a4,a4,-304 # 8d4 <stdio_exit_handler>
     a0c:	00400793          	li	a5,4
     a10:	00800613          	li	a2,8
     a14:	00000593          	li	a1,0
     a18:	10000517          	auipc	a0,0x10000
     a1c:	b8c50513          	addi	a0,a0,-1140 # 100005a4 <__sf+0x5c>
     a20:	00002697          	auipc	a3,0x2
     a24:	0ae6a623          	sw	a4,172(a3) # 2acc <__stdio_exit_handler>
     a28:	00f42623          	sw	a5,12(s0)
     a2c:	00042023          	sw	zero,0(s0)
     a30:	00042223          	sw	zero,4(s0)
     a34:	00042423          	sw	zero,8(s0)
     a38:	06042223          	sw	zero,100(s0)
     a3c:	00042823          	sw	zero,16(s0)
     a40:	00042a23          	sw	zero,20(s0)
     a44:	00042c23          	sw	zero,24(s0)
     a48:	d21ff0ef          	jal	768 <memset>
     a4c:	00000a17          	auipc	s4,0x0
     a50:	420a0a13          	addi	s4,s4,1056 # e6c <__sread>
     a54:	00000997          	auipc	s3,0x0
     a58:	47c98993          	addi	s3,s3,1148 # ed0 <__swrite>
     a5c:	00000917          	auipc	s2,0x0
     a60:	4fc90913          	addi	s2,s2,1276 # f58 <__sseek>
     a64:	00000497          	auipc	s1,0x0
     a68:	55848493          	addi	s1,s1,1368 # fbc <__sclose>
     a6c:	10000517          	auipc	a0,0x10000
     a70:	b3450513          	addi	a0,a0,-1228 # 100005a0 <__sf+0x58>
     a74:	03442023          	sw	s4,32(s0)
     a78:	03342223          	sw	s3,36(s0)
     a7c:	03242423          	sw	s2,40(s0)
     a80:	02942623          	sw	s1,44(s0)
     a84:	00842e23          	sw	s0,28(s0)
     a88:	02d000ef          	jal	12b4 <__retarget_lock_init_recursive>
     a8c:	000107b7          	lui	a5,0x10
     a90:	00978793          	addi	a5,a5,9 # 10009 <_end+0xd509>
     a94:	00800613          	li	a2,8
     a98:	00000593          	li	a1,0
     a9c:	10000517          	auipc	a0,0x10000
     aa0:	b7050513          	addi	a0,a0,-1168 # 1000060c <__sf+0xc4>
     aa4:	06f42a23          	sw	a5,116(s0)
     aa8:	06042423          	sw	zero,104(s0)
     aac:	06042623          	sw	zero,108(s0)
     ab0:	06042823          	sw	zero,112(s0)
     ab4:	0c042623          	sw	zero,204(s0)
     ab8:	06042c23          	sw	zero,120(s0)
     abc:	06042e23          	sw	zero,124(s0)
     ac0:	08042023          	sw	zero,128(s0)
     ac4:	ca5ff0ef          	jal	768 <memset>
     ac8:	10000797          	auipc	a5,0x10000
     acc:	ae878793          	addi	a5,a5,-1304 # 100005b0 <__sf+0x68>
     ad0:	10000517          	auipc	a0,0x10000
     ad4:	b3850513          	addi	a0,a0,-1224 # 10000608 <__sf+0xc0>
     ad8:	09442423          	sw	s4,136(s0)
     adc:	09342623          	sw	s3,140(s0)
     ae0:	09242823          	sw	s2,144(s0)
     ae4:	08942a23          	sw	s1,148(s0)
     ae8:	08f42223          	sw	a5,132(s0)
     aec:	7c8000ef          	jal	12b4 <__retarget_lock_init_recursive>
     af0:	000207b7          	lui	a5,0x20
     af4:	01278793          	addi	a5,a5,18 # 20012 <_end+0x1d512>
     af8:	00800613          	li	a2,8
     afc:	00000593          	li	a1,0
     b00:	10000517          	auipc	a0,0x10000
     b04:	b7450513          	addi	a0,a0,-1164 # 10000674 <__sf+0x12c>
     b08:	0cf42e23          	sw	a5,220(s0)
     b0c:	0c042823          	sw	zero,208(s0)
     b10:	0c042a23          	sw	zero,212(s0)
     b14:	0c042c23          	sw	zero,216(s0)
     b18:	12042a23          	sw	zero,308(s0)
     b1c:	0e042023          	sw	zero,224(s0)
     b20:	0e042223          	sw	zero,228(s0)
     b24:	0e042423          	sw	zero,232(s0)
     b28:	c41ff0ef          	jal	768 <memset>
     b2c:	10000797          	auipc	a5,0x10000
     b30:	aec78793          	addi	a5,a5,-1300 # 10000618 <__sf+0xd0>
     b34:	0f442823          	sw	s4,240(s0)
     b38:	0f342a23          	sw	s3,244(s0)
     b3c:	0f242c23          	sw	s2,248(s0)
     b40:	0e942e23          	sw	s1,252(s0)
     b44:	0ef42623          	sw	a5,236(s0)
     b48:	01812403          	lw	s0,24(sp)
     b4c:	01c12083          	lw	ra,28(sp)
     b50:	01412483          	lw	s1,20(sp)
     b54:	01012903          	lw	s2,16(sp)
     b58:	00c12983          	lw	s3,12(sp)
     b5c:	00812a03          	lw	s4,8(sp)
     b60:	10000517          	auipc	a0,0x10000
     b64:	b1050513          	addi	a0,a0,-1264 # 10000670 <__sf+0x128>
     b68:	02010113          	addi	sp,sp,32
     b6c:	7480006f          	j	12b4 <__retarget_lock_init_recursive>

00000b70 <__sfp>:
     b70:	fe010113          	addi	sp,sp,-32
     b74:	01312623          	sw	s3,12(sp)
     b78:	00050993          	mv	s3,a0
     b7c:	00002517          	auipc	a0,0x2
     b80:	f7450513          	addi	a0,a0,-140 # 2af0 <__lock___sfp_recursive_mutex>
     b84:	00112e23          	sw	ra,28(sp)
     b88:	00812c23          	sw	s0,24(sp)
     b8c:	00912a23          	sw	s1,20(sp)
     b90:	01212823          	sw	s2,16(sp)
     b94:	730000ef          	jal	12c4 <__retarget_lock_acquire_recursive>
     b98:	00002797          	auipc	a5,0x2
     b9c:	f347a783          	lw	a5,-204(a5) # 2acc <__stdio_exit_handler>
     ba0:	10078263          	beqz	a5,ca4 <__sfp+0x134>
     ba4:	0ffff917          	auipc	s2,0xffff
     ba8:	57c90913          	addi	s2,s2,1404 # 10000120 <__sglue>
     bac:	fff00493          	li	s1,-1
     bb0:	00492783          	lw	a5,4(s2)
     bb4:	00892403          	lw	s0,8(s2)
     bb8:	fff78793          	addi	a5,a5,-1
     bbc:	0007d863          	bgez	a5,bcc <__sfp+0x5c>
     bc0:	0940006f          	j	c54 <__sfp+0xe4>
     bc4:	06840413          	addi	s0,s0,104
     bc8:	08978663          	beq	a5,s1,c54 <__sfp+0xe4>
     bcc:	00c41703          	lh	a4,12(s0)
     bd0:	fff78793          	addi	a5,a5,-1
     bd4:	fe0718e3          	bnez	a4,bc4 <__sfp+0x54>
     bd8:	ffff07b7          	lui	a5,0xffff0
     bdc:	00178793          	addi	a5,a5,1 # ffff0001 <_stack_top+0xeffec001>
     be0:	00f42623          	sw	a5,12(s0)
     be4:	05840513          	addi	a0,s0,88
     be8:	06042223          	sw	zero,100(s0)
     bec:	6c8000ef          	jal	12b4 <__retarget_lock_init_recursive>
     bf0:	00002517          	auipc	a0,0x2
     bf4:	f0050513          	addi	a0,a0,-256 # 2af0 <__lock___sfp_recursive_mutex>
     bf8:	6e4000ef          	jal	12dc <__retarget_lock_release_recursive>
     bfc:	05c40513          	addi	a0,s0,92
     c00:	00042023          	sw	zero,0(s0)
     c04:	00042423          	sw	zero,8(s0)
     c08:	00042223          	sw	zero,4(s0)
     c0c:	00042823          	sw	zero,16(s0)
     c10:	00042a23          	sw	zero,20(s0)
     c14:	00042c23          	sw	zero,24(s0)
     c18:	00800613          	li	a2,8
     c1c:	00000593          	li	a1,0
     c20:	b49ff0ef          	jal	768 <memset>
     c24:	02042823          	sw	zero,48(s0)
     c28:	02042a23          	sw	zero,52(s0)
     c2c:	04042223          	sw	zero,68(s0)
     c30:	04042423          	sw	zero,72(s0)
     c34:	01c12083          	lw	ra,28(sp)
     c38:	00040513          	mv	a0,s0
     c3c:	01812403          	lw	s0,24(sp)
     c40:	01412483          	lw	s1,20(sp)
     c44:	01012903          	lw	s2,16(sp)
     c48:	00c12983          	lw	s3,12(sp)
     c4c:	02010113          	addi	sp,sp,32
     c50:	00008067          	ret
     c54:	00092403          	lw	s0,0(s2)
     c58:	00040663          	beqz	s0,c64 <__sfp+0xf4>
     c5c:	00040913          	mv	s2,s0
     c60:	f51ff06f          	j	bb0 <__sfp+0x40>
     c64:	1ac00593          	li	a1,428
     c68:	00098513          	mv	a0,s3
     c6c:	2b1000ef          	jal	171c <_malloc_r>
     c70:	00050413          	mv	s0,a0
     c74:	02050c63          	beqz	a0,cac <__sfp+0x13c>
     c78:	00400793          	li	a5,4
     c7c:	00c50513          	addi	a0,a0,12
     c80:	00042023          	sw	zero,0(s0)
     c84:	00f42223          	sw	a5,4(s0)
     c88:	00a42423          	sw	a0,8(s0)
     c8c:	1a000613          	li	a2,416
     c90:	00000593          	li	a1,0
     c94:	ad5ff0ef          	jal	768 <memset>
     c98:	00892023          	sw	s0,0(s2)
     c9c:	00040913          	mv	s2,s0
     ca0:	f11ff06f          	j	bb0 <__sfp+0x40>
     ca4:	d3dff0ef          	jal	9e0 <global_stdio_init.part.0>
     ca8:	efdff06f          	j	ba4 <__sfp+0x34>
     cac:	00092023          	sw	zero,0(s2)
     cb0:	00002517          	auipc	a0,0x2
     cb4:	e4050513          	addi	a0,a0,-448 # 2af0 <__lock___sfp_recursive_mutex>
     cb8:	624000ef          	jal	12dc <__retarget_lock_release_recursive>
     cbc:	00c00793          	li	a5,12
     cc0:	00f9a023          	sw	a5,0(s3)
     cc4:	f71ff06f          	j	c34 <__sfp+0xc4>

00000cc8 <__sinit>:
     cc8:	ff010113          	addi	sp,sp,-16
     ccc:	00812423          	sw	s0,8(sp)
     cd0:	00050413          	mv	s0,a0
     cd4:	00002517          	auipc	a0,0x2
     cd8:	e1c50513          	addi	a0,a0,-484 # 2af0 <__lock___sfp_recursive_mutex>
     cdc:	00112623          	sw	ra,12(sp)
     ce0:	5e4000ef          	jal	12c4 <__retarget_lock_acquire_recursive>
     ce4:	03442783          	lw	a5,52(s0)
     ce8:	00079e63          	bnez	a5,d04 <__sinit+0x3c>
     cec:	00002797          	auipc	a5,0x2
     cf0:	de07a783          	lw	a5,-544(a5) # 2acc <__stdio_exit_handler>
     cf4:	00000717          	auipc	a4,0x0
     cf8:	bfc70713          	addi	a4,a4,-1028 # 8f0 <cleanup_stdio>
     cfc:	02e42a23          	sw	a4,52(s0)
     d00:	00078e63          	beqz	a5,d1c <__sinit+0x54>
     d04:	00812403          	lw	s0,8(sp)
     d08:	00c12083          	lw	ra,12(sp)
     d0c:	00002517          	auipc	a0,0x2
     d10:	de450513          	addi	a0,a0,-540 # 2af0 <__lock___sfp_recursive_mutex>
     d14:	01010113          	addi	sp,sp,16
     d18:	5c40006f          	j	12dc <__retarget_lock_release_recursive>
     d1c:	cc5ff0ef          	jal	9e0 <global_stdio_init.part.0>
     d20:	00812403          	lw	s0,8(sp)
     d24:	00c12083          	lw	ra,12(sp)
     d28:	00002517          	auipc	a0,0x2
     d2c:	dc850513          	addi	a0,a0,-568 # 2af0 <__lock___sfp_recursive_mutex>
     d30:	01010113          	addi	sp,sp,16
     d34:	5a80006f          	j	12dc <__retarget_lock_release_recursive>

00000d38 <__sfp_lock_acquire>:
     d38:	00002517          	auipc	a0,0x2
     d3c:	db850513          	addi	a0,a0,-584 # 2af0 <__lock___sfp_recursive_mutex>
     d40:	5840006f          	j	12c4 <__retarget_lock_acquire_recursive>

00000d44 <__sfp_lock_release>:
     d44:	00002517          	auipc	a0,0x2
     d48:	dac50513          	addi	a0,a0,-596 # 2af0 <__lock___sfp_recursive_mutex>
     d4c:	5900006f          	j	12dc <__retarget_lock_release_recursive>

00000d50 <__fp_lock_all>:
     d50:	ff010113          	addi	sp,sp,-16
     d54:	00002517          	auipc	a0,0x2
     d58:	d9c50513          	addi	a0,a0,-612 # 2af0 <__lock___sfp_recursive_mutex>
     d5c:	00112623          	sw	ra,12(sp)
     d60:	564000ef          	jal	12c4 <__retarget_lock_acquire_recursive>
     d64:	00c12083          	lw	ra,12(sp)
     d68:	0ffff617          	auipc	a2,0xffff
     d6c:	3b860613          	addi	a2,a2,952 # 10000120 <__sglue>
     d70:	00000597          	auipc	a1,0x0
     d74:	bf058593          	addi	a1,a1,-1040 # 960 <__fp_lock>
     d78:	00000513          	li	a0,0
     d7c:	01010113          	addi	sp,sp,16
     d80:	0380006f          	j	db8 <_fwalk_sglue>

00000d84 <__fp_unlock_all>:
     d84:	ff010113          	addi	sp,sp,-16
     d88:	0ffff617          	auipc	a2,0xffff
     d8c:	39860613          	addi	a2,a2,920 # 10000120 <__sglue>
     d90:	00000597          	auipc	a1,0x0
     d94:	c1058593          	addi	a1,a1,-1008 # 9a0 <__fp_unlock>
     d98:	00000513          	li	a0,0
     d9c:	00112623          	sw	ra,12(sp)
     da0:	018000ef          	jal	db8 <_fwalk_sglue>
     da4:	00c12083          	lw	ra,12(sp)
     da8:	00002517          	auipc	a0,0x2
     dac:	d4850513          	addi	a0,a0,-696 # 2af0 <__lock___sfp_recursive_mutex>
     db0:	01010113          	addi	sp,sp,16
     db4:	5280006f          	j	12dc <__retarget_lock_release_recursive>

00000db8 <_fwalk_sglue>:
     db8:	fd010113          	addi	sp,sp,-48
     dbc:	03212023          	sw	s2,32(sp)
     dc0:	01312e23          	sw	s3,28(sp)
     dc4:	01412c23          	sw	s4,24(sp)
     dc8:	01512a23          	sw	s5,20(sp)
     dcc:	01612823          	sw	s6,16(sp)
     dd0:	01712623          	sw	s7,12(sp)
     dd4:	02112623          	sw	ra,44(sp)
     dd8:	02812423          	sw	s0,40(sp)
     ddc:	02912223          	sw	s1,36(sp)
     de0:	00050b13          	mv	s6,a0
     de4:	00058b93          	mv	s7,a1
     de8:	00060a93          	mv	s5,a2
     dec:	00000a13          	li	s4,0
     df0:	00100993          	li	s3,1
     df4:	fff00913          	li	s2,-1
     df8:	004aa483          	lw	s1,4(s5)
     dfc:	008aa403          	lw	s0,8(s5)
     e00:	fff48493          	addi	s1,s1,-1
     e04:	0204c863          	bltz	s1,e34 <_fwalk_sglue+0x7c>
     e08:	00c45783          	lhu	a5,12(s0)
     e0c:	00f9fe63          	bgeu	s3,a5,e28 <_fwalk_sglue+0x70>
     e10:	00e41783          	lh	a5,14(s0)
     e14:	00040593          	mv	a1,s0
     e18:	000b0513          	mv	a0,s6
     e1c:	01278663          	beq	a5,s2,e28 <_fwalk_sglue+0x70>
     e20:	000b80e7          	jalr	s7
     e24:	00aa6a33          	or	s4,s4,a0
     e28:	fff48493          	addi	s1,s1,-1
     e2c:	06840413          	addi	s0,s0,104
     e30:	fd249ce3          	bne	s1,s2,e08 <_fwalk_sglue+0x50>
     e34:	000aaa83          	lw	s5,0(s5)
     e38:	fc0a90e3          	bnez	s5,df8 <_fwalk_sglue+0x40>
     e3c:	02c12083          	lw	ra,44(sp)
     e40:	02812403          	lw	s0,40(sp)
     e44:	02412483          	lw	s1,36(sp)
     e48:	02012903          	lw	s2,32(sp)
     e4c:	01c12983          	lw	s3,28(sp)
     e50:	01412a83          	lw	s5,20(sp)
     e54:	01012b03          	lw	s6,16(sp)
     e58:	00c12b83          	lw	s7,12(sp)
     e5c:	000a0513          	mv	a0,s4
     e60:	01812a03          	lw	s4,24(sp)
     e64:	03010113          	addi	sp,sp,48
     e68:	00008067          	ret

00000e6c <__sread>:
     e6c:	ff010113          	addi	sp,sp,-16
     e70:	00812423          	sw	s0,8(sp)
     e74:	00058413          	mv	s0,a1
     e78:	00e59583          	lh	a1,14(a1)
     e7c:	00112623          	sw	ra,12(sp)
     e80:	328000ef          	jal	11a8 <_read_r>
     e84:	02054063          	bltz	a0,ea4 <__sread+0x38>
     e88:	05042783          	lw	a5,80(s0)
     e8c:	00c12083          	lw	ra,12(sp)
     e90:	00a787b3          	add	a5,a5,a0
     e94:	04f42823          	sw	a5,80(s0)
     e98:	00812403          	lw	s0,8(sp)
     e9c:	01010113          	addi	sp,sp,16
     ea0:	00008067          	ret
     ea4:	00c45783          	lhu	a5,12(s0)
     ea8:	fffff737          	lui	a4,0xfffff
     eac:	fff70713          	addi	a4,a4,-1 # ffffefff <_stack_top+0xefffafff>
     eb0:	00e7f7b3          	and	a5,a5,a4
     eb4:	00c12083          	lw	ra,12(sp)
     eb8:	00f41623          	sh	a5,12(s0)
     ebc:	00812403          	lw	s0,8(sp)
     ec0:	01010113          	addi	sp,sp,16
     ec4:	00008067          	ret

00000ec8 <__seofread>:
     ec8:	00000513          	li	a0,0
     ecc:	00008067          	ret

00000ed0 <__swrite>:
     ed0:	00c59783          	lh	a5,12(a1)
     ed4:	fe010113          	addi	sp,sp,-32
     ed8:	00812c23          	sw	s0,24(sp)
     edc:	00912a23          	sw	s1,20(sp)
     ee0:	01212823          	sw	s2,16(sp)
     ee4:	01312623          	sw	s3,12(sp)
     ee8:	00112e23          	sw	ra,28(sp)
     eec:	1007f713          	andi	a4,a5,256
     ef0:	00058413          	mv	s0,a1
     ef4:	00060913          	mv	s2,a2
     ef8:	00068993          	mv	s3,a3
     efc:	00050493          	mv	s1,a0
     f00:	04071063          	bnez	a4,f40 <__swrite+0x70>
     f04:	fffff737          	lui	a4,0xfffff
     f08:	fff70713          	addi	a4,a4,-1 # ffffefff <_stack_top+0xefffafff>
     f0c:	00e7f7b3          	and	a5,a5,a4
     f10:	00e41583          	lh	a1,14(s0)
     f14:	00f41623          	sh	a5,12(s0)
     f18:	01812403          	lw	s0,24(sp)
     f1c:	01c12083          	lw	ra,28(sp)
     f20:	00098693          	mv	a3,s3
     f24:	00090613          	mv	a2,s2
     f28:	00c12983          	lw	s3,12(sp)
     f2c:	01012903          	lw	s2,16(sp)
     f30:	00048513          	mv	a0,s1
     f34:	01412483          	lw	s1,20(sp)
     f38:	02010113          	addi	sp,sp,32
     f3c:	2f00006f          	j	122c <_write_r>
     f40:	00e59583          	lh	a1,14(a1)
     f44:	00200693          	li	a3,2
     f48:	00000613          	li	a2,0
     f4c:	1d8000ef          	jal	1124 <_lseek_r>
     f50:	00c41783          	lh	a5,12(s0)
     f54:	fb1ff06f          	j	f04 <__swrite+0x34>

00000f58 <__sseek>:
     f58:	ff010113          	addi	sp,sp,-16
     f5c:	00812423          	sw	s0,8(sp)
     f60:	00058413          	mv	s0,a1
     f64:	00e59583          	lh	a1,14(a1)
     f68:	00112623          	sw	ra,12(sp)
     f6c:	1b8000ef          	jal	1124 <_lseek_r>
     f70:	fff00713          	li	a4,-1
     f74:	00c41783          	lh	a5,12(s0)
     f78:	02e50263          	beq	a0,a4,f9c <__sseek+0x44>
     f7c:	00001737          	lui	a4,0x1
     f80:	00e7e7b3          	or	a5,a5,a4
     f84:	00c12083          	lw	ra,12(sp)
     f88:	04a42823          	sw	a0,80(s0)
     f8c:	00f41623          	sh	a5,12(s0)
     f90:	00812403          	lw	s0,8(sp)
     f94:	01010113          	addi	sp,sp,16
     f98:	00008067          	ret
     f9c:	fffff737          	lui	a4,0xfffff
     fa0:	fff70713          	addi	a4,a4,-1 # ffffefff <_stack_top+0xefffafff>
     fa4:	00e7f7b3          	and	a5,a5,a4
     fa8:	00c12083          	lw	ra,12(sp)
     fac:	00f41623          	sh	a5,12(s0)
     fb0:	00812403          	lw	s0,8(sp)
     fb4:	01010113          	addi	sp,sp,16
     fb8:	00008067          	ret

00000fbc <__sclose>:
     fbc:	00e59583          	lh	a1,14(a1)
     fc0:	0040006f          	j	fc4 <_close_r>

00000fc4 <_close_r>:
     fc4:	ff010113          	addi	sp,sp,-16
     fc8:	00812423          	sw	s0,8(sp)
     fcc:	00050413          	mv	s0,a0
     fd0:	00058513          	mv	a0,a1
     fd4:	00002797          	auipc	a5,0x2
     fd8:	ae07ae23          	sw	zero,-1284(a5) # 2ad0 <errno>
     fdc:	00112623          	sw	ra,12(sp)
     fe0:	ae0ff0ef          	jal	2c0 <_close>
     fe4:	fff00793          	li	a5,-1
     fe8:	00f50a63          	beq	a0,a5,ffc <_close_r+0x38>
     fec:	00c12083          	lw	ra,12(sp)
     ff0:	00812403          	lw	s0,8(sp)
     ff4:	01010113          	addi	sp,sp,16
     ff8:	00008067          	ret
     ffc:	00912223          	sw	s1,4(sp)
    1000:	00002497          	auipc	s1,0x2
    1004:	ad048493          	addi	s1,s1,-1328 # 2ad0 <errno>
    1008:	0004a783          	lw	a5,0(s1)
    100c:	00078e63          	beqz	a5,1028 <_close_r+0x64>
    1010:	00c12083          	lw	ra,12(sp)
    1014:	00f42023          	sw	a5,0(s0)
    1018:	00812403          	lw	s0,8(sp)
    101c:	00412483          	lw	s1,4(sp)
    1020:	01010113          	addi	sp,sp,16
    1024:	00008067          	ret
    1028:	00c12083          	lw	ra,12(sp)
    102c:	00812403          	lw	s0,8(sp)
    1030:	00412483          	lw	s1,4(sp)
    1034:	01010113          	addi	sp,sp,16
    1038:	00008067          	ret

0000103c <_reclaim_reent>:
    103c:	0ffff797          	auipc	a5,0xffff
    1040:	5007a783          	lw	a5,1280(a5) # 1000053c <_impure_ptr>
    1044:	0ca78e63          	beq	a5,a0,1120 <_reclaim_reent+0xe4>
    1048:	04452583          	lw	a1,68(a0)
    104c:	fe010113          	addi	sp,sp,-32
    1050:	00912a23          	sw	s1,20(sp)
    1054:	00112e23          	sw	ra,28(sp)
    1058:	00812c23          	sw	s0,24(sp)
    105c:	00050493          	mv	s1,a0
    1060:	04058863          	beqz	a1,10b0 <_reclaim_reent+0x74>
    1064:	01212823          	sw	s2,16(sp)
    1068:	01312623          	sw	s3,12(sp)
    106c:	00000913          	li	s2,0
    1070:	08000993          	li	s3,128
    1074:	012587b3          	add	a5,a1,s2
    1078:	0007a403          	lw	s0,0(a5)
    107c:	00040e63          	beqz	s0,1098 <_reclaim_reent+0x5c>
    1080:	00040593          	mv	a1,s0
    1084:	00042403          	lw	s0,0(s0)
    1088:	00048513          	mv	a0,s1
    108c:	398000ef          	jal	1424 <_free_r>
    1090:	fe0418e3          	bnez	s0,1080 <_reclaim_reent+0x44>
    1094:	0444a583          	lw	a1,68(s1)
    1098:	00490913          	addi	s2,s2,4
    109c:	fd391ce3          	bne	s2,s3,1074 <_reclaim_reent+0x38>
    10a0:	00048513          	mv	a0,s1
    10a4:	380000ef          	jal	1424 <_free_r>
    10a8:	01012903          	lw	s2,16(sp)
    10ac:	00c12983          	lw	s3,12(sp)
    10b0:	0384a583          	lw	a1,56(s1)
    10b4:	00058663          	beqz	a1,10c0 <_reclaim_reent+0x84>
    10b8:	00048513          	mv	a0,s1
    10bc:	368000ef          	jal	1424 <_free_r>
    10c0:	0404a403          	lw	s0,64(s1)
    10c4:	00040c63          	beqz	s0,10dc <_reclaim_reent+0xa0>
    10c8:	00040593          	mv	a1,s0
    10cc:	00042403          	lw	s0,0(s0)
    10d0:	00048513          	mv	a0,s1
    10d4:	350000ef          	jal	1424 <_free_r>
    10d8:	fe0418e3          	bnez	s0,10c8 <_reclaim_reent+0x8c>
    10dc:	04c4a583          	lw	a1,76(s1)
    10e0:	00058663          	beqz	a1,10ec <_reclaim_reent+0xb0>
    10e4:	00048513          	mv	a0,s1
    10e8:	33c000ef          	jal	1424 <_free_r>
    10ec:	0344a783          	lw	a5,52(s1)
    10f0:	00078e63          	beqz	a5,110c <_reclaim_reent+0xd0>
    10f4:	01812403          	lw	s0,24(sp)
    10f8:	01c12083          	lw	ra,28(sp)
    10fc:	00048513          	mv	a0,s1
    1100:	01412483          	lw	s1,20(sp)
    1104:	02010113          	addi	sp,sp,32
    1108:	00078067          	jr	a5
    110c:	01c12083          	lw	ra,28(sp)
    1110:	01812403          	lw	s0,24(sp)
    1114:	01412483          	lw	s1,20(sp)
    1118:	02010113          	addi	sp,sp,32
    111c:	00008067          	ret
    1120:	00008067          	ret

00001124 <_lseek_r>:
    1124:	ff010113          	addi	sp,sp,-16
    1128:	00058713          	mv	a4,a1
    112c:	00812423          	sw	s0,8(sp)
    1130:	00060593          	mv	a1,a2
    1134:	00050413          	mv	s0,a0
    1138:	00068613          	mv	a2,a3
    113c:	00070513          	mv	a0,a4
    1140:	00002797          	auipc	a5,0x2
    1144:	9807a823          	sw	zero,-1648(a5) # 2ad0 <errno>
    1148:	00112623          	sw	ra,12(sp)
    114c:	a08ff0ef          	jal	354 <_lseek>
    1150:	fff00793          	li	a5,-1
    1154:	00f50a63          	beq	a0,a5,1168 <_lseek_r+0x44>
    1158:	00c12083          	lw	ra,12(sp)
    115c:	00812403          	lw	s0,8(sp)
    1160:	01010113          	addi	sp,sp,16
    1164:	00008067          	ret
    1168:	00912223          	sw	s1,4(sp)
    116c:	00002497          	auipc	s1,0x2
    1170:	96448493          	addi	s1,s1,-1692 # 2ad0 <errno>
    1174:	0004a783          	lw	a5,0(s1)
    1178:	00078e63          	beqz	a5,1194 <_lseek_r+0x70>
    117c:	00c12083          	lw	ra,12(sp)
    1180:	00f42023          	sw	a5,0(s0)
    1184:	00812403          	lw	s0,8(sp)
    1188:	00412483          	lw	s1,4(sp)
    118c:	01010113          	addi	sp,sp,16
    1190:	00008067          	ret
    1194:	00c12083          	lw	ra,12(sp)
    1198:	00812403          	lw	s0,8(sp)
    119c:	00412483          	lw	s1,4(sp)
    11a0:	01010113          	addi	sp,sp,16
    11a4:	00008067          	ret

000011a8 <_read_r>:
    11a8:	ff010113          	addi	sp,sp,-16
    11ac:	00058713          	mv	a4,a1
    11b0:	00812423          	sw	s0,8(sp)
    11b4:	00060593          	mv	a1,a2
    11b8:	00050413          	mv	s0,a0
    11bc:	00068613          	mv	a2,a3
    11c0:	00070513          	mv	a0,a4
    11c4:	00002797          	auipc	a5,0x2
    11c8:	9007a623          	sw	zero,-1780(a5) # 2ad0 <errno>
    11cc:	00112623          	sw	ra,12(sp)
    11d0:	850ff0ef          	jal	220 <_read>
    11d4:	fff00793          	li	a5,-1
    11d8:	00f50a63          	beq	a0,a5,11ec <_read_r+0x44>
    11dc:	00c12083          	lw	ra,12(sp)
    11e0:	00812403          	lw	s0,8(sp)
    11e4:	01010113          	addi	sp,sp,16
    11e8:	00008067          	ret
    11ec:	00912223          	sw	s1,4(sp)
    11f0:	00002497          	auipc	s1,0x2
    11f4:	8e048493          	addi	s1,s1,-1824 # 2ad0 <errno>
    11f8:	0004a783          	lw	a5,0(s1)
    11fc:	00078e63          	beqz	a5,1218 <_read_r+0x70>
    1200:	00c12083          	lw	ra,12(sp)
    1204:	00f42023          	sw	a5,0(s0)
    1208:	00812403          	lw	s0,8(sp)
    120c:	00412483          	lw	s1,4(sp)
    1210:	01010113          	addi	sp,sp,16
    1214:	00008067          	ret
    1218:	00c12083          	lw	ra,12(sp)
    121c:	00812403          	lw	s0,8(sp)
    1220:	00412483          	lw	s1,4(sp)
    1224:	01010113          	addi	sp,sp,16
    1228:	00008067          	ret

0000122c <_write_r>:
    122c:	ff010113          	addi	sp,sp,-16
    1230:	00058713          	mv	a4,a1
    1234:	00812423          	sw	s0,8(sp)
    1238:	00060593          	mv	a1,a2
    123c:	00050413          	mv	s0,a0
    1240:	00068613          	mv	a2,a3
    1244:	00070513          	mv	a0,a4
    1248:	00002797          	auipc	a5,0x2
    124c:	8807a423          	sw	zero,-1912(a5) # 2ad0 <errno>
    1250:	00112623          	sw	ra,12(sp)
    1254:	800ff0ef          	jal	254 <_write>
    1258:	fff00793          	li	a5,-1
    125c:	00f50a63          	beq	a0,a5,1270 <_write_r+0x44>
    1260:	00c12083          	lw	ra,12(sp)
    1264:	00812403          	lw	s0,8(sp)
    1268:	01010113          	addi	sp,sp,16
    126c:	00008067          	ret
    1270:	00912223          	sw	s1,4(sp)
    1274:	00002497          	auipc	s1,0x2
    1278:	85c48493          	addi	s1,s1,-1956 # 2ad0 <errno>
    127c:	0004a783          	lw	a5,0(s1)
    1280:	00078e63          	beqz	a5,129c <_write_r+0x70>
    1284:	00c12083          	lw	ra,12(sp)
    1288:	00f42023          	sw	a5,0(s0)
    128c:	00812403          	lw	s0,8(sp)
    1290:	00412483          	lw	s1,4(sp)
    1294:	01010113          	addi	sp,sp,16
    1298:	00008067          	ret
    129c:	00c12083          	lw	ra,12(sp)
    12a0:	00812403          	lw	s0,8(sp)
    12a4:	00412483          	lw	s1,4(sp)
    12a8:	01010113          	addi	sp,sp,16
    12ac:	00008067          	ret

000012b0 <__retarget_lock_init>:
    12b0:	00008067          	ret

000012b4 <__retarget_lock_init_recursive>:
    12b4:	00008067          	ret

000012b8 <__retarget_lock_close>:
    12b8:	00008067          	ret

000012bc <__retarget_lock_close_recursive>:
    12bc:	00008067          	ret

000012c0 <__retarget_lock_acquire>:
    12c0:	00008067          	ret

000012c4 <__retarget_lock_acquire_recursive>:
    12c4:	00008067          	ret

000012c8 <__retarget_lock_try_acquire>:
    12c8:	00100513          	li	a0,1
    12cc:	00008067          	ret

000012d0 <__retarget_lock_try_acquire_recursive>:
    12d0:	00100513          	li	a0,1
    12d4:	00008067          	ret

000012d8 <__retarget_lock_release>:
    12d8:	00008067          	ret

000012dc <__retarget_lock_release_recursive>:
    12dc:	00008067          	ret

000012e0 <_malloc_trim_r>:
    12e0:	fe010113          	addi	sp,sp,-32
    12e4:	00812c23          	sw	s0,24(sp)
    12e8:	00912a23          	sw	s1,20(sp)
    12ec:	01212823          	sw	s2,16(sp)
    12f0:	01312623          	sw	s3,12(sp)
    12f4:	01412423          	sw	s4,8(sp)
    12f8:	00058993          	mv	s3,a1
    12fc:	00112e23          	sw	ra,28(sp)
    1300:	00050913          	mv	s2,a0
    1304:	0ffffa17          	auipc	s4,0xffff
    1308:	e28a0a13          	addi	s4,s4,-472 # 1000012c <__malloc_av_>
    130c:	43d000ef          	jal	1f48 <__malloc_lock>
    1310:	008a2783          	lw	a5,8(s4)
    1314:	00001437          	lui	s0,0x1
    1318:	fef40413          	addi	s0,s0,-17 # fef <_close_r+0x2b>
    131c:	0047a483          	lw	s1,4(a5)
    1320:	000017b7          	lui	a5,0x1
    1324:	ffc4f493          	andi	s1,s1,-4
    1328:	00848433          	add	s0,s1,s0
    132c:	41340433          	sub	s0,s0,s3
    1330:	00c45413          	srli	s0,s0,0xc
    1334:	fff40413          	addi	s0,s0,-1
    1338:	00c41413          	slli	s0,s0,0xc
    133c:	00f44e63          	blt	s0,a5,1358 <_malloc_trim_r+0x78>
    1340:	00000593          	li	a1,0
    1344:	00090513          	mv	a0,s2
    1348:	1a0010ef          	jal	24e8 <_sbrk_r>
    134c:	008a2783          	lw	a5,8(s4)
    1350:	009787b3          	add	a5,a5,s1
    1354:	02f50863          	beq	a0,a5,1384 <_malloc_trim_r+0xa4>
    1358:	00090513          	mv	a0,s2
    135c:	3f9000ef          	jal	1f54 <__malloc_unlock>
    1360:	01c12083          	lw	ra,28(sp)
    1364:	01812403          	lw	s0,24(sp)
    1368:	01412483          	lw	s1,20(sp)
    136c:	01012903          	lw	s2,16(sp)
    1370:	00c12983          	lw	s3,12(sp)
    1374:	00812a03          	lw	s4,8(sp)
    1378:	00000513          	li	a0,0
    137c:	02010113          	addi	sp,sp,32
    1380:	00008067          	ret
    1384:	408005b3          	neg	a1,s0
    1388:	00090513          	mv	a0,s2
    138c:	15c010ef          	jal	24e8 <_sbrk_r>
    1390:	fff00793          	li	a5,-1
    1394:	04f50a63          	beq	a0,a5,13e8 <_malloc_trim_r+0x108>
    1398:	0ffff717          	auipc	a4,0xffff
    139c:	2e870713          	addi	a4,a4,744 # 10000680 <__malloc_current_mallinfo>
    13a0:	008a2683          	lw	a3,8(s4)
    13a4:	00072783          	lw	a5,0(a4)
    13a8:	408484b3          	sub	s1,s1,s0
    13ac:	0014e493          	ori	s1,s1,1
    13b0:	00090513          	mv	a0,s2
    13b4:	408787b3          	sub	a5,a5,s0
    13b8:	0096a223          	sw	s1,4(a3)
    13bc:	00f72023          	sw	a5,0(a4)
    13c0:	395000ef          	jal	1f54 <__malloc_unlock>
    13c4:	01c12083          	lw	ra,28(sp)
    13c8:	01812403          	lw	s0,24(sp)
    13cc:	01412483          	lw	s1,20(sp)
    13d0:	01012903          	lw	s2,16(sp)
    13d4:	00c12983          	lw	s3,12(sp)
    13d8:	00812a03          	lw	s4,8(sp)
    13dc:	00100513          	li	a0,1
    13e0:	02010113          	addi	sp,sp,32
    13e4:	00008067          	ret
    13e8:	00000593          	li	a1,0
    13ec:	00090513          	mv	a0,s2
    13f0:	0f8010ef          	jal	24e8 <_sbrk_r>
    13f4:	008a2703          	lw	a4,8(s4)
    13f8:	00f00693          	li	a3,15
    13fc:	40e507b3          	sub	a5,a0,a4
    1400:	f4f6dce3          	bge	a3,a5,1358 <_malloc_trim_r+0x78>
    1404:	0ffff697          	auipc	a3,0xffff
    1408:	13c6a683          	lw	a3,316(a3) # 10000540 <__malloc_sbrk_base>
    140c:	0017e793          	ori	a5,a5,1
    1410:	00f72223          	sw	a5,4(a4)
    1414:	40d50533          	sub	a0,a0,a3
    1418:	0ffff797          	auipc	a5,0xffff
    141c:	26a7a423          	sw	a0,616(a5) # 10000680 <__malloc_current_mallinfo>
    1420:	f39ff06f          	j	1358 <_malloc_trim_r+0x78>

00001424 <_free_r>:
    1424:	12058663          	beqz	a1,1550 <_free_r+0x12c>
    1428:	ff010113          	addi	sp,sp,-16
    142c:	00812423          	sw	s0,8(sp)
    1430:	00912223          	sw	s1,4(sp)
    1434:	00058413          	mv	s0,a1
    1438:	00050493          	mv	s1,a0
    143c:	00112623          	sw	ra,12(sp)
    1440:	309000ef          	jal	1f48 <__malloc_lock>
    1444:	ffc42583          	lw	a1,-4(s0)
    1448:	ff840713          	addi	a4,s0,-8
    144c:	0ffff817          	auipc	a6,0xffff
    1450:	ce080813          	addi	a6,a6,-800 # 1000012c <__malloc_av_>
    1454:	ffe5f793          	andi	a5,a1,-2
    1458:	00f70633          	add	a2,a4,a5
    145c:	00462683          	lw	a3,4(a2)
    1460:	00882503          	lw	a0,8(a6)
    1464:	0015f893          	andi	a7,a1,1
    1468:	ffc6f693          	andi	a3,a3,-4
    146c:	18c50c63          	beq	a0,a2,1604 <_free_r+0x1e0>
    1470:	00d62223          	sw	a3,4(a2)
    1474:	00d60533          	add	a0,a2,a3
    1478:	00452503          	lw	a0,4(a0)
    147c:	00157513          	andi	a0,a0,1
    1480:	08089c63          	bnez	a7,1518 <_free_r+0xf4>
    1484:	ff842303          	lw	t1,-8(s0)
    1488:	0ffff897          	auipc	a7,0xffff
    148c:	cac88893          	addi	a7,a7,-852 # 10000134 <__malloc_av_+0x8>
    1490:	40670733          	sub	a4,a4,t1
    1494:	00872583          	lw	a1,8(a4)
    1498:	006787b3          	add	a5,a5,t1
    149c:	13158e63          	beq	a1,a7,15d8 <_free_r+0x1b4>
    14a0:	00c72303          	lw	t1,12(a4)
    14a4:	0065a623          	sw	t1,12(a1)
    14a8:	00b32423          	sw	a1,8(t1)
    14ac:	1a050463          	beqz	a0,1654 <_free_r+0x230>
    14b0:	0017e693          	ori	a3,a5,1
    14b4:	00d72223          	sw	a3,4(a4)
    14b8:	00f62023          	sw	a5,0(a2)
    14bc:	1ff00693          	li	a3,511
    14c0:	0af6e463          	bltu	a3,a5,1568 <_free_r+0x144>
    14c4:	ff87f693          	andi	a3,a5,-8
    14c8:	00868693          	addi	a3,a3,8
    14cc:	00482583          	lw	a1,4(a6)
    14d0:	00d806b3          	add	a3,a6,a3
    14d4:	0006a603          	lw	a2,0(a3)
    14d8:	0057d513          	srli	a0,a5,0x5
    14dc:	00100793          	li	a5,1
    14e0:	00a797b3          	sll	a5,a5,a0
    14e4:	00b7e7b3          	or	a5,a5,a1
    14e8:	ff868593          	addi	a1,a3,-8
    14ec:	00c72423          	sw	a2,8(a4)
    14f0:	00b72623          	sw	a1,12(a4)
    14f4:	00f82223          	sw	a5,4(a6)
    14f8:	00e6a023          	sw	a4,0(a3)
    14fc:	00e62623          	sw	a4,12(a2)
    1500:	00812403          	lw	s0,8(sp)
    1504:	00c12083          	lw	ra,12(sp)
    1508:	00048513          	mv	a0,s1
    150c:	00412483          	lw	s1,4(sp)
    1510:	01010113          	addi	sp,sp,16
    1514:	2410006f          	j	1f54 <__malloc_unlock>
    1518:	02051e63          	bnez	a0,1554 <_free_r+0x130>
    151c:	00d787b3          	add	a5,a5,a3
    1520:	0ffff897          	auipc	a7,0xffff
    1524:	c1488893          	addi	a7,a7,-1004 # 10000134 <__malloc_av_+0x8>
    1528:	00862683          	lw	a3,8(a2)
    152c:	0017e513          	ori	a0,a5,1
    1530:	00f705b3          	add	a1,a4,a5
    1534:	17168663          	beq	a3,a7,16a0 <_free_r+0x27c>
    1538:	00c62603          	lw	a2,12(a2)
    153c:	00c6a623          	sw	a2,12(a3)
    1540:	00d62423          	sw	a3,8(a2)
    1544:	00a72223          	sw	a0,4(a4)
    1548:	00f5a023          	sw	a5,0(a1)
    154c:	f71ff06f          	j	14bc <_free_r+0x98>
    1550:	00008067          	ret
    1554:	0015e593          	ori	a1,a1,1
    1558:	feb42e23          	sw	a1,-4(s0)
    155c:	00f62023          	sw	a5,0(a2)
    1560:	1ff00693          	li	a3,511
    1564:	f6f6f0e3          	bgeu	a3,a5,14c4 <_free_r+0xa0>
    1568:	0097d693          	srli	a3,a5,0x9
    156c:	00400613          	li	a2,4
    1570:	0ed66663          	bltu	a2,a3,165c <_free_r+0x238>
    1574:	0067d693          	srli	a3,a5,0x6
    1578:	03968593          	addi	a1,a3,57
    157c:	00359593          	slli	a1,a1,0x3
    1580:	03868613          	addi	a2,a3,56
    1584:	00b805b3          	add	a1,a6,a1
    1588:	0005a683          	lw	a3,0(a1)
    158c:	ff858593          	addi	a1,a1,-8
    1590:	00d59863          	bne	a1,a3,15a0 <_free_r+0x17c>
    1594:	1280006f          	j	16bc <_free_r+0x298>
    1598:	0086a683          	lw	a3,8(a3)
    159c:	00d58863          	beq	a1,a3,15ac <_free_r+0x188>
    15a0:	0046a603          	lw	a2,4(a3)
    15a4:	ffc67613          	andi	a2,a2,-4
    15a8:	fec7e8e3          	bltu	a5,a2,1598 <_free_r+0x174>
    15ac:	00c6a583          	lw	a1,12(a3)
    15b0:	00b72623          	sw	a1,12(a4)
    15b4:	00d72423          	sw	a3,8(a4)
    15b8:	00812403          	lw	s0,8(sp)
    15bc:	00c12083          	lw	ra,12(sp)
    15c0:	00e5a423          	sw	a4,8(a1)
    15c4:	00048513          	mv	a0,s1
    15c8:	00412483          	lw	s1,4(sp)
    15cc:	00e6a623          	sw	a4,12(a3)
    15d0:	01010113          	addi	sp,sp,16
    15d4:	1810006f          	j	1f54 <__malloc_unlock>
    15d8:	0a051463          	bnez	a0,1680 <_free_r+0x25c>
    15dc:	00c62583          	lw	a1,12(a2)
    15e0:	00862603          	lw	a2,8(a2)
    15e4:	00f686b3          	add	a3,a3,a5
    15e8:	0016e793          	ori	a5,a3,1
    15ec:	00b62623          	sw	a1,12(a2)
    15f0:	00c5a423          	sw	a2,8(a1)
    15f4:	00f72223          	sw	a5,4(a4)
    15f8:	00d70733          	add	a4,a4,a3
    15fc:	00d72023          	sw	a3,0(a4)
    1600:	f01ff06f          	j	1500 <_free_r+0xdc>
    1604:	00d786b3          	add	a3,a5,a3
    1608:	02089063          	bnez	a7,1628 <_free_r+0x204>
    160c:	ff842583          	lw	a1,-8(s0)
    1610:	40b70733          	sub	a4,a4,a1
    1614:	00c72783          	lw	a5,12(a4)
    1618:	00872603          	lw	a2,8(a4)
    161c:	00b686b3          	add	a3,a3,a1
    1620:	00f62623          	sw	a5,12(a2)
    1624:	00c7a423          	sw	a2,8(a5)
    1628:	0016e613          	ori	a2,a3,1
    162c:	0ffff797          	auipc	a5,0xffff
    1630:	f187a783          	lw	a5,-232(a5) # 10000544 <__malloc_trim_threshold>
    1634:	00c72223          	sw	a2,4(a4)
    1638:	00e82423          	sw	a4,8(a6)
    163c:	ecf6e2e3          	bltu	a3,a5,1500 <_free_r+0xdc>
    1640:	00001597          	auipc	a1,0x1
    1644:	4bc5a583          	lw	a1,1212(a1) # 2afc <__malloc_top_pad>
    1648:	00048513          	mv	a0,s1
    164c:	c95ff0ef          	jal	12e0 <_malloc_trim_r>
    1650:	eb1ff06f          	j	1500 <_free_r+0xdc>
    1654:	00d787b3          	add	a5,a5,a3
    1658:	ed1ff06f          	j	1528 <_free_r+0x104>
    165c:	01400613          	li	a2,20
    1660:	02d67863          	bgeu	a2,a3,1690 <_free_r+0x26c>
    1664:	05400613          	li	a2,84
    1668:	06d66863          	bltu	a2,a3,16d8 <_free_r+0x2b4>
    166c:	00c7d693          	srli	a3,a5,0xc
    1670:	06f68593          	addi	a1,a3,111
    1674:	00359593          	slli	a1,a1,0x3
    1678:	06e68613          	addi	a2,a3,110
    167c:	f09ff06f          	j	1584 <_free_r+0x160>
    1680:	0017e693          	ori	a3,a5,1
    1684:	00d72223          	sw	a3,4(a4)
    1688:	00f62023          	sw	a5,0(a2)
    168c:	e75ff06f          	j	1500 <_free_r+0xdc>
    1690:	05c68593          	addi	a1,a3,92
    1694:	00359593          	slli	a1,a1,0x3
    1698:	05b68613          	addi	a2,a3,91
    169c:	ee9ff06f          	j	1584 <_free_r+0x160>
    16a0:	00e82a23          	sw	a4,20(a6)
    16a4:	00e82823          	sw	a4,16(a6)
    16a8:	01172623          	sw	a7,12(a4)
    16ac:	01172423          	sw	a7,8(a4)
    16b0:	00a72223          	sw	a0,4(a4)
    16b4:	00f5a023          	sw	a5,0(a1)
    16b8:	e49ff06f          	j	1500 <_free_r+0xdc>
    16bc:	00482503          	lw	a0,4(a6)
    16c0:	40265613          	srai	a2,a2,0x2
    16c4:	00100793          	li	a5,1
    16c8:	00c797b3          	sll	a5,a5,a2
    16cc:	00a7e7b3          	or	a5,a5,a0
    16d0:	00f82223          	sw	a5,4(a6)
    16d4:	eddff06f          	j	15b0 <_free_r+0x18c>
    16d8:	15400613          	li	a2,340
    16dc:	00d66c63          	bltu	a2,a3,16f4 <_free_r+0x2d0>
    16e0:	00f7d693          	srli	a3,a5,0xf
    16e4:	07868593          	addi	a1,a3,120
    16e8:	00359593          	slli	a1,a1,0x3
    16ec:	07768613          	addi	a2,a3,119
    16f0:	e95ff06f          	j	1584 <_free_r+0x160>
    16f4:	55400613          	li	a2,1364
    16f8:	00d66c63          	bltu	a2,a3,1710 <_free_r+0x2ec>
    16fc:	0127d693          	srli	a3,a5,0x12
    1700:	07d68593          	addi	a1,a3,125
    1704:	00359593          	slli	a1,a1,0x3
    1708:	07c68613          	addi	a2,a3,124
    170c:	e79ff06f          	j	1584 <_free_r+0x160>
    1710:	3f800593          	li	a1,1016
    1714:	07e00613          	li	a2,126
    1718:	e6dff06f          	j	1584 <_free_r+0x160>

0000171c <_malloc_r>:
    171c:	fd010113          	addi	sp,sp,-48
    1720:	03212023          	sw	s2,32(sp)
    1724:	02112623          	sw	ra,44(sp)
    1728:	02812423          	sw	s0,40(sp)
    172c:	02912223          	sw	s1,36(sp)
    1730:	01312e23          	sw	s3,28(sp)
    1734:	00b58793          	addi	a5,a1,11
    1738:	01600713          	li	a4,22
    173c:	00050913          	mv	s2,a0
    1740:	08f76063          	bltu	a4,a5,17c0 <_malloc_r+0xa4>
    1744:	01000493          	li	s1,16
    1748:	20b4e463          	bltu	s1,a1,1950 <_malloc_r+0x234>
    174c:	7fc000ef          	jal	1f48 <__malloc_lock>
    1750:	01800793          	li	a5,24
    1754:	00200593          	li	a1,2
    1758:	0ffff997          	auipc	s3,0xffff
    175c:	9d498993          	addi	s3,s3,-1580 # 1000012c <__malloc_av_>
    1760:	00f987b3          	add	a5,s3,a5
    1764:	0047a403          	lw	s0,4(a5)
    1768:	ff878713          	addi	a4,a5,-8
    176c:	46e40663          	beq	s0,a4,1bd8 <_malloc_r+0x4bc>
    1770:	00442783          	lw	a5,4(s0)
    1774:	00c42683          	lw	a3,12(s0)
    1778:	00842603          	lw	a2,8(s0)
    177c:	ffc7f793          	andi	a5,a5,-4
    1780:	00f407b3          	add	a5,s0,a5
    1784:	0047a703          	lw	a4,4(a5)
    1788:	00d62623          	sw	a3,12(a2)
    178c:	00c6a423          	sw	a2,8(a3)
    1790:	00176713          	ori	a4,a4,1
    1794:	00090513          	mv	a0,s2
    1798:	00e7a223          	sw	a4,4(a5)
    179c:	7b8000ef          	jal	1f54 <__malloc_unlock>
    17a0:	02c12083          	lw	ra,44(sp)
    17a4:	00840513          	addi	a0,s0,8
    17a8:	02812403          	lw	s0,40(sp)
    17ac:	02412483          	lw	s1,36(sp)
    17b0:	02012903          	lw	s2,32(sp)
    17b4:	01c12983          	lw	s3,28(sp)
    17b8:	03010113          	addi	sp,sp,48
    17bc:	00008067          	ret
    17c0:	ff87f493          	andi	s1,a5,-8
    17c4:	1807c663          	bltz	a5,1950 <_malloc_r+0x234>
    17c8:	18b4e463          	bltu	s1,a1,1950 <_malloc_r+0x234>
    17cc:	77c000ef          	jal	1f48 <__malloc_lock>
    17d0:	1f700793          	li	a5,503
    17d4:	5097fc63          	bgeu	a5,s1,1cec <_malloc_r+0x5d0>
    17d8:	0094d793          	srli	a5,s1,0x9
    17dc:	18078e63          	beqz	a5,1978 <_malloc_r+0x25c>
    17e0:	00400713          	li	a4,4
    17e4:	46f76263          	bltu	a4,a5,1c48 <_malloc_r+0x52c>
    17e8:	0064d793          	srli	a5,s1,0x6
    17ec:	03978593          	addi	a1,a5,57
    17f0:	03878813          	addi	a6,a5,56
    17f4:	00359613          	slli	a2,a1,0x3
    17f8:	0ffff997          	auipc	s3,0xffff
    17fc:	93498993          	addi	s3,s3,-1740 # 1000012c <__malloc_av_>
    1800:	00c98633          	add	a2,s3,a2
    1804:	00462403          	lw	s0,4(a2)
    1808:	ff860613          	addi	a2,a2,-8
    180c:	02860863          	beq	a2,s0,183c <_malloc_r+0x120>
    1810:	00f00513          	li	a0,15
    1814:	0140006f          	j	1828 <_malloc_r+0x10c>
    1818:	00c42683          	lw	a3,12(s0)
    181c:	36075c63          	bgez	a4,1b94 <_malloc_r+0x478>
    1820:	00d60e63          	beq	a2,a3,183c <_malloc_r+0x120>
    1824:	00068413          	mv	s0,a3
    1828:	00442783          	lw	a5,4(s0)
    182c:	ffc7f793          	andi	a5,a5,-4
    1830:	40978733          	sub	a4,a5,s1
    1834:	fee552e3          	bge	a0,a4,1818 <_malloc_r+0xfc>
    1838:	00080593          	mv	a1,a6
    183c:	0109a403          	lw	s0,16(s3)
    1840:	0ffff897          	auipc	a7,0xffff
    1844:	8f488893          	addi	a7,a7,-1804 # 10000134 <__malloc_av_+0x8>
    1848:	2d140663          	beq	s0,a7,1b14 <_malloc_r+0x3f8>
    184c:	00442783          	lw	a5,4(s0)
    1850:	00f00693          	li	a3,15
    1854:	ffc7f793          	andi	a5,a5,-4
    1858:	40978733          	sub	a4,a5,s1
    185c:	48e6ce63          	blt	a3,a4,1cf8 <_malloc_r+0x5dc>
    1860:	0119aa23          	sw	a7,20(s3)
    1864:	0119a823          	sw	a7,16(s3)
    1868:	46075263          	bgez	a4,1ccc <_malloc_r+0x5b0>
    186c:	1ff00713          	li	a4,511
    1870:	0049a503          	lw	a0,4(s3)
    1874:	36f76a63          	bltu	a4,a5,1be8 <_malloc_r+0x4cc>
    1878:	ff87f713          	andi	a4,a5,-8
    187c:	00870713          	addi	a4,a4,8
    1880:	00e98733          	add	a4,s3,a4
    1884:	00072683          	lw	a3,0(a4)
    1888:	0057d613          	srli	a2,a5,0x5
    188c:	00100793          	li	a5,1
    1890:	00c797b3          	sll	a5,a5,a2
    1894:	00f56533          	or	a0,a0,a5
    1898:	ff870793          	addi	a5,a4,-8
    189c:	00d42423          	sw	a3,8(s0)
    18a0:	00f42623          	sw	a5,12(s0)
    18a4:	00a9a223          	sw	a0,4(s3)
    18a8:	00872023          	sw	s0,0(a4)
    18ac:	0086a623          	sw	s0,12(a3)
    18b0:	4025d793          	srai	a5,a1,0x2
    18b4:	00100613          	li	a2,1
    18b8:	00f61633          	sll	a2,a2,a5
    18bc:	0cc56663          	bltu	a0,a2,1988 <_malloc_r+0x26c>
    18c0:	00a677b3          	and	a5,a2,a0
    18c4:	02079463          	bnez	a5,18ec <_malloc_r+0x1d0>
    18c8:	00161613          	slli	a2,a2,0x1
    18cc:	ffc5f593          	andi	a1,a1,-4
    18d0:	00a677b3          	and	a5,a2,a0
    18d4:	00458593          	addi	a1,a1,4
    18d8:	00079a63          	bnez	a5,18ec <_malloc_r+0x1d0>
    18dc:	00161613          	slli	a2,a2,0x1
    18e0:	00a677b3          	and	a5,a2,a0
    18e4:	00458593          	addi	a1,a1,4
    18e8:	fe078ae3          	beqz	a5,18dc <_malloc_r+0x1c0>
    18ec:	00f00813          	li	a6,15
    18f0:	00359313          	slli	t1,a1,0x3
    18f4:	00698333          	add	t1,s3,t1
    18f8:	00030513          	mv	a0,t1
    18fc:	00c52783          	lw	a5,12(a0)
    1900:	00058e13          	mv	t3,a1
    1904:	36f50463          	beq	a0,a5,1c6c <_malloc_r+0x550>
    1908:	0047a703          	lw	a4,4(a5)
    190c:	00078413          	mv	s0,a5
    1910:	00c7a783          	lw	a5,12(a5)
    1914:	ffc77713          	andi	a4,a4,-4
    1918:	409706b3          	sub	a3,a4,s1
    191c:	36d84463          	blt	a6,a3,1c84 <_malloc_r+0x568>
    1920:	fe06c2e3          	bltz	a3,1904 <_malloc_r+0x1e8>
    1924:	00e40733          	add	a4,s0,a4
    1928:	00472683          	lw	a3,4(a4)
    192c:	00842603          	lw	a2,8(s0)
    1930:	00090513          	mv	a0,s2
    1934:	0016e693          	ori	a3,a3,1
    1938:	00d72223          	sw	a3,4(a4)
    193c:	00f62623          	sw	a5,12(a2)
    1940:	00c7a423          	sw	a2,8(a5)
    1944:	610000ef          	jal	1f54 <__malloc_unlock>
    1948:	00840513          	addi	a0,s0,8
    194c:	0100006f          	j	195c <_malloc_r+0x240>
    1950:	00c00793          	li	a5,12
    1954:	00f92023          	sw	a5,0(s2)
    1958:	00000513          	li	a0,0
    195c:	02c12083          	lw	ra,44(sp)
    1960:	02812403          	lw	s0,40(sp)
    1964:	02412483          	lw	s1,36(sp)
    1968:	02012903          	lw	s2,32(sp)
    196c:	01c12983          	lw	s3,28(sp)
    1970:	03010113          	addi	sp,sp,48
    1974:	00008067          	ret
    1978:	20000613          	li	a2,512
    197c:	04000593          	li	a1,64
    1980:	03f00813          	li	a6,63
    1984:	e75ff06f          	j	17f8 <_malloc_r+0xdc>
    1988:	0089a403          	lw	s0,8(s3)
    198c:	01612823          	sw	s6,16(sp)
    1990:	00442783          	lw	a5,4(s0)
    1994:	ffc7fb13          	andi	s6,a5,-4
    1998:	009b6863          	bltu	s6,s1,19a8 <_malloc_r+0x28c>
    199c:	409b0733          	sub	a4,s6,s1
    19a0:	00f00793          	li	a5,15
    19a4:	1ae7c663          	blt	a5,a4,1b50 <_malloc_r+0x434>
    19a8:	01912223          	sw	s9,4(sp)
    19ac:	0ffffc97          	auipc	s9,0xffff
    19b0:	b94c8c93          	addi	s9,s9,-1132 # 10000540 <__malloc_sbrk_base>
    19b4:	01512a23          	sw	s5,20(sp)
    19b8:	000ca703          	lw	a4,0(s9)
    19bc:	00001a97          	auipc	s5,0x1
    19c0:	140aaa83          	lw	s5,320(s5) # 2afc <__malloc_top_pad>
    19c4:	01412c23          	sw	s4,24(sp)
    19c8:	01712623          	sw	s7,12(sp)
    19cc:	fff00793          	li	a5,-1
    19d0:	01640a33          	add	s4,s0,s6
    19d4:	01548ab3          	add	s5,s1,s5
    19d8:	3ef70663          	beq	a4,a5,1dc4 <_malloc_r+0x6a8>
    19dc:	000017b7          	lui	a5,0x1
    19e0:	00f78793          	addi	a5,a5,15 # 100f <_close_r+0x4b>
    19e4:	00fa8ab3          	add	s5,s5,a5
    19e8:	fffff7b7          	lui	a5,0xfffff
    19ec:	00fafab3          	and	s5,s5,a5
    19f0:	000a8593          	mv	a1,s5
    19f4:	00090513          	mv	a0,s2
    19f8:	2f1000ef          	jal	24e8 <_sbrk_r>
    19fc:	fff00793          	li	a5,-1
    1a00:	00050b93          	mv	s7,a0
    1a04:	48f50463          	beq	a0,a5,1e8c <_malloc_r+0x770>
    1a08:	01812423          	sw	s8,8(sp)
    1a0c:	11456863          	bltu	a0,s4,1b1c <_malloc_r+0x400>
    1a10:	0ffffc17          	auipc	s8,0xffff
    1a14:	c70c0c13          	addi	s8,s8,-912 # 10000680 <__malloc_current_mallinfo>
    1a18:	000c2583          	lw	a1,0(s8)
    1a1c:	00ba85b3          	add	a1,s5,a1
    1a20:	00bc2023          	sw	a1,0(s8)
    1a24:	00058713          	mv	a4,a1
    1a28:	46aa0863          	beq	s4,a0,1e98 <_malloc_r+0x77c>
    1a2c:	000ca683          	lw	a3,0(s9)
    1a30:	fff00793          	li	a5,-1
    1a34:	48f68063          	beq	a3,a5,1eb4 <_malloc_r+0x798>
    1a38:	414b87b3          	sub	a5,s7,s4
    1a3c:	00e787b3          	add	a5,a5,a4
    1a40:	00fc2023          	sw	a5,0(s8)
    1a44:	007bfc93          	andi	s9,s7,7
    1a48:	380c8e63          	beqz	s9,1de4 <_malloc_r+0x6c8>
    1a4c:	419b8bb3          	sub	s7,s7,s9
    1a50:	000015b7          	lui	a1,0x1
    1a54:	008b8b93          	addi	s7,s7,8
    1a58:	00858593          	addi	a1,a1,8 # 1008 <_close_r+0x44>
    1a5c:	015b8ab3          	add	s5,s7,s5
    1a60:	419585b3          	sub	a1,a1,s9
    1a64:	415585b3          	sub	a1,a1,s5
    1a68:	01459593          	slli	a1,a1,0x14
    1a6c:	0145da13          	srli	s4,a1,0x14
    1a70:	000a0593          	mv	a1,s4
    1a74:	00090513          	mv	a0,s2
    1a78:	271000ef          	jal	24e8 <_sbrk_r>
    1a7c:	fff00793          	li	a5,-1
    1a80:	46f50a63          	beq	a0,a5,1ef4 <_malloc_r+0x7d8>
    1a84:	41750533          	sub	a0,a0,s7
    1a88:	01450ab3          	add	s5,a0,s4
    1a8c:	000c2703          	lw	a4,0(s8)
    1a90:	0179a423          	sw	s7,8(s3)
    1a94:	001ae793          	ori	a5,s5,1
    1a98:	00ea05b3          	add	a1,s4,a4
    1a9c:	00fba223          	sw	a5,4(s7)
    1aa0:	00bc2023          	sw	a1,0(s8)
    1aa4:	03340e63          	beq	s0,s3,1ae0 <_malloc_r+0x3c4>
    1aa8:	00f00693          	li	a3,15
    1aac:	3766f263          	bgeu	a3,s6,1e10 <_malloc_r+0x6f4>
    1ab0:	00442703          	lw	a4,4(s0)
    1ab4:	ff4b0793          	addi	a5,s6,-12
    1ab8:	ff87f793          	andi	a5,a5,-8
    1abc:	00177713          	andi	a4,a4,1
    1ac0:	00f76733          	or	a4,a4,a5
    1ac4:	00e42223          	sw	a4,4(s0)
    1ac8:	00500613          	li	a2,5
    1acc:	00f40733          	add	a4,s0,a5
    1ad0:	00c72223          	sw	a2,4(a4)
    1ad4:	00c72423          	sw	a2,8(a4)
    1ad8:	2cf6ea63          	bltu	a3,a5,1dac <_malloc_r+0x690>
    1adc:	004ba783          	lw	a5,4(s7)
    1ae0:	00001717          	auipc	a4,0x1
    1ae4:	01870713          	addi	a4,a4,24 # 2af8 <__malloc_max_sbrked_mem>
    1ae8:	00072683          	lw	a3,0(a4)
    1aec:	00b6f463          	bgeu	a3,a1,1af4 <_malloc_r+0x3d8>
    1af0:	00b72023          	sw	a1,0(a4)
    1af4:	00001717          	auipc	a4,0x1
    1af8:	00070713          	mv	a4,a4
    1afc:	00072683          	lw	a3,0(a4) # 2af4 <__malloc_max_total_mem>
    1b00:	00b6f463          	bgeu	a3,a1,1b08 <_malloc_r+0x3ec>
    1b04:	00b72023          	sw	a1,0(a4)
    1b08:	00812c03          	lw	s8,8(sp)
    1b0c:	000b8413          	mv	s0,s7
    1b10:	01c0006f          	j	1b2c <_malloc_r+0x410>
    1b14:	0049a503          	lw	a0,4(s3)
    1b18:	d99ff06f          	j	18b0 <_malloc_r+0x194>
    1b1c:	35340c63          	beq	s0,s3,1e74 <_malloc_r+0x758>
    1b20:	0089a403          	lw	s0,8(s3)
    1b24:	00812c03          	lw	s8,8(sp)
    1b28:	00442783          	lw	a5,4(s0)
    1b2c:	ffc7f793          	andi	a5,a5,-4
    1b30:	40978733          	sub	a4,a5,s1
    1b34:	2e97e463          	bltu	a5,s1,1e1c <_malloc_r+0x700>
    1b38:	00f00793          	li	a5,15
    1b3c:	2ee7d063          	bge	a5,a4,1e1c <_malloc_r+0x700>
    1b40:	01812a03          	lw	s4,24(sp)
    1b44:	01412a83          	lw	s5,20(sp)
    1b48:	00c12b83          	lw	s7,12(sp)
    1b4c:	00412c83          	lw	s9,4(sp)
    1b50:	0014e793          	ori	a5,s1,1
    1b54:	00f42223          	sw	a5,4(s0)
    1b58:	009404b3          	add	s1,s0,s1
    1b5c:	0099a423          	sw	s1,8(s3)
    1b60:	00176713          	ori	a4,a4,1
    1b64:	00090513          	mv	a0,s2
    1b68:	00e4a223          	sw	a4,4(s1)
    1b6c:	3e8000ef          	jal	1f54 <__malloc_unlock>
    1b70:	02c12083          	lw	ra,44(sp)
    1b74:	00840513          	addi	a0,s0,8
    1b78:	02812403          	lw	s0,40(sp)
    1b7c:	01012b03          	lw	s6,16(sp)
    1b80:	02412483          	lw	s1,36(sp)
    1b84:	02012903          	lw	s2,32(sp)
    1b88:	01c12983          	lw	s3,28(sp)
    1b8c:	03010113          	addi	sp,sp,48
    1b90:	00008067          	ret
    1b94:	00842603          	lw	a2,8(s0)
    1b98:	00f407b3          	add	a5,s0,a5
    1b9c:	0047a703          	lw	a4,4(a5) # fffff004 <_stack_top+0xefffb004>
    1ba0:	00d62623          	sw	a3,12(a2)
    1ba4:	00c6a423          	sw	a2,8(a3)
    1ba8:	00176713          	ori	a4,a4,1
    1bac:	00090513          	mv	a0,s2
    1bb0:	00e7a223          	sw	a4,4(a5)
    1bb4:	3a0000ef          	jal	1f54 <__malloc_unlock>
    1bb8:	02c12083          	lw	ra,44(sp)
    1bbc:	00840513          	addi	a0,s0,8
    1bc0:	02812403          	lw	s0,40(sp)
    1bc4:	02412483          	lw	s1,36(sp)
    1bc8:	02012903          	lw	s2,32(sp)
    1bcc:	01c12983          	lw	s3,28(sp)
    1bd0:	03010113          	addi	sp,sp,48
    1bd4:	00008067          	ret
    1bd8:	00c7a403          	lw	s0,12(a5)
    1bdc:	00258593          	addi	a1,a1,2
    1be0:	c4878ee3          	beq	a5,s0,183c <_malloc_r+0x120>
    1be4:	b8dff06f          	j	1770 <_malloc_r+0x54>
    1be8:	0097d713          	srli	a4,a5,0x9
    1bec:	00400693          	li	a3,4
    1bf0:	14e6f263          	bgeu	a3,a4,1d34 <_malloc_r+0x618>
    1bf4:	01400693          	li	a3,20
    1bf8:	24e6e263          	bltu	a3,a4,1e3c <_malloc_r+0x720>
    1bfc:	05c70613          	addi	a2,a4,92
    1c00:	00361613          	slli	a2,a2,0x3
    1c04:	05b70693          	addi	a3,a4,91
    1c08:	00c98633          	add	a2,s3,a2
    1c0c:	00062703          	lw	a4,0(a2)
    1c10:	ff860613          	addi	a2,a2,-8
    1c14:	00e61863          	bne	a2,a4,1c24 <_malloc_r+0x508>
    1c18:	1b40006f          	j	1dcc <_malloc_r+0x6b0>
    1c1c:	00872703          	lw	a4,8(a4)
    1c20:	00e60863          	beq	a2,a4,1c30 <_malloc_r+0x514>
    1c24:	00472683          	lw	a3,4(a4)
    1c28:	ffc6f693          	andi	a3,a3,-4
    1c2c:	fed7e8e3          	bltu	a5,a3,1c1c <_malloc_r+0x500>
    1c30:	00c72603          	lw	a2,12(a4)
    1c34:	00c42623          	sw	a2,12(s0)
    1c38:	00e42423          	sw	a4,8(s0)
    1c3c:	00862423          	sw	s0,8(a2)
    1c40:	00872623          	sw	s0,12(a4)
    1c44:	c6dff06f          	j	18b0 <_malloc_r+0x194>
    1c48:	01400713          	li	a4,20
    1c4c:	0ef77e63          	bgeu	a4,a5,1d48 <_malloc_r+0x62c>
    1c50:	05400713          	li	a4,84
    1c54:	20f76263          	bltu	a4,a5,1e58 <_malloc_r+0x73c>
    1c58:	00c4d793          	srli	a5,s1,0xc
    1c5c:	06f78593          	addi	a1,a5,111
    1c60:	06e78813          	addi	a6,a5,110
    1c64:	00359613          	slli	a2,a1,0x3
    1c68:	b91ff06f          	j	17f8 <_malloc_r+0xdc>
    1c6c:	001e0e13          	addi	t3,t3,1
    1c70:	003e7793          	andi	a5,t3,3
    1c74:	00850513          	addi	a0,a0,8
    1c78:	0e078663          	beqz	a5,1d64 <_malloc_r+0x648>
    1c7c:	00c52783          	lw	a5,12(a0)
    1c80:	c85ff06f          	j	1904 <_malloc_r+0x1e8>
    1c84:	00842603          	lw	a2,8(s0)
    1c88:	0014e593          	ori	a1,s1,1
    1c8c:	00b42223          	sw	a1,4(s0)
    1c90:	00f62623          	sw	a5,12(a2)
    1c94:	00c7a423          	sw	a2,8(a5)
    1c98:	009404b3          	add	s1,s0,s1
    1c9c:	0099aa23          	sw	s1,20(s3)
    1ca0:	0099a823          	sw	s1,16(s3)
    1ca4:	0016e793          	ori	a5,a3,1
    1ca8:	00e40733          	add	a4,s0,a4
    1cac:	0114a623          	sw	a7,12(s1)
    1cb0:	0114a423          	sw	a7,8(s1)
    1cb4:	00f4a223          	sw	a5,4(s1)
    1cb8:	00090513          	mv	a0,s2
    1cbc:	00d72023          	sw	a3,0(a4)
    1cc0:	294000ef          	jal	1f54 <__malloc_unlock>
    1cc4:	00840513          	addi	a0,s0,8
    1cc8:	c95ff06f          	j	195c <_malloc_r+0x240>
    1ccc:	00f407b3          	add	a5,s0,a5
    1cd0:	0047a703          	lw	a4,4(a5)
    1cd4:	00090513          	mv	a0,s2
    1cd8:	00176713          	ori	a4,a4,1
    1cdc:	00e7a223          	sw	a4,4(a5)
    1ce0:	274000ef          	jal	1f54 <__malloc_unlock>
    1ce4:	00840513          	addi	a0,s0,8
    1ce8:	c75ff06f          	j	195c <_malloc_r+0x240>
    1cec:	0034d593          	srli	a1,s1,0x3
    1cf0:	00848793          	addi	a5,s1,8
    1cf4:	a65ff06f          	j	1758 <_malloc_r+0x3c>
    1cf8:	0014e693          	ori	a3,s1,1
    1cfc:	00d42223          	sw	a3,4(s0)
    1d00:	009404b3          	add	s1,s0,s1
    1d04:	0099aa23          	sw	s1,20(s3)
    1d08:	0099a823          	sw	s1,16(s3)
    1d0c:	00176693          	ori	a3,a4,1
    1d10:	00f407b3          	add	a5,s0,a5
    1d14:	0114a623          	sw	a7,12(s1)
    1d18:	0114a423          	sw	a7,8(s1)
    1d1c:	00d4a223          	sw	a3,4(s1)
    1d20:	00090513          	mv	a0,s2
    1d24:	00e7a023          	sw	a4,0(a5)
    1d28:	22c000ef          	jal	1f54 <__malloc_unlock>
    1d2c:	00840513          	addi	a0,s0,8
    1d30:	c2dff06f          	j	195c <_malloc_r+0x240>
    1d34:	0067d713          	srli	a4,a5,0x6
    1d38:	03970613          	addi	a2,a4,57
    1d3c:	00361613          	slli	a2,a2,0x3
    1d40:	03870693          	addi	a3,a4,56
    1d44:	ec5ff06f          	j	1c08 <_malloc_r+0x4ec>
    1d48:	05c78593          	addi	a1,a5,92
    1d4c:	05b78813          	addi	a6,a5,91
    1d50:	00359613          	slli	a2,a1,0x3
    1d54:	aa5ff06f          	j	17f8 <_malloc_r+0xdc>
    1d58:	00832783          	lw	a5,8(t1)
    1d5c:	fff58593          	addi	a1,a1,-1
    1d60:	1e679063          	bne	a5,t1,1f40 <_malloc_r+0x824>
    1d64:	0035f793          	andi	a5,a1,3
    1d68:	ff830313          	addi	t1,t1,-8
    1d6c:	fe0796e3          	bnez	a5,1d58 <_malloc_r+0x63c>
    1d70:	0049a703          	lw	a4,4(s3)
    1d74:	fff64793          	not	a5,a2
    1d78:	00e7f7b3          	and	a5,a5,a4
    1d7c:	00f9a223          	sw	a5,4(s3)
    1d80:	00161613          	slli	a2,a2,0x1
    1d84:	c0c7e2e3          	bltu	a5,a2,1988 <_malloc_r+0x26c>
    1d88:	c00600e3          	beqz	a2,1988 <_malloc_r+0x26c>
    1d8c:	00f67733          	and	a4,a2,a5
    1d90:	00071a63          	bnez	a4,1da4 <_malloc_r+0x688>
    1d94:	00161613          	slli	a2,a2,0x1
    1d98:	00f67733          	and	a4,a2,a5
    1d9c:	004e0e13          	addi	t3,t3,4
    1da0:	fe070ae3          	beqz	a4,1d94 <_malloc_r+0x678>
    1da4:	000e0593          	mv	a1,t3
    1da8:	b49ff06f          	j	18f0 <_malloc_r+0x1d4>
    1dac:	00840593          	addi	a1,s0,8
    1db0:	00090513          	mv	a0,s2
    1db4:	e70ff0ef          	jal	1424 <_free_r>
    1db8:	000c2583          	lw	a1,0(s8)
    1dbc:	0089ab83          	lw	s7,8(s3)
    1dc0:	d1dff06f          	j	1adc <_malloc_r+0x3c0>
    1dc4:	010a8a93          	addi	s5,s5,16
    1dc8:	c29ff06f          	j	19f0 <_malloc_r+0x2d4>
    1dcc:	4026d693          	srai	a3,a3,0x2
    1dd0:	00100793          	li	a5,1
    1dd4:	00d797b3          	sll	a5,a5,a3
    1dd8:	00f56533          	or	a0,a0,a5
    1ddc:	00a9a223          	sw	a0,4(s3)
    1de0:	e55ff06f          	j	1c34 <_malloc_r+0x518>
    1de4:	015b85b3          	add	a1,s7,s5
    1de8:	40b005b3          	neg	a1,a1
    1dec:	01459593          	slli	a1,a1,0x14
    1df0:	0145da13          	srli	s4,a1,0x14
    1df4:	000a0593          	mv	a1,s4
    1df8:	00090513          	mv	a0,s2
    1dfc:	6ec000ef          	jal	24e8 <_sbrk_r>
    1e00:	fff00793          	li	a5,-1
    1e04:	c8f510e3          	bne	a0,a5,1a84 <_malloc_r+0x368>
    1e08:	00000a13          	li	s4,0
    1e0c:	c81ff06f          	j	1a8c <_malloc_r+0x370>
    1e10:	00812c03          	lw	s8,8(sp)
    1e14:	00100793          	li	a5,1
    1e18:	00fba223          	sw	a5,4(s7)
    1e1c:	00090513          	mv	a0,s2
    1e20:	134000ef          	jal	1f54 <__malloc_unlock>
    1e24:	01812a03          	lw	s4,24(sp)
    1e28:	01412a83          	lw	s5,20(sp)
    1e2c:	01012b03          	lw	s6,16(sp)
    1e30:	00c12b83          	lw	s7,12(sp)
    1e34:	00412c83          	lw	s9,4(sp)
    1e38:	b21ff06f          	j	1958 <_malloc_r+0x23c>
    1e3c:	05400693          	li	a3,84
    1e40:	06e6ee63          	bltu	a3,a4,1ebc <_malloc_r+0x7a0>
    1e44:	00c7d713          	srli	a4,a5,0xc
    1e48:	06f70613          	addi	a2,a4,111
    1e4c:	00361613          	slli	a2,a2,0x3
    1e50:	06e70693          	addi	a3,a4,110
    1e54:	db5ff06f          	j	1c08 <_malloc_r+0x4ec>
    1e58:	15400713          	li	a4,340
    1e5c:	06f76e63          	bltu	a4,a5,1ed8 <_malloc_r+0x7bc>
    1e60:	00f4d793          	srli	a5,s1,0xf
    1e64:	07878593          	addi	a1,a5,120
    1e68:	07778813          	addi	a6,a5,119
    1e6c:	00359613          	slli	a2,a1,0x3
    1e70:	989ff06f          	j	17f8 <_malloc_r+0xdc>
    1e74:	0ffffc17          	auipc	s8,0xffff
    1e78:	80cc0c13          	addi	s8,s8,-2036 # 10000680 <__malloc_current_mallinfo>
    1e7c:	000c2703          	lw	a4,0(s8)
    1e80:	00ea8733          	add	a4,s5,a4
    1e84:	00ec2023          	sw	a4,0(s8)
    1e88:	ba5ff06f          	j	1a2c <_malloc_r+0x310>
    1e8c:	0089a403          	lw	s0,8(s3)
    1e90:	00442783          	lw	a5,4(s0)
    1e94:	c99ff06f          	j	1b2c <_malloc_r+0x410>
    1e98:	01451793          	slli	a5,a0,0x14
    1e9c:	b80798e3          	bnez	a5,1a2c <_malloc_r+0x310>
    1ea0:	0089ab83          	lw	s7,8(s3)
    1ea4:	015b07b3          	add	a5,s6,s5
    1ea8:	0017e793          	ori	a5,a5,1
    1eac:	00fba223          	sw	a5,4(s7)
    1eb0:	c31ff06f          	j	1ae0 <_malloc_r+0x3c4>
    1eb4:	017ca023          	sw	s7,0(s9)
    1eb8:	b8dff06f          	j	1a44 <_malloc_r+0x328>
    1ebc:	15400693          	li	a3,340
    1ec0:	04e6e463          	bltu	a3,a4,1f08 <_malloc_r+0x7ec>
    1ec4:	00f7d713          	srli	a4,a5,0xf
    1ec8:	07870613          	addi	a2,a4,120
    1ecc:	00361613          	slli	a2,a2,0x3
    1ed0:	07770693          	addi	a3,a4,119
    1ed4:	d35ff06f          	j	1c08 <_malloc_r+0x4ec>
    1ed8:	55400713          	li	a4,1364
    1edc:	04f76463          	bltu	a4,a5,1f24 <_malloc_r+0x808>
    1ee0:	0124d793          	srli	a5,s1,0x12
    1ee4:	07d78593          	addi	a1,a5,125
    1ee8:	07c78813          	addi	a6,a5,124
    1eec:	00359613          	slli	a2,a1,0x3
    1ef0:	909ff06f          	j	17f8 <_malloc_r+0xdc>
    1ef4:	ff8c8c93          	addi	s9,s9,-8
    1ef8:	019a8ab3          	add	s5,s5,s9
    1efc:	417a8ab3          	sub	s5,s5,s7
    1f00:	00000a13          	li	s4,0
    1f04:	b89ff06f          	j	1a8c <_malloc_r+0x370>
    1f08:	55400693          	li	a3,1364
    1f0c:	02e6e463          	bltu	a3,a4,1f34 <_malloc_r+0x818>
    1f10:	0127d713          	srli	a4,a5,0x12
    1f14:	07d70613          	addi	a2,a4,125
    1f18:	00361613          	slli	a2,a2,0x3
    1f1c:	07c70693          	addi	a3,a4,124
    1f20:	ce9ff06f          	j	1c08 <_malloc_r+0x4ec>
    1f24:	3f800613          	li	a2,1016
    1f28:	07f00593          	li	a1,127
    1f2c:	07e00813          	li	a6,126
    1f30:	8c9ff06f          	j	17f8 <_malloc_r+0xdc>
    1f34:	3f800613          	li	a2,1016
    1f38:	07e00693          	li	a3,126
    1f3c:	ccdff06f          	j	1c08 <_malloc_r+0x4ec>
    1f40:	0049a783          	lw	a5,4(s3)
    1f44:	e3dff06f          	j	1d80 <_malloc_r+0x664>

00001f48 <__malloc_lock>:
    1f48:	00001517          	auipc	a0,0x1
    1f4c:	b9c50513          	addi	a0,a0,-1124 # 2ae4 <__lock___malloc_recursive_mutex>
    1f50:	b74ff06f          	j	12c4 <__retarget_lock_acquire_recursive>

00001f54 <__malloc_unlock>:
    1f54:	00001517          	auipc	a0,0x1
    1f58:	b9050513          	addi	a0,a0,-1136 # 2ae4 <__lock___malloc_recursive_mutex>
    1f5c:	b80ff06f          	j	12dc <__retarget_lock_release_recursive>

00001f60 <_fclose_r>:
    1f60:	ff010113          	addi	sp,sp,-16
    1f64:	00112623          	sw	ra,12(sp)
    1f68:	01212023          	sw	s2,0(sp)
    1f6c:	0e058263          	beqz	a1,2050 <_stack_size+0x50>
    1f70:	00812423          	sw	s0,8(sp)
    1f74:	00912223          	sw	s1,4(sp)
    1f78:	00058413          	mv	s0,a1
    1f7c:	00050493          	mv	s1,a0
    1f80:	00050663          	beqz	a0,1f8c <_fclose_r+0x2c>
    1f84:	03452783          	lw	a5,52(a0)
    1f88:	10078063          	beqz	a5,2088 <_stack_size+0x88>
    1f8c:	06442783          	lw	a5,100(s0)
    1f90:	00c41703          	lh	a4,12(s0)
    1f94:	0017f793          	andi	a5,a5,1
    1f98:	0a079663          	bnez	a5,2044 <_stack_size+0x44>
    1f9c:	20077713          	andi	a4,a4,512
    1fa0:	0e070863          	beqz	a4,2090 <_stack_size+0x90>
    1fa4:	00040593          	mv	a1,s0
    1fa8:	00048513          	mv	a0,s1
    1fac:	130000ef          	jal	20dc <__sflush_r>
    1fb0:	02c42783          	lw	a5,44(s0)
    1fb4:	00050913          	mv	s2,a0
    1fb8:	00078a63          	beqz	a5,1fcc <_fclose_r+0x6c>
    1fbc:	01c42583          	lw	a1,28(s0)
    1fc0:	00048513          	mv	a0,s1
    1fc4:	000780e7          	jalr	a5
    1fc8:	0a054063          	bltz	a0,2068 <_stack_size+0x68>
    1fcc:	00c45783          	lhu	a5,12(s0)
    1fd0:	0807f793          	andi	a5,a5,128
    1fd4:	0a079263          	bnez	a5,2078 <_stack_size+0x78>
    1fd8:	03042583          	lw	a1,48(s0)
    1fdc:	00058c63          	beqz	a1,1ff4 <_fclose_r+0x94>
    1fe0:	04040793          	addi	a5,s0,64
    1fe4:	00f58663          	beq	a1,a5,1ff0 <_fclose_r+0x90>
    1fe8:	00048513          	mv	a0,s1
    1fec:	c38ff0ef          	jal	1424 <_free_r>
    1ff0:	02042823          	sw	zero,48(s0)
    1ff4:	04442583          	lw	a1,68(s0)
    1ff8:	00058863          	beqz	a1,2008 <_stack_size+0x8>
    1ffc:	00048513          	mv	a0,s1
    2000:	c24ff0ef          	jal	1424 <_free_r>
    2004:	04042223          	sw	zero,68(s0)
    2008:	d31fe0ef          	jal	d38 <__sfp_lock_acquire>
    200c:	06442783          	lw	a5,100(s0)
    2010:	00041623          	sh	zero,12(s0)
    2014:	0017f793          	andi	a5,a5,1
    2018:	0a078463          	beqz	a5,20c0 <_stack_size+0xc0>
    201c:	05842503          	lw	a0,88(s0)
    2020:	a9cff0ef          	jal	12bc <__retarget_lock_close_recursive>
    2024:	d21fe0ef          	jal	d44 <__sfp_lock_release>
    2028:	00c12083          	lw	ra,12(sp)
    202c:	00812403          	lw	s0,8(sp)
    2030:	00412483          	lw	s1,4(sp)
    2034:	00090513          	mv	a0,s2
    2038:	00012903          	lw	s2,0(sp)
    203c:	01010113          	addi	sp,sp,16
    2040:	00008067          	ret
    2044:	f60710e3          	bnez	a4,1fa4 <_fclose_r+0x44>
    2048:	00812403          	lw	s0,8(sp)
    204c:	00412483          	lw	s1,4(sp)
    2050:	00c12083          	lw	ra,12(sp)
    2054:	00000913          	li	s2,0
    2058:	00090513          	mv	a0,s2
    205c:	00012903          	lw	s2,0(sp)
    2060:	01010113          	addi	sp,sp,16
    2064:	00008067          	ret
    2068:	00c45783          	lhu	a5,12(s0)
    206c:	fff00913          	li	s2,-1
    2070:	0807f793          	andi	a5,a5,128
    2074:	f60782e3          	beqz	a5,1fd8 <_fclose_r+0x78>
    2078:	01042583          	lw	a1,16(s0)
    207c:	00048513          	mv	a0,s1
    2080:	ba4ff0ef          	jal	1424 <_free_r>
    2084:	f55ff06f          	j	1fd8 <_fclose_r+0x78>
    2088:	c41fe0ef          	jal	cc8 <__sinit>
    208c:	f01ff06f          	j	1f8c <_fclose_r+0x2c>
    2090:	05842503          	lw	a0,88(s0)
    2094:	a30ff0ef          	jal	12c4 <__retarget_lock_acquire_recursive>
    2098:	00c41783          	lh	a5,12(s0)
    209c:	f00794e3          	bnez	a5,1fa4 <_fclose_r+0x44>
    20a0:	06442783          	lw	a5,100(s0)
    20a4:	0017f793          	andi	a5,a5,1
    20a8:	fa0790e3          	bnez	a5,2048 <_stack_size+0x48>
    20ac:	05842503          	lw	a0,88(s0)
    20b0:	a2cff0ef          	jal	12dc <__retarget_lock_release_recursive>
    20b4:	00812403          	lw	s0,8(sp)
    20b8:	00412483          	lw	s1,4(sp)
    20bc:	f95ff06f          	j	2050 <_stack_size+0x50>
    20c0:	05842503          	lw	a0,88(s0)
    20c4:	a18ff0ef          	jal	12dc <__retarget_lock_release_recursive>
    20c8:	f55ff06f          	j	201c <_stack_size+0x1c>

000020cc <fclose>:
    20cc:	00050593          	mv	a1,a0
    20d0:	0fffe517          	auipc	a0,0xfffe
    20d4:	46c52503          	lw	a0,1132(a0) # 1000053c <_impure_ptr>
    20d8:	e89ff06f          	j	1f60 <_fclose_r>

000020dc <__sflush_r>:
    20dc:	00c59703          	lh	a4,12(a1)
    20e0:	fe010113          	addi	sp,sp,-32
    20e4:	00812c23          	sw	s0,24(sp)
    20e8:	01312623          	sw	s3,12(sp)
    20ec:	00112e23          	sw	ra,28(sp)
    20f0:	00877793          	andi	a5,a4,8
    20f4:	00058413          	mv	s0,a1
    20f8:	00050993          	mv	s3,a0
    20fc:	12079063          	bnez	a5,221c <__sflush_r+0x140>
    2100:	000017b7          	lui	a5,0x1
    2104:	80078793          	addi	a5,a5,-2048 # 800 <memset+0x98>
    2108:	0045a683          	lw	a3,4(a1)
    210c:	00f767b3          	or	a5,a4,a5
    2110:	00f59623          	sh	a5,12(a1)
    2114:	18d05a63          	blez	a3,22a8 <__sflush_r+0x1cc>
    2118:	02842803          	lw	a6,40(s0)
    211c:	0e080463          	beqz	a6,2204 <__sflush_r+0x128>
    2120:	00912a23          	sw	s1,20(sp)
    2124:	01371693          	slli	a3,a4,0x13
    2128:	0009a483          	lw	s1,0(s3)
    212c:	0009a023          	sw	zero,0(s3)
    2130:	1806c863          	bltz	a3,22c0 <__sflush_r+0x1e4>
    2134:	01c42583          	lw	a1,28(s0)
    2138:	00000613          	li	a2,0
    213c:	00100693          	li	a3,1
    2140:	00098513          	mv	a0,s3
    2144:	000800e7          	jalr	a6
    2148:	fff00793          	li	a5,-1
    214c:	00050613          	mv	a2,a0
    2150:	1af50a63          	beq	a0,a5,2304 <__sflush_r+0x228>
    2154:	00c41783          	lh	a5,12(s0)
    2158:	02842803          	lw	a6,40(s0)
    215c:	0047f793          	andi	a5,a5,4
    2160:	00078e63          	beqz	a5,217c <__sflush_r+0xa0>
    2164:	00442703          	lw	a4,4(s0)
    2168:	03042783          	lw	a5,48(s0)
    216c:	40e60633          	sub	a2,a2,a4
    2170:	00078663          	beqz	a5,217c <__sflush_r+0xa0>
    2174:	03c42783          	lw	a5,60(s0)
    2178:	40f60633          	sub	a2,a2,a5
    217c:	01c42583          	lw	a1,28(s0)
    2180:	00000693          	li	a3,0
    2184:	00098513          	mv	a0,s3
    2188:	000800e7          	jalr	a6
    218c:	fff00713          	li	a4,-1
    2190:	00c41783          	lh	a5,12(s0)
    2194:	12e51a63          	bne	a0,a4,22c8 <__sflush_r+0x1ec>
    2198:	0009a683          	lw	a3,0(s3)
    219c:	01d00713          	li	a4,29
    21a0:	18d76063          	bltu	a4,a3,2320 <__sflush_r+0x244>
    21a4:	20400737          	lui	a4,0x20400
    21a8:	00170713          	addi	a4,a4,1 # 20400001 <_stack_top+0x103fc001>
    21ac:	00d75733          	srl	a4,a4,a3
    21b0:	00177713          	andi	a4,a4,1
    21b4:	16070663          	beqz	a4,2320 <__sflush_r+0x244>
    21b8:	01042603          	lw	a2,16(s0)
    21bc:	fffff737          	lui	a4,0xfffff
    21c0:	7ff70713          	addi	a4,a4,2047 # fffff7ff <_stack_top+0xefffb7ff>
    21c4:	00e7f733          	and	a4,a5,a4
    21c8:	00e41623          	sh	a4,12(s0)
    21cc:	00042223          	sw	zero,4(s0)
    21d0:	00c42023          	sw	a2,0(s0)
    21d4:	01379713          	slli	a4,a5,0x13
    21d8:	00075463          	bgez	a4,21e0 <__sflush_r+0x104>
    21dc:	10068863          	beqz	a3,22ec <__sflush_r+0x210>
    21e0:	03042583          	lw	a1,48(s0)
    21e4:	0099a023          	sw	s1,0(s3)
    21e8:	10058a63          	beqz	a1,22fc <__sflush_r+0x220>
    21ec:	04040793          	addi	a5,s0,64
    21f0:	00f58663          	beq	a1,a5,21fc <__sflush_r+0x120>
    21f4:	00098513          	mv	a0,s3
    21f8:	a2cff0ef          	jal	1424 <_free_r>
    21fc:	01412483          	lw	s1,20(sp)
    2200:	02042823          	sw	zero,48(s0)
    2204:	01c12083          	lw	ra,28(sp)
    2208:	01812403          	lw	s0,24(sp)
    220c:	00c12983          	lw	s3,12(sp)
    2210:	00000513          	li	a0,0
    2214:	02010113          	addi	sp,sp,32
    2218:	00008067          	ret
    221c:	01212823          	sw	s2,16(sp)
    2220:	0105a903          	lw	s2,16(a1)
    2224:	08090a63          	beqz	s2,22b8 <__sflush_r+0x1dc>
    2228:	00912a23          	sw	s1,20(sp)
    222c:	0005a483          	lw	s1,0(a1)
    2230:	00377713          	andi	a4,a4,3
    2234:	0125a023          	sw	s2,0(a1)
    2238:	412484b3          	sub	s1,s1,s2
    223c:	00000793          	li	a5,0
    2240:	00071463          	bnez	a4,2248 <__sflush_r+0x16c>
    2244:	0145a783          	lw	a5,20(a1)
    2248:	00f42423          	sw	a5,8(s0)
    224c:	00904863          	bgtz	s1,225c <__sflush_r+0x180>
    2250:	0640006f          	j	22b4 <__sflush_r+0x1d8>
    2254:	00a90933          	add	s2,s2,a0
    2258:	04905e63          	blez	s1,22b4 <__sflush_r+0x1d8>
    225c:	02442783          	lw	a5,36(s0)
    2260:	01c42583          	lw	a1,28(s0)
    2264:	00048693          	mv	a3,s1
    2268:	00090613          	mv	a2,s2
    226c:	00098513          	mv	a0,s3
    2270:	000780e7          	jalr	a5
    2274:	40a484b3          	sub	s1,s1,a0
    2278:	fca04ee3          	bgtz	a0,2254 <__sflush_r+0x178>
    227c:	00c41783          	lh	a5,12(s0)
    2280:	01012903          	lw	s2,16(sp)
    2284:	0407e793          	ori	a5,a5,64
    2288:	01c12083          	lw	ra,28(sp)
    228c:	00f41623          	sh	a5,12(s0)
    2290:	01812403          	lw	s0,24(sp)
    2294:	01412483          	lw	s1,20(sp)
    2298:	00c12983          	lw	s3,12(sp)
    229c:	fff00513          	li	a0,-1
    22a0:	02010113          	addi	sp,sp,32
    22a4:	00008067          	ret
    22a8:	03c5a683          	lw	a3,60(a1)
    22ac:	e6d046e3          	bgtz	a3,2118 <__sflush_r+0x3c>
    22b0:	f55ff06f          	j	2204 <__sflush_r+0x128>
    22b4:	01412483          	lw	s1,20(sp)
    22b8:	01012903          	lw	s2,16(sp)
    22bc:	f49ff06f          	j	2204 <__sflush_r+0x128>
    22c0:	05042603          	lw	a2,80(s0)
    22c4:	e99ff06f          	j	215c <__sflush_r+0x80>
    22c8:	01042683          	lw	a3,16(s0)
    22cc:	fffff737          	lui	a4,0xfffff
    22d0:	7ff70713          	addi	a4,a4,2047 # fffff7ff <_stack_top+0xefffb7ff>
    22d4:	00e7f733          	and	a4,a5,a4
    22d8:	00e41623          	sh	a4,12(s0)
    22dc:	00042223          	sw	zero,4(s0)
    22e0:	00d42023          	sw	a3,0(s0)
    22e4:	01379713          	slli	a4,a5,0x13
    22e8:	ee075ce3          	bgez	a4,21e0 <__sflush_r+0x104>
    22ec:	03042583          	lw	a1,48(s0)
    22f0:	04a42823          	sw	a0,80(s0)
    22f4:	0099a023          	sw	s1,0(s3)
    22f8:	ee059ae3          	bnez	a1,21ec <__sflush_r+0x110>
    22fc:	01412483          	lw	s1,20(sp)
    2300:	f05ff06f          	j	2204 <__sflush_r+0x128>
    2304:	0009a783          	lw	a5,0(s3)
    2308:	e40786e3          	beqz	a5,2154 <__sflush_r+0x78>
    230c:	01d00713          	li	a4,29
    2310:	00e78c63          	beq	a5,a4,2328 <__sflush_r+0x24c>
    2314:	01600713          	li	a4,22
    2318:	00e78863          	beq	a5,a4,2328 <__sflush_r+0x24c>
    231c:	00c41783          	lh	a5,12(s0)
    2320:	0407e793          	ori	a5,a5,64
    2324:	f65ff06f          	j	2288 <__sflush_r+0x1ac>
    2328:	0099a023          	sw	s1,0(s3)
    232c:	01412483          	lw	s1,20(sp)
    2330:	ed5ff06f          	j	2204 <__sflush_r+0x128>

00002334 <_fflush_r>:
    2334:	ff010113          	addi	sp,sp,-16
    2338:	00812423          	sw	s0,8(sp)
    233c:	00912223          	sw	s1,4(sp)
    2340:	00112623          	sw	ra,12(sp)
    2344:	01212023          	sw	s2,0(sp)
    2348:	00050493          	mv	s1,a0
    234c:	00058413          	mv	s0,a1
    2350:	00050663          	beqz	a0,235c <_fflush_r+0x28>
    2354:	03452783          	lw	a5,52(a0)
    2358:	0a078a63          	beqz	a5,240c <_fflush_r+0xd8>
    235c:	00c41783          	lh	a5,12(s0)
    2360:	00000913          	li	s2,0
    2364:	04078063          	beqz	a5,23a4 <_fflush_r+0x70>
    2368:	06442703          	lw	a4,100(s0)
    236c:	00177713          	andi	a4,a4,1
    2370:	00071663          	bnez	a4,237c <_fflush_r+0x48>
    2374:	2007f793          	andi	a5,a5,512
    2378:	04078463          	beqz	a5,23c0 <_fflush_r+0x8c>
    237c:	00048513          	mv	a0,s1
    2380:	00040593          	mv	a1,s0
    2384:	d59ff0ef          	jal	20dc <__sflush_r>
    2388:	06442783          	lw	a5,100(s0)
    238c:	00050913          	mv	s2,a0
    2390:	0017f793          	andi	a5,a5,1
    2394:	00079863          	bnez	a5,23a4 <_fflush_r+0x70>
    2398:	00c45783          	lhu	a5,12(s0)
    239c:	2007f793          	andi	a5,a5,512
    23a0:	04078463          	beqz	a5,23e8 <_fflush_r+0xb4>
    23a4:	00c12083          	lw	ra,12(sp)
    23a8:	00812403          	lw	s0,8(sp)
    23ac:	00412483          	lw	s1,4(sp)
    23b0:	00090513          	mv	a0,s2
    23b4:	00012903          	lw	s2,0(sp)
    23b8:	01010113          	addi	sp,sp,16
    23bc:	00008067          	ret
    23c0:	05842503          	lw	a0,88(s0)
    23c4:	f01fe0ef          	jal	12c4 <__retarget_lock_acquire_recursive>
    23c8:	00048513          	mv	a0,s1
    23cc:	00040593          	mv	a1,s0
    23d0:	d0dff0ef          	jal	20dc <__sflush_r>
    23d4:	06442783          	lw	a5,100(s0)
    23d8:	00050913          	mv	s2,a0
    23dc:	0017f793          	andi	a5,a5,1
    23e0:	fc0792e3          	bnez	a5,23a4 <_fflush_r+0x70>
    23e4:	fb5ff06f          	j	2398 <_fflush_r+0x64>
    23e8:	05842503          	lw	a0,88(s0)
    23ec:	ef1fe0ef          	jal	12dc <__retarget_lock_release_recursive>
    23f0:	00c12083          	lw	ra,12(sp)
    23f4:	00812403          	lw	s0,8(sp)
    23f8:	00412483          	lw	s1,4(sp)
    23fc:	00090513          	mv	a0,s2
    2400:	00012903          	lw	s2,0(sp)
    2404:	01010113          	addi	sp,sp,16
    2408:	00008067          	ret
    240c:	8bdfe0ef          	jal	cc8 <__sinit>
    2410:	f4dff06f          	j	235c <_fflush_r+0x28>

00002414 <fflush>:
    2414:	0a050c63          	beqz	a0,24cc <fflush+0xb8>
    2418:	ff010113          	addi	sp,sp,-16
    241c:	01212023          	sw	s2,0(sp)
    2420:	0fffe917          	auipc	s2,0xfffe
    2424:	11c92903          	lw	s2,284(s2) # 1000053c <_impure_ptr>
    2428:	00812423          	sw	s0,8(sp)
    242c:	00112623          	sw	ra,12(sp)
    2430:	00912223          	sw	s1,4(sp)
    2434:	00050413          	mv	s0,a0
    2438:	00090663          	beqz	s2,2444 <fflush+0x30>
    243c:	03492783          	lw	a5,52(s2)
    2440:	06078463          	beqz	a5,24a8 <fflush+0x94>
    2444:	00c41783          	lh	a5,12(s0)
    2448:	00000493          	li	s1,0
    244c:	04078063          	beqz	a5,248c <fflush+0x78>
    2450:	06442703          	lw	a4,100(s0)
    2454:	00177713          	andi	a4,a4,1
    2458:	00071663          	bnez	a4,2464 <fflush+0x50>
    245c:	2007f793          	andi	a5,a5,512
    2460:	04078a63          	beqz	a5,24b4 <fflush+0xa0>
    2464:	00090513          	mv	a0,s2
    2468:	00040593          	mv	a1,s0
    246c:	c71ff0ef          	jal	20dc <__sflush_r>
    2470:	06442783          	lw	a5,100(s0)
    2474:	00050493          	mv	s1,a0
    2478:	0017f793          	andi	a5,a5,1
    247c:	00079863          	bnez	a5,248c <fflush+0x78>
    2480:	00c45783          	lhu	a5,12(s0)
    2484:	2007f793          	andi	a5,a5,512
    2488:	02078c63          	beqz	a5,24c0 <fflush+0xac>
    248c:	00c12083          	lw	ra,12(sp)
    2490:	00812403          	lw	s0,8(sp)
    2494:	00012903          	lw	s2,0(sp)
    2498:	00048513          	mv	a0,s1
    249c:	00412483          	lw	s1,4(sp)
    24a0:	01010113          	addi	sp,sp,16
    24a4:	00008067          	ret
    24a8:	00090513          	mv	a0,s2
    24ac:	81dfe0ef          	jal	cc8 <__sinit>
    24b0:	f95ff06f          	j	2444 <fflush+0x30>
    24b4:	05842503          	lw	a0,88(s0)
    24b8:	e0dfe0ef          	jal	12c4 <__retarget_lock_acquire_recursive>
    24bc:	fa9ff06f          	j	2464 <fflush+0x50>
    24c0:	05842503          	lw	a0,88(s0)
    24c4:	e19fe0ef          	jal	12dc <__retarget_lock_release_recursive>
    24c8:	fc5ff06f          	j	248c <fflush+0x78>
    24cc:	0fffe617          	auipc	a2,0xfffe
    24d0:	c5460613          	addi	a2,a2,-940 # 10000120 <__sglue>
    24d4:	00000597          	auipc	a1,0x0
    24d8:	e6058593          	addi	a1,a1,-416 # 2334 <_fflush_r>
    24dc:	0fffe517          	auipc	a0,0xfffe
    24e0:	b2450513          	addi	a0,a0,-1244 # 10000000 <_impure_data>
    24e4:	8d5fe06f          	j	db8 <_fwalk_sglue>

000024e8 <_sbrk_r>:
    24e8:	ff010113          	addi	sp,sp,-16
    24ec:	00812423          	sw	s0,8(sp)
    24f0:	00050413          	mv	s0,a0
    24f4:	00058513          	mv	a0,a1
    24f8:	00000797          	auipc	a5,0x0
    24fc:	5c07ac23          	sw	zero,1496(a5) # 2ad0 <errno>
    2500:	00112623          	sw	ra,12(sp)
    2504:	868fe0ef          	jal	56c <_sbrk>
    2508:	fff00793          	li	a5,-1
    250c:	00f50a63          	beq	a0,a5,2520 <_sbrk_r+0x38>
    2510:	00c12083          	lw	ra,12(sp)
    2514:	00812403          	lw	s0,8(sp)
    2518:	01010113          	addi	sp,sp,16
    251c:	00008067          	ret
    2520:	00912223          	sw	s1,4(sp)
    2524:	00000497          	auipc	s1,0x0
    2528:	5ac48493          	addi	s1,s1,1452 # 2ad0 <errno>
    252c:	0004a783          	lw	a5,0(s1)
    2530:	00078e63          	beqz	a5,254c <_sbrk_r+0x64>
    2534:	00c12083          	lw	ra,12(sp)
    2538:	00f42023          	sw	a5,0(s0)
    253c:	00812403          	lw	s0,8(sp)
    2540:	00412483          	lw	s1,4(sp)
    2544:	01010113          	addi	sp,sp,16
    2548:	00008067          	ret
    254c:	00c12083          	lw	ra,12(sp)
    2550:	00812403          	lw	s0,8(sp)
    2554:	00412483          	lw	s1,4(sp)
    2558:	01010113          	addi	sp,sp,16
    255c:	00008067          	ret
    2560:	7270                	.insn	2, 0x7270
    2562:	6172676f          	jal	a4,29378 <_end+0x26878>
    2566:	206d                	.insn	2, 0x206d
    2568:	72617473          	.insn	4, 0x72617473
    256c:	2174                	.insn	2, 0x2174
    256e:	0a0d                	.insn	2, 0x0a0d
    2570:	0000                	.insn	2, 0x
    2572:	0000                	.insn	2, 0x
    2574:	6574                	.insn	2, 0x6574
    2576:	31207473          	.insn	4, 0x31207473
    257a:	3332                	.insn	2, 0x3332
    257c:	0a0d                	.insn	2, 0x0a0d
	...
